
L476_BLE_Test.elf:     file format elf32-littlearm

Sections:
Idx Name          Size      VMA       LMA       File off  Algn
  0 .isr_vector   00000188  08000000  08000000  00010000  2**0
                  CONTENTS, ALLOC, LOAD, READONLY, DATA
  1 .text         00002c2c  08000188  08000188  00010188  2**2
                  CONTENTS, ALLOC, LOAD, READONLY, CODE
  2 .rodata       00000048  08002db4  08002db4  00012db4  2**2
                  CONTENTS, ALLOC, LOAD, READONLY, DATA
  3 .ARM.extab    00000000  08002dfc  08002dfc  0002000c  2**0
                  CONTENTS
  4 .ARM          00000008  08002dfc  08002dfc  00012dfc  2**2
                  CONTENTS, ALLOC, LOAD, READONLY, DATA
  5 .preinit_array 00000000  08002e04  08002e04  0002000c  2**0
                  CONTENTS, ALLOC, LOAD, DATA
  6 .init_array   00000004  08002e04  08002e04  00012e04  2**2
                  CONTENTS, ALLOC, LOAD, DATA
  7 .fini_array   00000004  08002e08  08002e08  00012e08  2**2
                  CONTENTS, ALLOC, LOAD, DATA
  8 .data         0000000c  20000000  08002e0c  00020000  2**2
                  CONTENTS, ALLOC, LOAD, DATA
  9 .bss          000000a0  2000000c  08002e18  0002000c  2**2
                  ALLOC
 10 ._user_heap_stack 00000604  200000ac  08002e18  000200ac  2**0
                  ALLOC
 11 .ARM.attributes 00000030  00000000  00000000  0002000c  2**0
                  CONTENTS, READONLY
 12 .debug_info   0000949e  00000000  00000000  0002003c  2**0
                  CONTENTS, READONLY, DEBUGGING
 13 .debug_abbrev 00001533  00000000  00000000  000294da  2**0
                  CONTENTS, READONLY, DEBUGGING
 14 .debug_aranges 00000868  00000000  00000000  0002aa10  2**3
                  CONTENTS, READONLY, DEBUGGING
 15 .debug_ranges 000007b0  00000000  00000000  0002b278  2**3
                  CONTENTS, READONLY, DEBUGGING
 16 .debug_macro  000016b0  00000000  00000000  0002ba28  2**0
                  CONTENTS, READONLY, DEBUGGING
 17 .debug_line   00007140  00000000  00000000  0002d0d8  2**0
                  CONTENTS, READONLY, DEBUGGING
 18 .debug_str    000e7243  00000000  00000000  00034218  2**0
                  CONTENTS, READONLY, DEBUGGING
 19 .comment      0000007b  00000000  00000000  0011b45b  2**0
                  CONTENTS, READONLY
 20 .debug_frame  00002168  00000000  00000000  0011b4d8  2**2
                  CONTENTS, READONLY, DEBUGGING

Disassembly of section .text:

08000188 <__do_global_dtors_aux>:
 8000188:	b510      	push	{r4, lr}
 800018a:	4c05      	ldr	r4, [pc, #20]	; (80001a0 <__do_global_dtors_aux+0x18>)
 800018c:	7823      	ldrb	r3, [r4, #0]
 800018e:	b933      	cbnz	r3, 800019e <__do_global_dtors_aux+0x16>
 8000190:	4b04      	ldr	r3, [pc, #16]	; (80001a4 <__do_global_dtors_aux+0x1c>)
 8000192:	b113      	cbz	r3, 800019a <__do_global_dtors_aux+0x12>
 8000194:	4804      	ldr	r0, [pc, #16]	; (80001a8 <__do_global_dtors_aux+0x20>)
 8000196:	f3af 8000 	nop.w
 800019a:	2301      	movs	r3, #1
 800019c:	7023      	strb	r3, [r4, #0]
 800019e:	bd10      	pop	{r4, pc}
 80001a0:	2000000c 	.word	0x2000000c
 80001a4:	00000000 	.word	0x00000000
 80001a8:	08002d9c 	.word	0x08002d9c

080001ac <frame_dummy>:
 80001ac:	b508      	push	{r3, lr}
 80001ae:	4b03      	ldr	r3, [pc, #12]	; (80001bc <frame_dummy+0x10>)
 80001b0:	b11b      	cbz	r3, 80001ba <frame_dummy+0xe>
 80001b2:	4903      	ldr	r1, [pc, #12]	; (80001c0 <frame_dummy+0x14>)
 80001b4:	4803      	ldr	r0, [pc, #12]	; (80001c4 <frame_dummy+0x18>)
 80001b6:	f3af 8000 	nop.w
 80001ba:	bd08      	pop	{r3, pc}
 80001bc:	00000000 	.word	0x00000000
 80001c0:	20000010 	.word	0x20000010
 80001c4:	08002d9c 	.word	0x08002d9c

080001c8 <__aeabi_uldivmod>:
 80001c8:	b953      	cbnz	r3, 80001e0 <__aeabi_uldivmod+0x18>
 80001ca:	b94a      	cbnz	r2, 80001e0 <__aeabi_uldivmod+0x18>
 80001cc:	2900      	cmp	r1, #0
 80001ce:	bf08      	it	eq
 80001d0:	2800      	cmpeq	r0, #0
 80001d2:	bf1c      	itt	ne
 80001d4:	f04f 31ff 	movne.w	r1, #4294967295	; 0xffffffff
 80001d8:	f04f 30ff 	movne.w	r0, #4294967295	; 0xffffffff
 80001dc:	f000 b972 	b.w	80004c4 <__aeabi_idiv0>
 80001e0:	f1ad 0c08 	sub.w	ip, sp, #8
 80001e4:	e96d ce04 	strd	ip, lr, [sp, #-16]!
 80001e8:	f000 f806 	bl	80001f8 <__udivmoddi4>
 80001ec:	f8dd e004 	ldr.w	lr, [sp, #4]
 80001f0:	e9dd 2302 	ldrd	r2, r3, [sp, #8]
 80001f4:	b004      	add	sp, #16
 80001f6:	4770      	bx	lr

080001f8 <__udivmoddi4>:
 80001f8:	e92d 47f0 	stmdb	sp!, {r4, r5, r6, r7, r8, r9, sl, lr}
 80001fc:	9e08      	ldr	r6, [sp, #32]
 80001fe:	4604      	mov	r4, r0
 8000200:	4688      	mov	r8, r1
 8000202:	2b00      	cmp	r3, #0
 8000204:	d14b      	bne.n	800029e <__udivmoddi4+0xa6>
 8000206:	428a      	cmp	r2, r1
 8000208:	4615      	mov	r5, r2
 800020a:	d967      	bls.n	80002dc <__udivmoddi4+0xe4>
 800020c:	fab2 f282 	clz	r2, r2
 8000210:	b14a      	cbz	r2, 8000226 <__udivmoddi4+0x2e>
 8000212:	f1c2 0720 	rsb	r7, r2, #32
 8000216:	fa01 f302 	lsl.w	r3, r1, r2
 800021a:	fa20 f707 	lsr.w	r7, r0, r7
 800021e:	4095      	lsls	r5, r2
 8000220:	ea47 0803 	orr.w	r8, r7, r3
 8000224:	4094      	lsls	r4, r2
 8000226:	ea4f 4e15 	mov.w	lr, r5, lsr #16
 800022a:	0c23      	lsrs	r3, r4, #16
 800022c:	fbb8 f7fe 	udiv	r7, r8, lr
 8000230:	fa1f fc85 	uxth.w	ip, r5
 8000234:	fb0e 8817 	mls	r8, lr, r7, r8
 8000238:	ea43 4308 	orr.w	r3, r3, r8, lsl #16
 800023c:	fb07 f10c 	mul.w	r1, r7, ip
 8000240:	4299      	cmp	r1, r3
 8000242:	d909      	bls.n	8000258 <__udivmoddi4+0x60>
 8000244:	18eb      	adds	r3, r5, r3
 8000246:	f107 30ff 	add.w	r0, r7, #4294967295	; 0xffffffff
 800024a:	f080 811b 	bcs.w	8000484 <__udivmoddi4+0x28c>
 800024e:	4299      	cmp	r1, r3
 8000250:	f240 8118 	bls.w	8000484 <__udivmoddi4+0x28c>
 8000254:	3f02      	subs	r7, #2
 8000256:	442b      	add	r3, r5
 8000258:	1a5b      	subs	r3, r3, r1
 800025a:	b2a4      	uxth	r4, r4
 800025c:	fbb3 f0fe 	udiv	r0, r3, lr
 8000260:	fb0e 3310 	mls	r3, lr, r0, r3
 8000264:	ea44 4403 	orr.w	r4, r4, r3, lsl #16
 8000268:	fb00 fc0c 	mul.w	ip, r0, ip
 800026c:	45a4      	cmp	ip, r4
 800026e:	d909      	bls.n	8000284 <__udivmoddi4+0x8c>
 8000270:	192c      	adds	r4, r5, r4
 8000272:	f100 33ff 	add.w	r3, r0, #4294967295	; 0xffffffff
 8000276:	f080 8107 	bcs.w	8000488 <__udivmoddi4+0x290>
 800027a:	45a4      	cmp	ip, r4
 800027c:	f240 8104 	bls.w	8000488 <__udivmoddi4+0x290>
 8000280:	3802      	subs	r0, #2
 8000282:	442c      	add	r4, r5
 8000284:	ea40 4007 	orr.w	r0, r0, r7, lsl #16
 8000288:	eba4 040c 	sub.w	r4, r4, ip
 800028c:	2700      	movs	r7, #0
 800028e:	b11e      	cbz	r6, 8000298 <__udivmoddi4+0xa0>
 8000290:	40d4      	lsrs	r4, r2
 8000292:	2300      	movs	r3, #0
 8000294:	e9c6 4300 	strd	r4, r3, [r6]
 8000298:	4639      	mov	r1, r7
 800029a:	e8bd 87f0 	ldmia.w	sp!, {r4, r5, r6, r7, r8, r9, sl, pc}
 800029e:	428b      	cmp	r3, r1
 80002a0:	d909      	bls.n	80002b6 <__udivmoddi4+0xbe>
 80002a2:	2e00      	cmp	r6, #0
 80002a4:	f000 80eb 	beq.w	800047e <__udivmoddi4+0x286>
 80002a8:	2700      	movs	r7, #0
 80002aa:	e9c6 0100 	strd	r0, r1, [r6]
 80002ae:	4638      	mov	r0, r7
 80002b0:	4639      	mov	r1, r7
 80002b2:	e8bd 87f0 	ldmia.w	sp!, {r4, r5, r6, r7, r8, r9, sl, pc}
 80002b6:	fab3 f783 	clz	r7, r3
 80002ba:	2f00      	cmp	r7, #0
 80002bc:	d147      	bne.n	800034e <__udivmoddi4+0x156>
 80002be:	428b      	cmp	r3, r1
 80002c0:	d302      	bcc.n	80002c8 <__udivmoddi4+0xd0>
 80002c2:	4282      	cmp	r2, r0
 80002c4:	f200 80fa 	bhi.w	80004bc <__udivmoddi4+0x2c4>
 80002c8:	1a84      	subs	r4, r0, r2
 80002ca:	eb61 0303 	sbc.w	r3, r1, r3
 80002ce:	2001      	movs	r0, #1
 80002d0:	4698      	mov	r8, r3
 80002d2:	2e00      	cmp	r6, #0
 80002d4:	d0e0      	beq.n	8000298 <__udivmoddi4+0xa0>
 80002d6:	e9c6 4800 	strd	r4, r8, [r6]
 80002da:	e7dd      	b.n	8000298 <__udivmoddi4+0xa0>
 80002dc:	b902      	cbnz	r2, 80002e0 <__udivmoddi4+0xe8>
 80002de:	deff      	udf	#255	; 0xff
 80002e0:	fab2 f282 	clz	r2, r2
 80002e4:	2a00      	cmp	r2, #0
 80002e6:	f040 808f 	bne.w	8000408 <__udivmoddi4+0x210>
 80002ea:	1b49      	subs	r1, r1, r5
 80002ec:	ea4f 4e15 	mov.w	lr, r5, lsr #16
 80002f0:	fa1f f885 	uxth.w	r8, r5
 80002f4:	2701      	movs	r7, #1
 80002f6:	fbb1 fcfe 	udiv	ip, r1, lr
 80002fa:	0c23      	lsrs	r3, r4, #16
 80002fc:	fb0e 111c 	mls	r1, lr, ip, r1
 8000300:	ea43 4301 	orr.w	r3, r3, r1, lsl #16
 8000304:	fb08 f10c 	mul.w	r1, r8, ip
 8000308:	4299      	cmp	r1, r3
 800030a:	d907      	bls.n	800031c <__udivmoddi4+0x124>
 800030c:	18eb      	adds	r3, r5, r3
 800030e:	f10c 30ff 	add.w	r0, ip, #4294967295	; 0xffffffff
 8000312:	d202      	bcs.n	800031a <__udivmoddi4+0x122>
 8000314:	4299      	cmp	r1, r3
 8000316:	f200 80cd 	bhi.w	80004b4 <__udivmoddi4+0x2bc>
 800031a:	4684      	mov	ip, r0
 800031c:	1a59      	subs	r1, r3, r1
 800031e:	b2a3      	uxth	r3, r4
 8000320:	fbb1 f0fe 	udiv	r0, r1, lr
 8000324:	fb0e 1410 	mls	r4, lr, r0, r1
 8000328:	ea43 4404 	orr.w	r4, r3, r4, lsl #16
 800032c:	fb08 f800 	mul.w	r8, r8, r0
 8000330:	45a0      	cmp	r8, r4
 8000332:	d907      	bls.n	8000344 <__udivmoddi4+0x14c>
 8000334:	192c      	adds	r4, r5, r4
 8000336:	f100 33ff 	add.w	r3, r0, #4294967295	; 0xffffffff
 800033a:	d202      	bcs.n	8000342 <__udivmoddi4+0x14a>
 800033c:	45a0      	cmp	r8, r4
 800033e:	f200 80b6 	bhi.w	80004ae <__udivmoddi4+0x2b6>
 8000342:	4618      	mov	r0, r3
 8000344:	eba4 0408 	sub.w	r4, r4, r8
 8000348:	ea40 400c 	orr.w	r0, r0, ip, lsl #16
 800034c:	e79f      	b.n	800028e <__udivmoddi4+0x96>
 800034e:	f1c7 0c20 	rsb	ip, r7, #32
 8000352:	40bb      	lsls	r3, r7
 8000354:	fa22 fe0c 	lsr.w	lr, r2, ip
 8000358:	ea4e 0e03 	orr.w	lr, lr, r3
 800035c:	fa01 f407 	lsl.w	r4, r1, r7
 8000360:	fa20 f50c 	lsr.w	r5, r0, ip
 8000364:	fa21 f30c 	lsr.w	r3, r1, ip
 8000368:	ea4f 481e 	mov.w	r8, lr, lsr #16
 800036c:	4325      	orrs	r5, r4
 800036e:	fbb3 f9f8 	udiv	r9, r3, r8
 8000372:	0c2c      	lsrs	r4, r5, #16
 8000374:	fb08 3319 	mls	r3, r8, r9, r3
 8000378:	fa1f fa8e 	uxth.w	sl, lr
 800037c:	ea44 4303 	orr.w	r3, r4, r3, lsl #16
 8000380:	fb09 f40a 	mul.w	r4, r9, sl
 8000384:	429c      	cmp	r4, r3
 8000386:	fa02 f207 	lsl.w	r2, r2, r7
 800038a:	fa00 f107 	lsl.w	r1, r0, r7
 800038e:	d90b      	bls.n	80003a8 <__udivmoddi4+0x1b0>
 8000390:	eb1e 0303 	adds.w	r3, lr, r3
 8000394:	f109 30ff 	add.w	r0, r9, #4294967295	; 0xffffffff
 8000398:	f080 8087 	bcs.w	80004aa <__udivmoddi4+0x2b2>
 800039c:	429c      	cmp	r4, r3
 800039e:	f240 8084 	bls.w	80004aa <__udivmoddi4+0x2b2>
 80003a2:	f1a9 0902 	sub.w	r9, r9, #2
 80003a6:	4473      	add	r3, lr
 80003a8:	1b1b      	subs	r3, r3, r4
 80003aa:	b2ad      	uxth	r5, r5
 80003ac:	fbb3 f0f8 	udiv	r0, r3, r8
 80003b0:	fb08 3310 	mls	r3, r8, r0, r3
 80003b4:	ea45 4403 	orr.w	r4, r5, r3, lsl #16
 80003b8:	fb00 fa0a 	mul.w	sl, r0, sl
 80003bc:	45a2      	cmp	sl, r4
 80003be:	d908      	bls.n	80003d2 <__udivmoddi4+0x1da>
 80003c0:	eb1e 0404 	adds.w	r4, lr, r4
 80003c4:	f100 33ff 	add.w	r3, r0, #4294967295	; 0xffffffff
 80003c8:	d26b      	bcs.n	80004a2 <__udivmoddi4+0x2aa>
 80003ca:	45a2      	cmp	sl, r4
 80003cc:	d969      	bls.n	80004a2 <__udivmoddi4+0x2aa>
 80003ce:	3802      	subs	r0, #2
 80003d0:	4474      	add	r4, lr
 80003d2:	ea40 4009 	orr.w	r0, r0, r9, lsl #16
 80003d6:	fba0 8902 	umull	r8, r9, r0, r2
 80003da:	eba4 040a 	sub.w	r4, r4, sl
 80003de:	454c      	cmp	r4, r9
 80003e0:	46c2      	mov	sl, r8
 80003e2:	464b      	mov	r3, r9
 80003e4:	d354      	bcc.n	8000490 <__udivmoddi4+0x298>
 80003e6:	d051      	beq.n	800048c <__udivmoddi4+0x294>
 80003e8:	2e00      	cmp	r6, #0
 80003ea:	d069      	beq.n	80004c0 <__udivmoddi4+0x2c8>
 80003ec:	ebb1 050a 	subs.w	r5, r1, sl
 80003f0:	eb64 0403 	sbc.w	r4, r4, r3
 80003f4:	fa04 fc0c 	lsl.w	ip, r4, ip
 80003f8:	40fd      	lsrs	r5, r7
 80003fa:	40fc      	lsrs	r4, r7
 80003fc:	ea4c 0505 	orr.w	r5, ip, r5
 8000400:	e9c6 5400 	strd	r5, r4, [r6]
 8000404:	2700      	movs	r7, #0
 8000406:	e747      	b.n	8000298 <__udivmoddi4+0xa0>
 8000408:	f1c2 0320 	rsb	r3, r2, #32
 800040c:	fa20 f703 	lsr.w	r7, r0, r3
 8000410:	4095      	lsls	r5, r2
 8000412:	fa01 f002 	lsl.w	r0, r1, r2
 8000416:	fa21 f303 	lsr.w	r3, r1, r3
 800041a:	ea4f 4e15 	mov.w	lr, r5, lsr #16
 800041e:	4338      	orrs	r0, r7
 8000420:	0c01      	lsrs	r1, r0, #16
 8000422:	fbb3 f7fe 	udiv	r7, r3, lr
 8000426:	fa1f f885 	uxth.w	r8, r5
 800042a:	fb0e 3317 	mls	r3, lr, r7, r3
 800042e:	ea41 4103 	orr.w	r1, r1, r3, lsl #16
 8000432:	fb07 f308 	mul.w	r3, r7, r8
 8000436:	428b      	cmp	r3, r1
 8000438:	fa04 f402 	lsl.w	r4, r4, r2
 800043c:	d907      	bls.n	800044e <__udivmoddi4+0x256>
 800043e:	1869      	adds	r1, r5, r1
 8000440:	f107 3cff 	add.w	ip, r7, #4294967295	; 0xffffffff
 8000444:	d22f      	bcs.n	80004a6 <__udivmoddi4+0x2ae>
 8000446:	428b      	cmp	r3, r1
 8000448:	d92d      	bls.n	80004a6 <__udivmoddi4+0x2ae>
 800044a:	3f02      	subs	r7, #2
 800044c:	4429      	add	r1, r5
 800044e:	1acb      	subs	r3, r1, r3
 8000450:	b281      	uxth	r1, r0
 8000452:	fbb3 f0fe 	udiv	r0, r3, lr
 8000456:	fb0e 3310 	mls	r3, lr, r0, r3
 800045a:	ea41 4103 	orr.w	r1, r1, r3, lsl #16
 800045e:	fb00 f308 	mul.w	r3, r0, r8
 8000462:	428b      	cmp	r3, r1
 8000464:	d907      	bls.n	8000476 <__udivmoddi4+0x27e>
 8000466:	1869      	adds	r1, r5, r1
 8000468:	f100 3cff 	add.w	ip, r0, #4294967295	; 0xffffffff
 800046c:	d217      	bcs.n	800049e <__udivmoddi4+0x2a6>
 800046e:	428b      	cmp	r3, r1
 8000470:	d915      	bls.n	800049e <__udivmoddi4+0x2a6>
 8000472:	3802      	subs	r0, #2
 8000474:	4429      	add	r1, r5
 8000476:	1ac9      	subs	r1, r1, r3
 8000478:	ea40 4707 	orr.w	r7, r0, r7, lsl #16
 800047c:	e73b      	b.n	80002f6 <__udivmoddi4+0xfe>
 800047e:	4637      	mov	r7, r6
 8000480:	4630      	mov	r0, r6
 8000482:	e709      	b.n	8000298 <__udivmoddi4+0xa0>
 8000484:	4607      	mov	r7, r0
 8000486:	e6e7      	b.n	8000258 <__udivmoddi4+0x60>
 8000488:	4618      	mov	r0, r3
 800048a:	e6fb      	b.n	8000284 <__udivmoddi4+0x8c>
 800048c:	4541      	cmp	r1, r8
 800048e:	d2ab      	bcs.n	80003e8 <__udivmoddi4+0x1f0>
 8000490:	ebb8 0a02 	subs.w	sl, r8, r2
 8000494:	eb69 020e 	sbc.w	r2, r9, lr
 8000498:	3801      	subs	r0, #1
 800049a:	4613      	mov	r3, r2
 800049c:	e7a4      	b.n	80003e8 <__udivmoddi4+0x1f0>
 800049e:	4660      	mov	r0, ip
 80004a0:	e7e9      	b.n	8000476 <__udivmoddi4+0x27e>
 80004a2:	4618      	mov	r0, r3
 80004a4:	e795      	b.n	80003d2 <__udivmoddi4+0x1da>
 80004a6:	4667      	mov	r7, ip
 80004a8:	e7d1      	b.n	800044e <__udivmoddi4+0x256>
 80004aa:	4681      	mov	r9, r0
 80004ac:	e77c      	b.n	80003a8 <__udivmoddi4+0x1b0>
 80004ae:	3802      	subs	r0, #2
 80004b0:	442c      	add	r4, r5
 80004b2:	e747      	b.n	8000344 <__udivmoddi4+0x14c>
 80004b4:	f1ac 0c02 	sub.w	ip, ip, #2
 80004b8:	442b      	add	r3, r5
 80004ba:	e72f      	b.n	800031c <__udivmoddi4+0x124>
 80004bc:	4638      	mov	r0, r7
 80004be:	e708      	b.n	80002d2 <__udivmoddi4+0xda>
 80004c0:	4637      	mov	r7, r6
 80004c2:	e6e9      	b.n	8000298 <__udivmoddi4+0xa0>

080004c4 <__aeabi_idiv0>:
 80004c4:	4770      	bx	lr
 80004c6:	bf00      	nop

080004c8 <main>:
/**
  * @brief  The application entry point.
  * @retval int
  */
int main(void)
{
 80004c8:	b580      	push	{r7, lr}
 80004ca:	af00      	add	r7, sp, #0
  /* USER CODE END 1 */

  /* MCU Configuration--------------------------------------------------------*/

  /* Reset of all peripherals, Initializes the Flash interface and the Systick. */
  HAL_Init();
 80004cc:	f000 f9e7 	bl	800089e <HAL_Init>
  /* USER CODE BEGIN Init */

  /* USER CODE END Init */

  /* Configure the system clock */
  SystemClock_Config();
 80004d0:	f000 f805 	bl	80004de <SystemClock_Config>
  /* USER CODE BEGIN SysInit */

  /* USER CODE END SysInit */

  /* Initialize all configured peripherals */
  MX_GPIO_Init();
 80004d4:	f000 f898 	bl	8000608 <MX_GPIO_Init>
  MX_USART1_UART_Init();
 80004d8:	f000 f866 	bl	80005a8 <MX_USART1_UART_Init>

  /* USER CODE END 2 */

  /* Infinite loop */
  /* USER CODE BEGIN WHILE */
  while (1)
 80004dc:	e7fe      	b.n	80004dc <main+0x14>

080004de <SystemClock_Config>:
/**
  * @brief System Clock Configuration
  * @retval None
  */
void SystemClock_Config(void)
{
 80004de:	b580      	push	{r7, lr}
 80004e0:	b0b8      	sub	sp, #224	; 0xe0
 80004e2:	af00      	add	r7, sp, #0
  RCC_OscInitTypeDef RCC_OscInitStruct = {0};
 80004e4:	f107 039c 	add.w	r3, r7, #156	; 0x9c
 80004e8:	2244      	movs	r2, #68	; 0x44
 80004ea:	2100      	movs	r1, #0
 80004ec:	4618      	mov	r0, r3
 80004ee:	f002 fc4d 	bl	8002d8c <memset>
  RCC_ClkInitTypeDef RCC_ClkInitStruct = {0};
 80004f2:	f107 0388 	add.w	r3, r7, #136	; 0x88
 80004f6:	2200      	movs	r2, #0
 80004f8:	601a      	str	r2, [r3, #0]
 80004fa:	605a      	str	r2, [r3, #4]
 80004fc:	609a      	str	r2, [r3, #8]
 80004fe:	60da      	str	r2, [r3, #12]
 8000500:	611a      	str	r2, [r3, #16]
  RCC_PeriphCLKInitTypeDef PeriphClkInit = {0};
 8000502:	463b      	mov	r3, r7
 8000504:	2288      	movs	r2, #136	; 0x88
 8000506:	2100      	movs	r1, #0
 8000508:	4618      	mov	r0, r3
 800050a:	f002 fc3f 	bl	8002d8c <memset>

  /** Initializes the RCC Oscillators according to the specified parameters
  * in the RCC_OscInitTypeDef structure.
  */
  RCC_OscInitStruct.OscillatorType = RCC_OSCILLATORTYPE_MSI;
 800050e:	2310      	movs	r3, #16
 8000510:	f8c7 309c 	str.w	r3, [r7, #156]	; 0x9c
  RCC_OscInitStruct.MSIState = RCC_MSI_ON;
 8000514:	2301      	movs	r3, #1
 8000516:	f8c7 30b4 	str.w	r3, [r7, #180]	; 0xb4
  RCC_OscInitStruct.MSICalibrationValue = 0;
 800051a:	2300      	movs	r3, #0
 800051c:	f8c7 30b8 	str.w	r3, [r7, #184]	; 0xb8
  RCC_OscInitStruct.MSIClockRange = RCC_MSIRANGE_11;
 8000520:	23b0      	movs	r3, #176	; 0xb0
 8000522:	f8c7 30bc 	str.w	r3, [r7, #188]	; 0xbc
  RCC_OscInitStruct.PLL.PLLState = RCC_PLL_NONE;
 8000526:	2300      	movs	r3, #0
 8000528:	f8c7 30c4 	str.w	r3, [r7, #196]	; 0xc4
  if (HAL_RCC_OscConfig(&RCC_OscInitStruct) != HAL_OK)
 800052c:	f107 039c 	add.w	r3, r7, #156	; 0x9c
 8000530:	4618      	mov	r0, r3
 8000532:	f000 fd33 	bl	8000f9c <HAL_RCC_OscConfig>
 8000536:	4603      	mov	r3, r0
 8000538:	2b00      	cmp	r3, #0
 800053a:	d001      	beq.n	8000540 <SystemClock_Config+0x62>
  {
    Error_Handler();
 800053c:	f000 f8b2 	bl	80006a4 <Error_Handler>
  }
  /** Initializes the CPU, AHB and APB buses clocks
  */
  RCC_ClkInitStruct.ClockType = RCC_CLOCKTYPE_HCLK|RCC_CLOCKTYPE_SYSCLK
 8000540:	230f      	movs	r3, #15
 8000542:	f8c7 3088 	str.w	r3, [r7, #136]	; 0x88
                              |RCC_CLOCKTYPE_PCLK1|RCC_CLOCKTYPE_PCLK2;
  RCC_ClkInitStruct.SYSCLKSource = RCC_SYSCLKSOURCE_MSI;
 8000546:	2300      	movs	r3, #0
 8000548:	f8c7 308c 	str.w	r3, [r7, #140]	; 0x8c
  RCC_ClkInitStruct.AHBCLKDivider = RCC_SYSCLK_DIV1;
 800054c:	2300      	movs	r3, #0
 800054e:	f8c7 3090 	str.w	r3, [r7, #144]	; 0x90
  RCC_ClkInitStruct.APB1CLKDivider = RCC_HCLK_DIV1;
 8000552:	2300      	movs	r3, #0
 8000554:	f8c7 3094 	str.w	r3, [r7, #148]	; 0x94
  RCC_ClkInitStruct.APB2CLKDivider = RCC_HCLK_DIV1;
 8000558:	2300      	movs	r3, #0
 800055a:	f8c7 3098 	str.w	r3, [r7, #152]	; 0x98

  if (HAL_RCC_ClockConfig(&RCC_ClkInitStruct, FLASH_LATENCY_2) != HAL_OK)
 800055e:	f107 0388 	add.w	r3, r7, #136	; 0x88
 8000562:	2102      	movs	r1, #2
 8000564:	4618      	mov	r0, r3
 8000566:	f001 f8ff 	bl	8001768 <HAL_RCC_ClockConfig>
 800056a:	4603      	mov	r3, r0
 800056c:	2b00      	cmp	r3, #0
 800056e:	d001      	beq.n	8000574 <SystemClock_Config+0x96>
  {
    Error_Handler();
 8000570:	f000 f898 	bl	80006a4 <Error_Handler>
  }
  PeriphClkInit.PeriphClockSelection = RCC_PERIPHCLK_USART1;
 8000574:	2301      	movs	r3, #1
 8000576:	603b      	str	r3, [r7, #0]
  PeriphClkInit.Usart1ClockSelection = RCC_USART1CLKSOURCE_PCLK2;
 8000578:	2300      	movs	r3, #0
 800057a:	63bb      	str	r3, [r7, #56]	; 0x38
  if (HAL_RCCEx_PeriphCLKConfig(&PeriphClkInit) != HAL_OK)
 800057c:	463b      	mov	r3, r7
 800057e:	4618      	mov	r0, r3
 8000580:	f001 faf6 	bl	8001b70 <HAL_RCCEx_PeriphCLKConfig>
 8000584:	4603      	mov	r3, r0
 8000586:	2b00      	cmp	r3, #0
 8000588:	d001      	beq.n	800058e <SystemClock_Config+0xb0>
  {
    Error_Handler();
 800058a:	f000 f88b 	bl	80006a4 <Error_Handler>
  }
  /** Configure the main internal regulator output voltage
  */
  if (HAL_PWREx_ControlVoltageScaling(PWR_REGULATOR_VOLTAGE_SCALE1) != HAL_OK)
 800058e:	f44f 7000 	mov.w	r0, #512	; 0x200
 8000592:	f000 fcad 	bl	8000ef0 <HAL_PWREx_ControlVoltageScaling>
 8000596:	4603      	mov	r3, r0
 8000598:	2b00      	cmp	r3, #0
 800059a:	d001      	beq.n	80005a0 <SystemClock_Config+0xc2>
  {
    Error_Handler();
 800059c:	f000 f882 	bl	80006a4 <Error_Handler>
  }
}
 80005a0:	bf00      	nop
 80005a2:	37e0      	adds	r7, #224	; 0xe0
 80005a4:	46bd      	mov	sp, r7
 80005a6:	bd80      	pop	{r7, pc}

080005a8 <MX_USART1_UART_Init>:
  * @brief USART1 Initialization Function
  * @param None
  * @retval None
  */
static void MX_USART1_UART_Init(void)
{
 80005a8:	b580      	push	{r7, lr}
 80005aa:	af00      	add	r7, sp, #0
  /* USER CODE END USART1_Init 0 */

  /* USER CODE BEGIN USART1_Init 1 */

  /* USER CODE END USART1_Init 1 */
  huart1.Instance = USART1;
 80005ac:	4b14      	ldr	r3, [pc, #80]	; (8000600 <MX_USART1_UART_Init+0x58>)
 80005ae:	4a15      	ldr	r2, [pc, #84]	; (8000604 <MX_USART1_UART_Init+0x5c>)
 80005b0:	601a      	str	r2, [r3, #0]
  huart1.Init.BaudRate = 115200;
 80005b2:	4b13      	ldr	r3, [pc, #76]	; (8000600 <MX_USART1_UART_Init+0x58>)
 80005b4:	f44f 32e1 	mov.w	r2, #115200	; 0x1c200
 80005b8:	605a      	str	r2, [r3, #4]
  huart1.Init.WordLength = UART_WORDLENGTH_8B;
 80005ba:	4b11      	ldr	r3, [pc, #68]	; (8000600 <MX_USART1_UART_Init+0x58>)
 80005bc:	2200      	movs	r2, #0
 80005be:	609a      	str	r2, [r3, #8]
  huart1.Init.StopBits = UART_STOPBITS_1;
 80005c0:	4b0f      	ldr	r3, [pc, #60]	; (8000600 <MX_USART1_UART_Init+0x58>)
 80005c2:	2200      	movs	r2, #0
 80005c4:	60da      	str	r2, [r3, #12]
  huart1.Init.Parity = UART_PARITY_NONE;
 80005c6:	4b0e      	ldr	r3, [pc, #56]	; (8000600 <MX_USART1_UART_Init+0x58>)
 80005c8:	2200      	movs	r2, #0
 80005ca:	611a      	str	r2, [r3, #16]
  huart1.Init.Mode = UART_MODE_TX_RX;
 80005cc:	4b0c      	ldr	r3, [pc, #48]	; (8000600 <MX_USART1_UART_Init+0x58>)
 80005ce:	220c      	movs	r2, #12
 80005d0:	615a      	str	r2, [r3, #20]
  huart1.Init.HwFlowCtl = UART_HWCONTROL_NONE;
 80005d2:	4b0b      	ldr	r3, [pc, #44]	; (8000600 <MX_USART1_UART_Init+0x58>)
 80005d4:	2200      	movs	r2, #0
 80005d6:	619a      	str	r2, [r3, #24]
  huart1.Init.OverSampling = UART_OVERSAMPLING_16;
 80005d8:	4b09      	ldr	r3, [pc, #36]	; (8000600 <MX_USART1_UART_Init+0x58>)
 80005da:	2200      	movs	r2, #0
 80005dc:	61da      	str	r2, [r3, #28]
  huart1.Init.OneBitSampling = UART_ONE_BIT_SAMPLE_DISABLE;
 80005de:	4b08      	ldr	r3, [pc, #32]	; (8000600 <MX_USART1_UART_Init+0x58>)
 80005e0:	2200      	movs	r2, #0
 80005e2:	621a      	str	r2, [r3, #32]
  huart1.AdvancedInit.AdvFeatureInit = UART_ADVFEATURE_NO_INIT;
 80005e4:	4b06      	ldr	r3, [pc, #24]	; (8000600 <MX_USART1_UART_Init+0x58>)
 80005e6:	2200      	movs	r2, #0
 80005e8:	625a      	str	r2, [r3, #36]	; 0x24
  if (HAL_UART_Init(&huart1) != HAL_OK)
 80005ea:	4805      	ldr	r0, [pc, #20]	; (8000600 <MX_USART1_UART_Init+0x58>)
 80005ec:	f001 ff70 	bl	80024d0 <HAL_UART_Init>
 80005f0:	4603      	mov	r3, r0
 80005f2:	2b00      	cmp	r3, #0
 80005f4:	d001      	beq.n	80005fa <MX_USART1_UART_Init+0x52>
  {
    Error_Handler();
 80005f6:	f000 f855 	bl	80006a4 <Error_Handler>
  }
  /* USER CODE BEGIN USART1_Init 2 */

  /* USER CODE END USART1_Init 2 */

}
 80005fa:	bf00      	nop
 80005fc:	bd80      	pop	{r7, pc}
 80005fe:	bf00      	nop
 8000600:	20000028 	.word	0x20000028
 8000604:	40013800 	.word	0x40013800

08000608 <MX_GPIO_Init>:
  * @brief GPIO Initialization Function
  * @param None
  * @retval None
  */
static void MX_GPIO_Init(void)
{
 8000608:	b580      	push	{r7, lr}
 800060a:	b088      	sub	sp, #32
 800060c:	af00      	add	r7, sp, #0
  GPIO_InitTypeDef GPIO_InitStruct = {0};
 800060e:	f107 030c 	add.w	r3, r7, #12
 8000612:	2200      	movs	r2, #0
 8000614:	601a      	str	r2, [r3, #0]
 8000616:	605a      	str	r2, [r3, #4]
 8000618:	609a      	str	r2, [r3, #8]
 800061a:	60da      	str	r2, [r3, #12]
 800061c:	611a      	str	r2, [r3, #16]

  /* GPIO Ports Clock Enable */
  __HAL_RCC_GPIOA_CLK_ENABLE();
 800061e:	4b1e      	ldr	r3, [pc, #120]	; (8000698 <MX_GPIO_Init+0x90>)
 8000620:	6cdb      	ldr	r3, [r3, #76]	; 0x4c
 8000622:	4a1d      	ldr	r2, [pc, #116]	; (8000698 <MX_GPIO_Init+0x90>)
 8000624:	f043 0301 	orr.w	r3, r3, #1
 8000628:	64d3      	str	r3, [r2, #76]	; 0x4c
 800062a:	4b1b      	ldr	r3, [pc, #108]	; (8000698 <MX_GPIO_Init+0x90>)
 800062c:	6cdb      	ldr	r3, [r3, #76]	; 0x4c
 800062e:	f003 0301 	and.w	r3, r3, #1
 8000632:	60bb      	str	r3, [r7, #8]
 8000634:	68bb      	ldr	r3, [r7, #8]
  __HAL_RCC_GPIOC_CLK_ENABLE();
 8000636:	4b18      	ldr	r3, [pc, #96]	; (8000698 <MX_GPIO_Init+0x90>)
 8000638:	6cdb      	ldr	r3, [r3, #76]	; 0x4c
 800063a:	4a17      	ldr	r2, [pc, #92]	; (8000698 <MX_GPIO_Init+0x90>)
 800063c:	f043 0304 	orr.w	r3, r3, #4
 8000640:	64d3      	str	r3, [r2, #76]	; 0x4c
 8000642:	4b15      	ldr	r3, [pc, #84]	; (8000698 <MX_GPIO_Init+0x90>)
 8000644:	6cdb      	ldr	r3, [r3, #76]	; 0x4c
 8000646:	f003 0304 	and.w	r3, r3, #4
 800064a:	607b      	str	r3, [r7, #4]
 800064c:	687b      	ldr	r3, [r7, #4]

  /*Configure GPIO pin Output Level */
  HAL_GPIO_WritePin(GPIOC, GPIO_PIN_4|GPIO_PIN_5, GPIO_PIN_RESET);
 800064e:	2200      	movs	r2, #0
 8000650:	2130      	movs	r1, #48	; 0x30
 8000652:	4812      	ldr	r0, [pc, #72]	; (800069c <MX_GPIO_Init+0x94>)
 8000654:	f000 fc26 	bl	8000ea4 <HAL_GPIO_WritePin>

  /*Configure GPIO pin : PA0 */
  GPIO_InitStruct.Pin = GPIO_PIN_0;
 8000658:	2301      	movs	r3, #1
 800065a:	60fb      	str	r3, [r7, #12]
  GPIO_InitStruct.Mode = GPIO_MODE_IT_RISING;
 800065c:	4b10      	ldr	r3, [pc, #64]	; (80006a0 <MX_GPIO_Init+0x98>)
 800065e:	613b      	str	r3, [r7, #16]
  GPIO_InitStruct.Pull = GPIO_NOPULL;
 8000660:	2300      	movs	r3, #0
 8000662:	617b      	str	r3, [r7, #20]
  HAL_GPIO_Init(GPIOA, &GPIO_InitStruct);
 8000664:	f107 030c 	add.w	r3, r7, #12
 8000668:	4619      	mov	r1, r3
 800066a:	f04f 4090 	mov.w	r0, #1207959552	; 0x48000000
 800066e:	f000 fa71 	bl	8000b54 <HAL_GPIO_Init>

  /*Configure GPIO pins : PC4 PC5 */
  GPIO_InitStruct.Pin = GPIO_PIN_4|GPIO_PIN_5;
 8000672:	2330      	movs	r3, #48	; 0x30
 8000674:	60fb      	str	r3, [r7, #12]
  GPIO_InitStruct.Mode = GPIO_MODE_OUTPUT_PP;
 8000676:	2301      	movs	r3, #1
 8000678:	613b      	str	r3, [r7, #16]
  GPIO_InitStruct.Pull = GPIO_NOPULL;
 800067a:	2300      	movs	r3, #0
 800067c:	617b      	str	r3, [r7, #20]
  GPIO_InitStruct.Speed = GPIO_SPEED_FREQ_LOW;
 800067e:	2300      	movs	r3, #0
 8000680:	61bb      	str	r3, [r7, #24]
  HAL_GPIO_Init(GPIOC, &GPIO_InitStruct);
 8000682:	f107 030c 	add.w	r3, r7, #12
 8000686:	4619      	mov	r1, r3
 8000688:	4804      	ldr	r0, [pc, #16]	; (800069c <MX_GPIO_Init+0x94>)
 800068a:	f000 fa63 	bl	8000b54 <HAL_GPIO_Init>

}
 800068e:	bf00      	nop
 8000690:	3720      	adds	r7, #32
 8000692:	46bd      	mov	sp, r7
 8000694:	bd80      	pop	{r7, pc}
 8000696:	bf00      	nop
 8000698:	40021000 	.word	0x40021000
 800069c:	48000800 	.word	0x48000800
 80006a0:	10110000 	.word	0x10110000

080006a4 <Error_Handler>:
/**
  * @brief  This function is executed in case of error occurrence.
  * @retval None
  */
void Error_Handler(void)
{
 80006a4:	b480      	push	{r7}
 80006a6:	af00      	add	r7, sp, #0
  /* USER CODE BEGIN Error_Handler_Debug */
  /* User can add his own implementation to report the HAL error return state */

  /* USER CODE END Error_Handler_Debug */
}
 80006a8:	bf00      	nop
 80006aa:	46bd      	mov	sp, r7
 80006ac:	f85d 7b04 	ldr.w	r7, [sp], #4
 80006b0:	4770      	bx	lr
	...

080006b4 <HAL_MspInit>:
/* USER CODE END 0 */
/**
  * Initializes the Global MSP.
  */
void HAL_MspInit(void)
{
 80006b4:	b480      	push	{r7}
 80006b6:	b083      	sub	sp, #12
 80006b8:	af00      	add	r7, sp, #0
  /* USER CODE BEGIN MspInit 0 */

  /* USER CODE END MspInit 0 */

  __HAL_RCC_SYSCFG_CLK_ENABLE();
 80006ba:	4b0f      	ldr	r3, [pc, #60]	; (80006f8 <HAL_MspInit+0x44>)
 80006bc:	6e1b      	ldr	r3, [r3, #96]	; 0x60
 80006be:	4a0e      	ldr	r2, [pc, #56]	; (80006f8 <HAL_MspInit+0x44>)
 80006c0:	f043 0301 	orr.w	r3, r3, #1
 80006c4:	6613      	str	r3, [r2, #96]	; 0x60
 80006c6:	4b0c      	ldr	r3, [pc, #48]	; (80006f8 <HAL_MspInit+0x44>)
 80006c8:	6e1b      	ldr	r3, [r3, #96]	; 0x60
 80006ca:	f003 0301 	and.w	r3, r3, #1
 80006ce:	607b      	str	r3, [r7, #4]
 80006d0:	687b      	ldr	r3, [r7, #4]
  __HAL_RCC_PWR_CLK_ENABLE();
 80006d2:	4b09      	ldr	r3, [pc, #36]	; (80006f8 <HAL_MspInit+0x44>)
 80006d4:	6d9b      	ldr	r3, [r3, #88]	; 0x58
 80006d6:	4a08      	ldr	r2, [pc, #32]	; (80006f8 <HAL_MspInit+0x44>)
 80006d8:	f043 5380 	orr.w	r3, r3, #268435456	; 0x10000000
 80006dc:	6593      	str	r3, [r2, #88]	; 0x58
 80006de:	4b06      	ldr	r3, [pc, #24]	; (80006f8 <HAL_MspInit+0x44>)
 80006e0:	6d9b      	ldr	r3, [r3, #88]	; 0x58
 80006e2:	f003 5380 	and.w	r3, r3, #268435456	; 0x10000000
 80006e6:	603b      	str	r3, [r7, #0]
 80006e8:	683b      	ldr	r3, [r7, #0]
  /* System interrupt init*/

  /* USER CODE BEGIN MspInit 1 */

  /* USER CODE END MspInit 1 */
}
 80006ea:	bf00      	nop
 80006ec:	370c      	adds	r7, #12
 80006ee:	46bd      	mov	sp, r7
 80006f0:	f85d 7b04 	ldr.w	r7, [sp], #4
 80006f4:	4770      	bx	lr
 80006f6:	bf00      	nop
 80006f8:	40021000 	.word	0x40021000

080006fc <HAL_UART_MspInit>:
* This function configures the hardware resources used in this example
* @param huart: UART handle pointer
* @retval None
*/
void HAL_UART_MspInit(UART_HandleTypeDef* huart)
{
 80006fc:	b580      	push	{r7, lr}
 80006fe:	b08a      	sub	sp, #40	; 0x28
 8000700:	af00      	add	r7, sp, #0
 8000702:	6078      	str	r0, [r7, #4]
  GPIO_InitTypeDef GPIO_InitStruct = {0};
 8000704:	f107 0314 	add.w	r3, r7, #20
 8000708:	2200      	movs	r2, #0
 800070a:	601a      	str	r2, [r3, #0]
 800070c:	605a      	str	r2, [r3, #4]
 800070e:	609a      	str	r2, [r3, #8]
 8000710:	60da      	str	r2, [r3, #12]
 8000712:	611a      	str	r2, [r3, #16]
  if(huart->Instance==USART1)
 8000714:	687b      	ldr	r3, [r7, #4]
 8000716:	681b      	ldr	r3, [r3, #0]
 8000718:	4a18      	ldr	r2, [pc, #96]	; (800077c <HAL_UART_MspInit+0x80>)
 800071a:	4293      	cmp	r3, r2
 800071c:	d129      	bne.n	8000772 <HAL_UART_MspInit+0x76>
  {
  /* USER CODE BEGIN USART1_MspInit 0 */

  /* USER CODE END USART1_MspInit 0 */
    /* Peripheral clock enable */
    __HAL_RCC_USART1_CLK_ENABLE();
 800071e:	4b18      	ldr	r3, [pc, #96]	; (8000780 <HAL_UART_MspInit+0x84>)
 8000720:	6e1b      	ldr	r3, [r3, #96]	; 0x60
 8000722:	4a17      	ldr	r2, [pc, #92]	; (8000780 <HAL_UART_MspInit+0x84>)
 8000724:	f443 4380 	orr.w	r3, r3, #16384	; 0x4000
 8000728:	6613      	str	r3, [r2, #96]	; 0x60
 800072a:	4b15      	ldr	r3, [pc, #84]	; (8000780 <HAL_UART_MspInit+0x84>)
 800072c:	6e1b      	ldr	r3, [r3, #96]	; 0x60
 800072e:	f403 4380 	and.w	r3, r3, #16384	; 0x4000
 8000732:	613b      	str	r3, [r7, #16]
 8000734:	693b      	ldr	r3, [r7, #16]

    __HAL_RCC_GPIOA_CLK_ENABLE();
 8000736:	4b12      	ldr	r3, [pc, #72]	; (8000780 <HAL_UART_MspInit+0x84>)
 8000738:	6cdb      	ldr	r3, [r3, #76]	; 0x4c
 800073a:	4a11      	ldr	r2, [pc, #68]	; (8000780 <HAL_UART_MspInit+0x84>)
 800073c:	f043 0301 	orr.w	r3, r3, #1
 8000740:	64d3      	str	r3, [r2, #76]	; 0x4c
 8000742:	4b0f      	ldr	r3, [pc, #60]	; (8000780 <HAL_UART_MspInit+0x84>)
 8000744:	6cdb      	ldr	r3, [r3, #76]	; 0x4c
 8000746:	f003 0301 	and.w	r3, r3, #1
 800074a:	60fb      	str	r3, [r7, #12]
 800074c:	68fb      	ldr	r3, [r7, #12]
    /**USART1 GPIO Configuration
    PA9     ------> USART1_TX
    PA10     ------> USART1_RX
    */
    GPIO_InitStruct.Pin = GPIO_PIN_9|GPIO_PIN_10;
 800074e:	f44f 63c0 	mov.w	r3, #1536	; 0x600
 8000752:	617b      	str	r3, [r7, #20]
    GPIO_InitStruct.Mode = GPIO_MODE_AF_PP;
 8000754:	2302      	movs	r3, #2
 8000756:	61bb      	str	r3, [r7, #24]
    GPIO_InitStruct.Pull = GPIO_NOPULL;
 8000758:	2300      	movs	r3, #0
 800075a:	61fb      	str	r3, [r7, #28]
    GPIO_InitStruct.Speed = GPIO_SPEED_FREQ_VERY_HIGH;
 800075c:	2303      	movs	r3, #3
 800075e:	623b      	str	r3, [r7, #32]
    GPIO_InitStruct.Alternate = GPIO_AF7_USART1;
 8000760:	2307      	movs	r3, #7
 8000762:	627b      	str	r3, [r7, #36]	; 0x24
    HAL_GPIO_Init(GPIOA, &GPIO_InitStruct);
 8000764:	f107 0314 	add.w	r3, r7, #20
 8000768:	4619      	mov	r1, r3
 800076a:	f04f 4090 	mov.w	r0, #1207959552	; 0x48000000
 800076e:	f000 f9f1 	bl	8000b54 <HAL_GPIO_Init>
  /* USER CODE BEGIN USART1_MspInit 1 */

  /* USER CODE END USART1_MspInit 1 */
  }

}
 8000772:	bf00      	nop
 8000774:	3728      	adds	r7, #40	; 0x28
 8000776:	46bd      	mov	sp, r7
 8000778:	bd80      	pop	{r7, pc}
 800077a:	bf00      	nop
 800077c:	40013800 	.word	0x40013800
 8000780:	40021000 	.word	0x40021000

08000784 <NMI_Handler>:
/******************************************************************************/
/**
  * @brief This function handles Non maskable interrupt.
  */
void NMI_Handler(void)
{
 8000784:	b480      	push	{r7}
 8000786:	af00      	add	r7, sp, #0

  /* USER CODE END NonMaskableInt_IRQn 0 */
  /* USER CODE BEGIN NonMaskableInt_IRQn 1 */

  /* USER CODE END NonMaskableInt_IRQn 1 */
}
 8000788:	bf00      	nop
 800078a:	46bd      	mov	sp, r7
 800078c:	f85d 7b04 	ldr.w	r7, [sp], #4
 8000790:	4770      	bx	lr

08000792 <HardFault_Handler>:

/**
  * @brief This function handles Hard fault interrupt.
  */
void HardFault_Handler(void)
{
 8000792:	b480      	push	{r7}
 8000794:	af00      	add	r7, sp, #0
  /* USER CODE BEGIN HardFault_IRQn 0 */

  /* USER CODE END HardFault_IRQn 0 */
  while (1)
 8000796:	e7fe      	b.n	8000796 <HardFault_Handler+0x4>

08000798 <MemManage_Handler>:

/**
  * @brief This function handles Memory management fault.
  */
void MemManage_Handler(void)
{
 8000798:	b480      	push	{r7}
 800079a:	af00      	add	r7, sp, #0
  /* USER CODE BEGIN MemoryManagement_IRQn 0 */

  /* USER CODE END MemoryManagement_IRQn 0 */
  while (1)
 800079c:	e7fe      	b.n	800079c <MemManage_Handler+0x4>

0800079e <BusFault_Handler>:

/**
  * @brief This function handles Prefetch fault, memory access fault.
  */
void BusFault_Handler(void)
{
 800079e:	b480      	push	{r7}
 80007a0:	af00      	add	r7, sp, #0
  /* USER CODE BEGIN BusFault_IRQn 0 */

  /* USER CODE END BusFault_IRQn 0 */
  while (1)
 80007a2:	e7fe      	b.n	80007a2 <BusFault_Handler+0x4>

080007a4 <UsageFault_Handler>:

/**
  * @brief This function handles Undefined instruction or illegal state.
  */
void UsageFault_Handler(void)
{
 80007a4:	b480      	push	{r7}
 80007a6:	af00      	add	r7, sp, #0
  /* USER CODE BEGIN UsageFault_IRQn 0 */

  /* USER CODE END UsageFault_IRQn 0 */
  while (1)
 80007a8:	e7fe      	b.n	80007a8 <UsageFault_Handler+0x4>

080007aa <SVC_Handler>:

/**
  * @brief This function handles System service call via SWI instruction.
  */
void SVC_Handler(void)
{
 80007aa:	b480      	push	{r7}
 80007ac:	af00      	add	r7, sp, #0

  /* USER CODE END SVCall_IRQn 0 */
  /* USER CODE BEGIN SVCall_IRQn 1 */

  /* USER CODE END SVCall_IRQn 1 */
}
 80007ae:	bf00      	nop
 80007b0:	46bd      	mov	sp, r7
 80007b2:	f85d 7b04 	ldr.w	r7, [sp], #4
 80007b6:	4770      	bx	lr

080007b8 <DebugMon_Handler>:

/**
  * @brief This function handles Debug monitor.
  */
void DebugMon_Handler(void)
{
 80007b8:	b480      	push	{r7}
 80007ba:	af00      	add	r7, sp, #0

  /* USER CODE END DebugMonitor_IRQn 0 */
  /* USER CODE BEGIN DebugMonitor_IRQn 1 */

  /* USER CODE END DebugMonitor_IRQn 1 */
}
 80007bc:	bf00      	nop
 80007be:	46bd      	mov	sp, r7
 80007c0:	f85d 7b04 	ldr.w	r7, [sp], #4
 80007c4:	4770      	bx	lr

080007c6 <PendSV_Handler>:

/**
  * @brief This function handles Pendable request for system service.
  */
void PendSV_Handler(void)
{
 80007c6:	b480      	push	{r7}
 80007c8:	af00      	add	r7, sp, #0

  /* USER CODE END PendSV_IRQn 0 */
  /* USER CODE BEGIN PendSV_IRQn 1 */

  /* USER CODE END PendSV_IRQn 1 */
}
 80007ca:	bf00      	nop
 80007cc:	46bd      	mov	sp, r7
 80007ce:	f85d 7b04 	ldr.w	r7, [sp], #4
 80007d2:	4770      	bx	lr

080007d4 <SysTick_Handler>:

/**
  * @brief This function handles System tick timer.
  */
void SysTick_Handler(void)
{
 80007d4:	b580      	push	{r7, lr}
 80007d6:	af00      	add	r7, sp, #0
  /* USER CODE BEGIN SysTick_IRQn 0 */

  /* USER CODE END SysTick_IRQn 0 */
  HAL_IncTick();
 80007d8:	f000 f8b6 	bl	8000948 <HAL_IncTick>
  /* USER CODE BEGIN SysTick_IRQn 1 */

  /* USER CODE END SysTick_IRQn 1 */
}
 80007dc:	bf00      	nop
 80007de:	bd80      	pop	{r7, pc}

080007e0 <SystemInit>:
  * @param  None
  * @retval None
  */

void SystemInit(void)
{
 80007e0:	b480      	push	{r7}
 80007e2:	af00      	add	r7, sp, #0
  /* FPU settings ------------------------------------------------------------*/
  #if (__FPU_PRESENT == 1) && (__FPU_USED == 1)
    SCB->CPACR |= ((3UL << 10*2)|(3UL << 11*2));  /* set CP10 and CP11 Full Access */
 80007e4:	4b17      	ldr	r3, [pc, #92]	; (8000844 <SystemInit+0x64>)
 80007e6:	f8d3 3088 	ldr.w	r3, [r3, #136]	; 0x88
 80007ea:	4a16      	ldr	r2, [pc, #88]	; (8000844 <SystemInit+0x64>)
 80007ec:	f443 0370 	orr.w	r3, r3, #15728640	; 0xf00000
 80007f0:	f8c2 3088 	str.w	r3, [r2, #136]	; 0x88
  #endif

  /* Reset the RCC clock configuration to the default reset state ------------*/
  /* Set MSION bit */
  RCC->CR |= RCC_CR_MSION;
 80007f4:	4b14      	ldr	r3, [pc, #80]	; (8000848 <SystemInit+0x68>)
 80007f6:	681b      	ldr	r3, [r3, #0]
 80007f8:	4a13      	ldr	r2, [pc, #76]	; (8000848 <SystemInit+0x68>)
 80007fa:	f043 0301 	orr.w	r3, r3, #1
 80007fe:	6013      	str	r3, [r2, #0]

  /* Reset CFGR register */
  RCC->CFGR = 0x00000000U;
 8000800:	4b11      	ldr	r3, [pc, #68]	; (8000848 <SystemInit+0x68>)
 8000802:	2200      	movs	r2, #0
 8000804:	609a      	str	r2, [r3, #8]

  /* Reset HSEON, CSSON , HSION, and PLLON bits */
  RCC->CR &= 0xEAF6FFFFU;
 8000806:	4b10      	ldr	r3, [pc, #64]	; (8000848 <SystemInit+0x68>)
 8000808:	681b      	ldr	r3, [r3, #0]
 800080a:	4a0f      	ldr	r2, [pc, #60]	; (8000848 <SystemInit+0x68>)
 800080c:	f023 53a8 	bic.w	r3, r3, #352321536	; 0x15000000
 8000810:	f423 2310 	bic.w	r3, r3, #589824	; 0x90000
 8000814:	6013      	str	r3, [r2, #0]

  /* Reset PLLCFGR register */
  RCC->PLLCFGR = 0x00001000U;
 8000816:	4b0c      	ldr	r3, [pc, #48]	; (8000848 <SystemInit+0x68>)
 8000818:	f44f 5280 	mov.w	r2, #4096	; 0x1000
 800081c:	60da      	str	r2, [r3, #12]

  /* Reset HSEBYP bit */
  RCC->CR &= 0xFFFBFFFFU;
 800081e:	4b0a      	ldr	r3, [pc, #40]	; (8000848 <SystemInit+0x68>)
 8000820:	681b      	ldr	r3, [r3, #0]
 8000822:	4a09      	ldr	r2, [pc, #36]	; (8000848 <SystemInit+0x68>)
 8000824:	f423 2380 	bic.w	r3, r3, #262144	; 0x40000
 8000828:	6013      	str	r3, [r2, #0]

  /* Disable all interrupts */
  RCC->CIER = 0x00000000U;
 800082a:	4b07      	ldr	r3, [pc, #28]	; (8000848 <SystemInit+0x68>)
 800082c:	2200      	movs	r2, #0
 800082e:	619a      	str	r2, [r3, #24]

  /* Configure the Vector Table location add offset address ------------------*/
#ifdef VECT_TAB_SRAM
  SCB->VTOR = SRAM_BASE | VECT_TAB_OFFSET; /* Vector Table Relocation in Internal SRAM */
#else
  SCB->VTOR = FLASH_BASE | VECT_TAB_OFFSET; /* Vector Table Relocation in Internal FLASH */
 8000830:	4b04      	ldr	r3, [pc, #16]	; (8000844 <SystemInit+0x64>)
 8000832:	f04f 6200 	mov.w	r2, #134217728	; 0x8000000
 8000836:	609a      	str	r2, [r3, #8]
#endif
}
 8000838:	bf00      	nop
 800083a:	46bd      	mov	sp, r7
 800083c:	f85d 7b04 	ldr.w	r7, [sp], #4
 8000840:	4770      	bx	lr
 8000842:	bf00      	nop
 8000844:	e000ed00 	.word	0xe000ed00
 8000848:	40021000 	.word	0x40021000

0800084c <Reset_Handler>:

    .section	.text.Reset_Handler
	.weak	Reset_Handler
	.type	Reset_Handler, %function
Reset_Handler:
  ldr   sp, =_estack    /* Set stack pointer */
 800084c:	f8df d034 	ldr.w	sp, [pc, #52]	; 8000884 <LoopForever+0x2>

/* Call the clock system initialization function.*/
    bl  SystemInit
 8000850:	f7ff ffc6 	bl	80007e0 <SystemInit>

/* Copy the data segment initializers from flash to SRAM */
  movs	r1, #0
 8000854:	2100      	movs	r1, #0
  b	LoopCopyDataInit
 8000856:	e003      	b.n	8000860 <LoopCopyDataInit>

08000858 <CopyDataInit>:

CopyDataInit:
	ldr	r3, =_sidata
 8000858:	4b0b      	ldr	r3, [pc, #44]	; (8000888 <LoopForever+0x6>)
	ldr	r3, [r3, r1]
 800085a:	585b      	ldr	r3, [r3, r1]
	str	r3, [r0, r1]
 800085c:	5043      	str	r3, [r0, r1]
	adds	r1, r1, #4
 800085e:	3104      	adds	r1, #4

08000860 <LoopCopyDataInit>:

LoopCopyDataInit:
	ldr	r0, =_sdata
 8000860:	480a      	ldr	r0, [pc, #40]	; (800088c <LoopForever+0xa>)
	ldr	r3, =_edata
 8000862:	4b0b      	ldr	r3, [pc, #44]	; (8000890 <LoopForever+0xe>)
	adds	r2, r0, r1
 8000864:	1842      	adds	r2, r0, r1
	cmp	r2, r3
 8000866:	429a      	cmp	r2, r3
	bcc	CopyDataInit
 8000868:	d3f6      	bcc.n	8000858 <CopyDataInit>
	ldr	r2, =_sbss
 800086a:	4a0a      	ldr	r2, [pc, #40]	; (8000894 <LoopForever+0x12>)
	b	LoopFillZerobss
 800086c:	e002      	b.n	8000874 <LoopFillZerobss>

0800086e <FillZerobss>:
/* Zero fill the bss segment. */
FillZerobss:
	movs	r3, #0
 800086e:	2300      	movs	r3, #0
	str	r3, [r2], #4
 8000870:	f842 3b04 	str.w	r3, [r2], #4

08000874 <LoopFillZerobss>:

LoopFillZerobss:
	ldr	r3, = _ebss
 8000874:	4b08      	ldr	r3, [pc, #32]	; (8000898 <LoopForever+0x16>)
	cmp	r2, r3
 8000876:	429a      	cmp	r2, r3
	bcc	FillZerobss
 8000878:	d3f9      	bcc.n	800086e <FillZerobss>

/* Call static constructors */
    bl __libc_init_array
 800087a:	f002 fa63 	bl	8002d44 <__libc_init_array>
/* Call the application's entry point.*/
	bl	main
 800087e:	f7ff fe23 	bl	80004c8 <main>

08000882 <LoopForever>:

LoopForever:
    b LoopForever
 8000882:	e7fe      	b.n	8000882 <LoopForever>
  ldr   sp, =_estack    /* Set stack pointer */
 8000884:	20018000 	.word	0x20018000
	ldr	r3, =_sidata
 8000888:	08002e0c 	.word	0x08002e0c
	ldr	r0, =_sdata
 800088c:	20000000 	.word	0x20000000
	ldr	r3, =_edata
 8000890:	2000000c 	.word	0x2000000c
	ldr	r2, =_sbss
 8000894:	2000000c 	.word	0x2000000c
	ldr	r3, = _ebss
 8000898:	200000ac 	.word	0x200000ac

0800089c <ADC1_2_IRQHandler>:
 * @retval : None
*/
    .section	.text.Default_Handler,"ax",%progbits
Default_Handler:
Infinite_Loop:
	b	Infinite_Loop
 800089c:	e7fe      	b.n	800089c <ADC1_2_IRQHandler>

0800089e <HAL_Init>:
  *         each 1ms in the SysTick_Handler() interrupt handler.
  *
  * @retval HAL status
  */
HAL_StatusTypeDef HAL_Init(void)
{
 800089e:	b580      	push	{r7, lr}
 80008a0:	b082      	sub	sp, #8
 80008a2:	af00      	add	r7, sp, #0
  HAL_StatusTypeDef  status = HAL_OK;
 80008a4:	2300      	movs	r3, #0
 80008a6:	71fb      	strb	r3, [r7, #7]
#if (PREFETCH_ENABLE != 0)
  __HAL_FLASH_PREFETCH_BUFFER_ENABLE();
#endif /* PREFETCH_ENABLE */

  /* Set Interrupt Group Priority */
  HAL_NVIC_SetPriorityGrouping(NVIC_PRIORITYGROUP_4);
 80008a8:	2003      	movs	r0, #3
 80008aa:	f000 f91f 	bl	8000aec <HAL_NVIC_SetPriorityGrouping>

  /* Use SysTick as time base source and configure 1ms tick (default clock after Reset is MSI) */
  if (HAL_InitTick(TICK_INT_PRIORITY) != HAL_OK)
 80008ae:	2000      	movs	r0, #0
 80008b0:	f000 f80e 	bl	80008d0 <HAL_InitTick>
 80008b4:	4603      	mov	r3, r0
 80008b6:	2b00      	cmp	r3, #0
 80008b8:	d002      	beq.n	80008c0 <HAL_Init+0x22>
  {
    status = HAL_ERROR;
 80008ba:	2301      	movs	r3, #1
 80008bc:	71fb      	strb	r3, [r7, #7]
 80008be:	e001      	b.n	80008c4 <HAL_Init+0x26>
  }
  else
  {
    /* Init the low level hardware */
    HAL_MspInit();
 80008c0:	f7ff fef8 	bl	80006b4 <HAL_MspInit>
  }

  /* Return function status */
  return status;
 80008c4:	79fb      	ldrb	r3, [r7, #7]
}
 80008c6:	4618      	mov	r0, r3
 80008c8:	3708      	adds	r7, #8
 80008ca:	46bd      	mov	sp, r7
 80008cc:	bd80      	pop	{r7, pc}
	...

080008d0 <HAL_InitTick>:
  *       implementation  in user file.
  * @param TickPriority  Tick interrupt priority.
  * @retval HAL status
  */
__weak HAL_StatusTypeDef HAL_InitTick(uint32_t TickPriority)
{
 80008d0:	b580      	push	{r7, lr}
 80008d2:	b084      	sub	sp, #16
 80008d4:	af00      	add	r7, sp, #0
 80008d6:	6078      	str	r0, [r7, #4]
  HAL_StatusTypeDef  status = HAL_OK;
 80008d8:	2300      	movs	r3, #0
 80008da:	73fb      	strb	r3, [r7, #15]

  /* Check uwTickFreq for MisraC 2012 (even if uwTickFreq is a enum type that doesn't take the value zero)*/
  if ((uint32_t)uwTickFreq != 0U)
 80008dc:	4b17      	ldr	r3, [pc, #92]	; (800093c <HAL_InitTick+0x6c>)
 80008de:	781b      	ldrb	r3, [r3, #0]
 80008e0:	2b00      	cmp	r3, #0
 80008e2:	d023      	beq.n	800092c <HAL_InitTick+0x5c>
  {
    /*Configure the SysTick to have interrupt in 1ms time basis*/
    if (HAL_SYSTICK_Config(SystemCoreClock / (1000U / (uint32_t)uwTickFreq)) == 0U)
 80008e4:	4b16      	ldr	r3, [pc, #88]	; (8000940 <HAL_InitTick+0x70>)
 80008e6:	681a      	ldr	r2, [r3, #0]
 80008e8:	4b14      	ldr	r3, [pc, #80]	; (800093c <HAL_InitTick+0x6c>)
 80008ea:	781b      	ldrb	r3, [r3, #0]
 80008ec:	4619      	mov	r1, r3
 80008ee:	f44f 737a 	mov.w	r3, #1000	; 0x3e8
 80008f2:	fbb3 f3f1 	udiv	r3, r3, r1
 80008f6:	fbb2 f3f3 	udiv	r3, r2, r3
 80008fa:	4618      	mov	r0, r3
 80008fc:	f000 f91d 	bl	8000b3a <HAL_SYSTICK_Config>
 8000900:	4603      	mov	r3, r0
 8000902:	2b00      	cmp	r3, #0
 8000904:	d10f      	bne.n	8000926 <HAL_InitTick+0x56>
    {
      /* Configure the SysTick IRQ priority */
      if (TickPriority < (1UL << __NVIC_PRIO_BITS))
 8000906:	687b      	ldr	r3, [r7, #4]
 8000908:	2b0f      	cmp	r3, #15
 800090a:	d809      	bhi.n	8000920 <HAL_InitTick+0x50>
      {
        HAL_NVIC_SetPriority(SysTick_IRQn, TickPriority, 0U);
 800090c:	2200      	movs	r2, #0
 800090e:	6879      	ldr	r1, [r7, #4]
 8000910:	f04f 30ff 	mov.w	r0, #4294967295	; 0xffffffff
 8000914:	f000 f8f5 	bl	8000b02 <HAL_NVIC_SetPriority>
        uwTickPrio = TickPriority;
 8000918:	4a0a      	ldr	r2, [pc, #40]	; (8000944 <HAL_InitTick+0x74>)
 800091a:	687b      	ldr	r3, [r7, #4]
 800091c:	6013      	str	r3, [r2, #0]
 800091e:	e007      	b.n	8000930 <HAL_InitTick+0x60>
      }
      else
      {
        status = HAL_ERROR;
 8000920:	2301      	movs	r3, #1
 8000922:	73fb      	strb	r3, [r7, #15]
 8000924:	e004      	b.n	8000930 <HAL_InitTick+0x60>
      }
    }
    else
    {
      status = HAL_ERROR;
 8000926:	2301      	movs	r3, #1
 8000928:	73fb      	strb	r3, [r7, #15]
 800092a:	e001      	b.n	8000930 <HAL_InitTick+0x60>
    }
  }
  else
  {
    status = HAL_ERROR;
 800092c:	2301      	movs	r3, #1
 800092e:	73fb      	strb	r3, [r7, #15]
  }

  /* Return function status */
  return status;
 8000930:	7bfb      	ldrb	r3, [r7, #15]
}
 8000932:	4618      	mov	r0, r3
 8000934:	3710      	adds	r7, #16
 8000936:	46bd      	mov	sp, r7
 8000938:	bd80      	pop	{r7, pc}
 800093a:	bf00      	nop
 800093c:	20000008 	.word	0x20000008
 8000940:	20000000 	.word	0x20000000
 8000944:	20000004 	.word	0x20000004

08000948 <HAL_IncTick>:
 * @note This function is declared as __weak to be overwritten in case of other
  *      implementations in user file.
  * @retval None
  */
__weak void HAL_IncTick(void)
{
 8000948:	b480      	push	{r7}
 800094a:	af00      	add	r7, sp, #0
  uwTick += (uint32_t)uwTickFreq;
 800094c:	4b06      	ldr	r3, [pc, #24]	; (8000968 <HAL_IncTick+0x20>)
 800094e:	781b      	ldrb	r3, [r3, #0]
 8000950:	461a      	mov	r2, r3
 8000952:	4b06      	ldr	r3, [pc, #24]	; (800096c <HAL_IncTick+0x24>)
 8000954:	681b      	ldr	r3, [r3, #0]
 8000956:	4413      	add	r3, r2
 8000958:	4a04      	ldr	r2, [pc, #16]	; (800096c <HAL_IncTick+0x24>)
 800095a:	6013      	str	r3, [r2, #0]
}
 800095c:	bf00      	nop
 800095e:	46bd      	mov	sp, r7
 8000960:	f85d 7b04 	ldr.w	r7, [sp], #4
 8000964:	4770      	bx	lr
 8000966:	bf00      	nop
 8000968:	20000008 	.word	0x20000008
 800096c:	200000a8 	.word	0x200000a8

08000970 <HAL_GetTick>:
  * @note This function is declared as __weak to be overwritten in case of other
  *       implementations in user file.
  * @retval tick value
  */
__weak uint32_t HAL_GetTick(void)
{
 8000970:	b480      	push	{r7}
 8000972:	af00      	add	r7, sp, #0
  return uwTick;
 8000974:	4b03      	ldr	r3, [pc, #12]	; (8000984 <HAL_GetTick+0x14>)
 8000976:	681b      	ldr	r3, [r3, #0]
}
 8000978:	4618      	mov	r0, r3
 800097a:	46bd      	mov	sp, r7
 800097c:	f85d 7b04 	ldr.w	r7, [sp], #4
 8000980:	4770      	bx	lr
 8000982:	bf00      	nop
 8000984:	200000a8 	.word	0x200000a8

08000988 <__NVIC_SetPriorityGrouping>:
           In case of a conflict between priority grouping and available
           priority bits (__NVIC_PRIO_BITS), the smallest possible priority group is set.
  \param [in]      PriorityGroup  Priority grouping field.
 */
__STATIC_INLINE void __NVIC_SetPriorityGrouping(uint32_t PriorityGroup)
{
 8000988:	b480      	push	{r7}
 800098a:	b085      	sub	sp, #20
 800098c:	af00      	add	r7, sp, #0
 800098e:	6078      	str	r0, [r7, #4]
  uint32_t reg_value;
  uint32_t PriorityGroupTmp = (PriorityGroup & (uint32_t)0x07UL);             /* only values 0..7 are used          */
 8000990:	687b      	ldr	r3, [r7, #4]
 8000992:	f003 0307 	and.w	r3, r3, #7
 8000996:	60fb      	str	r3, [r7, #12]

  reg_value  =  SCB->AIRCR;                                                   /* read old register configuration    */
 8000998:	4b0c      	ldr	r3, [pc, #48]	; (80009cc <__NVIC_SetPriorityGrouping+0x44>)
 800099a:	68db      	ldr	r3, [r3, #12]
 800099c:	60bb      	str	r3, [r7, #8]
  reg_value &= ~((uint32_t)(SCB_AIRCR_VECTKEY_Msk | SCB_AIRCR_PRIGROUP_Msk)); /* clear bits to change               */
 800099e:	68ba      	ldr	r2, [r7, #8]
 80009a0:	f64f 03ff 	movw	r3, #63743	; 0xf8ff
 80009a4:	4013      	ands	r3, r2
 80009a6:	60bb      	str	r3, [r7, #8]
  reg_value  =  (reg_value                                   |
                ((uint32_t)0x5FAUL << SCB_AIRCR_VECTKEY_Pos) |
                (PriorityGroupTmp << SCB_AIRCR_PRIGROUP_Pos)  );              /* Insert write key and priority group */
 80009a8:	68fb      	ldr	r3, [r7, #12]
 80009aa:	021a      	lsls	r2, r3, #8
                ((uint32_t)0x5FAUL << SCB_AIRCR_VECTKEY_Pos) |
 80009ac:	68bb      	ldr	r3, [r7, #8]
 80009ae:	4313      	orrs	r3, r2
  reg_value  =  (reg_value                                   |
 80009b0:	f043 63bf 	orr.w	r3, r3, #100139008	; 0x5f80000
 80009b4:	f443 3300 	orr.w	r3, r3, #131072	; 0x20000
 80009b8:	60bb      	str	r3, [r7, #8]
  SCB->AIRCR =  reg_value;
 80009ba:	4a04      	ldr	r2, [pc, #16]	; (80009cc <__NVIC_SetPriorityGrouping+0x44>)
 80009bc:	68bb      	ldr	r3, [r7, #8]
 80009be:	60d3      	str	r3, [r2, #12]
}
 80009c0:	bf00      	nop
 80009c2:	3714      	adds	r7, #20
 80009c4:	46bd      	mov	sp, r7
 80009c6:	f85d 7b04 	ldr.w	r7, [sp], #4
 80009ca:	4770      	bx	lr
 80009cc:	e000ed00 	.word	0xe000ed00

080009d0 <__NVIC_GetPriorityGrouping>:
  \brief   Get Priority Grouping
  \details Reads the priority grouping field from the NVIC Interrupt Controller.
  \return                Priority grouping field (SCB->AIRCR [10:8] PRIGROUP field).
 */
__STATIC_INLINE uint32_t __NVIC_GetPriorityGrouping(void)
{
 80009d0:	b480      	push	{r7}
 80009d2:	af00      	add	r7, sp, #0
  return ((uint32_t)((SCB->AIRCR & SCB_AIRCR_PRIGROUP_Msk) >> SCB_AIRCR_PRIGROUP_Pos));
 80009d4:	4b04      	ldr	r3, [pc, #16]	; (80009e8 <__NVIC_GetPriorityGrouping+0x18>)
 80009d6:	68db      	ldr	r3, [r3, #12]
 80009d8:	0a1b      	lsrs	r3, r3, #8
 80009da:	f003 0307 	and.w	r3, r3, #7
}
 80009de:	4618      	mov	r0, r3
 80009e0:	46bd      	mov	sp, r7
 80009e2:	f85d 7b04 	ldr.w	r7, [sp], #4
 80009e6:	4770      	bx	lr
 80009e8:	e000ed00 	.word	0xe000ed00

080009ec <__NVIC_SetPriority>:
  \param [in]      IRQn  Interrupt number.
  \param [in]  priority  Priority to set.
  \note    The priority cannot be set for every processor exception.
 */
__STATIC_INLINE void __NVIC_SetPriority(IRQn_Type IRQn, uint32_t priority)
{
 80009ec:	b480      	push	{r7}
 80009ee:	b083      	sub	sp, #12
 80009f0:	af00      	add	r7, sp, #0
 80009f2:	4603      	mov	r3, r0
 80009f4:	6039      	str	r1, [r7, #0]
 80009f6:	71fb      	strb	r3, [r7, #7]
  if ((int32_t)(IRQn) >= 0)
 80009f8:	f997 3007 	ldrsb.w	r3, [r7, #7]
 80009fc:	2b00      	cmp	r3, #0
 80009fe:	db0a      	blt.n	8000a16 <__NVIC_SetPriority+0x2a>
  {
    NVIC->IP[((uint32_t)IRQn)]               = (uint8_t)((priority << (8U - __NVIC_PRIO_BITS)) & (uint32_t)0xFFUL);
 8000a00:	683b      	ldr	r3, [r7, #0]
 8000a02:	b2da      	uxtb	r2, r3
 8000a04:	490c      	ldr	r1, [pc, #48]	; (8000a38 <__NVIC_SetPriority+0x4c>)
 8000a06:	f997 3007 	ldrsb.w	r3, [r7, #7]
 8000a0a:	0112      	lsls	r2, r2, #4
 8000a0c:	b2d2      	uxtb	r2, r2
 8000a0e:	440b      	add	r3, r1
 8000a10:	f883 2300 	strb.w	r2, [r3, #768]	; 0x300
  }
  else
  {
    SCB->SHP[(((uint32_t)IRQn) & 0xFUL)-4UL] = (uint8_t)((priority << (8U - __NVIC_PRIO_BITS)) & (uint32_t)0xFFUL);
  }
}
 8000a14:	e00a      	b.n	8000a2c <__NVIC_SetPriority+0x40>
    SCB->SHP[(((uint32_t)IRQn) & 0xFUL)-4UL] = (uint8_t)((priority << (8U - __NVIC_PRIO_BITS)) & (uint32_t)0xFFUL);
 8000a16:	683b      	ldr	r3, [r7, #0]
 8000a18:	b2da      	uxtb	r2, r3
 8000a1a:	4908      	ldr	r1, [pc, #32]	; (8000a3c <__NVIC_SetPriority+0x50>)
 8000a1c:	79fb      	ldrb	r3, [r7, #7]
 8000a1e:	f003 030f 	and.w	r3, r3, #15
 8000a22:	3b04      	subs	r3, #4
 8000a24:	0112      	lsls	r2, r2, #4
 8000a26:	b2d2      	uxtb	r2, r2
 8000a28:	440b      	add	r3, r1
 8000a2a:	761a      	strb	r2, [r3, #24]
}
 8000a2c:	bf00      	nop
 8000a2e:	370c      	adds	r7, #12
 8000a30:	46bd      	mov	sp, r7
 8000a32:	f85d 7b04 	ldr.w	r7, [sp], #4
 8000a36:	4770      	bx	lr
 8000a38:	e000e100 	.word	0xe000e100
 8000a3c:	e000ed00 	.word	0xe000ed00

08000a40 <NVIC_EncodePriority>:
  \param [in]   PreemptPriority  Preemptive priority value (starting from 0).
  \param [in]       SubPriority  Subpriority value (starting from 0).
  \return                        Encoded priority. Value can be used in the function \ref NVIC_SetPriority().
 */
__STATIC_INLINE uint32_t NVIC_EncodePriority (uint32_t PriorityGroup, uint32_t PreemptPriority, uint32_t SubPriority)
{
 8000a40:	b480      	push	{r7}
 8000a42:	b089      	sub	sp, #36	; 0x24
 8000a44:	af00      	add	r7, sp, #0
 8000a46:	60f8      	str	r0, [r7, #12]
 8000a48:	60b9      	str	r1, [r7, #8]
 8000a4a:	607a      	str	r2, [r7, #4]
  uint32_t PriorityGroupTmp = (PriorityGroup & (uint32_t)0x07UL);   /* only values 0..7 are used          */
 8000a4c:	68fb      	ldr	r3, [r7, #12]
 8000a4e:	f003 0307 	and.w	r3, r3, #7
 8000a52:	61fb      	str	r3, [r7, #28]
  uint32_t PreemptPriorityBits;
  uint32_t SubPriorityBits;

  PreemptPriorityBits = ((7UL - PriorityGroupTmp) > (uint32_t)(__NVIC_PRIO_BITS)) ? (uint32_t)(__NVIC_PRIO_BITS) : (uint32_t)(7UL - PriorityGroupTmp);
 8000a54:	69fb      	ldr	r3, [r7, #28]
 8000a56:	f1c3 0307 	rsb	r3, r3, #7
 8000a5a:	2b04      	cmp	r3, #4
 8000a5c:	bf28      	it	cs
 8000a5e:	2304      	movcs	r3, #4
 8000a60:	61bb      	str	r3, [r7, #24]
  SubPriorityBits     = ((PriorityGroupTmp + (uint32_t)(__NVIC_PRIO_BITS)) < (uint32_t)7UL) ? (uint32_t)0UL : (uint32_t)((PriorityGroupTmp - 7UL) + (uint32_t)(__NVIC_PRIO_BITS));
 8000a62:	69fb      	ldr	r3, [r7, #28]
 8000a64:	3304      	adds	r3, #4
 8000a66:	2b06      	cmp	r3, #6
 8000a68:	d902      	bls.n	8000a70 <NVIC_EncodePriority+0x30>
 8000a6a:	69fb      	ldr	r3, [r7, #28]
 8000a6c:	3b03      	subs	r3, #3
 8000a6e:	e000      	b.n	8000a72 <NVIC_EncodePriority+0x32>
 8000a70:	2300      	movs	r3, #0
 8000a72:	617b      	str	r3, [r7, #20]

  return (
           ((PreemptPriority & (uint32_t)((1UL << (PreemptPriorityBits)) - 1UL)) << SubPriorityBits) |
 8000a74:	f04f 32ff 	mov.w	r2, #4294967295	; 0xffffffff
 8000a78:	69bb      	ldr	r3, [r7, #24]
 8000a7a:	fa02 f303 	lsl.w	r3, r2, r3
 8000a7e:	43da      	mvns	r2, r3
 8000a80:	68bb      	ldr	r3, [r7, #8]
 8000a82:	401a      	ands	r2, r3
 8000a84:	697b      	ldr	r3, [r7, #20]
 8000a86:	409a      	lsls	r2, r3
           ((SubPriority     & (uint32_t)((1UL << (SubPriorityBits    )) - 1UL)))
 8000a88:	f04f 31ff 	mov.w	r1, #4294967295	; 0xffffffff
 8000a8c:	697b      	ldr	r3, [r7, #20]
 8000a8e:	fa01 f303 	lsl.w	r3, r1, r3
 8000a92:	43d9      	mvns	r1, r3
 8000a94:	687b      	ldr	r3, [r7, #4]
 8000a96:	400b      	ands	r3, r1
           ((PreemptPriority & (uint32_t)((1UL << (PreemptPriorityBits)) - 1UL)) << SubPriorityBits) |
 8000a98:	4313      	orrs	r3, r2
         );
}
 8000a9a:	4618      	mov	r0, r3
 8000a9c:	3724      	adds	r7, #36	; 0x24
 8000a9e:	46bd      	mov	sp, r7
 8000aa0:	f85d 7b04 	ldr.w	r7, [sp], #4
 8000aa4:	4770      	bx	lr
	...

08000aa8 <SysTick_Config>:
  \note    When the variable <b>__Vendor_SysTickConfig</b> is set to 1, then the
           function <b>SysTick_Config</b> is not included. In this case, the file <b><i>device</i>.h</b>
           must contain a vendor-specific implementation of this function.
 */
__STATIC_INLINE uint32_t SysTick_Config(uint32_t ticks)
{
 8000aa8:	b580      	push	{r7, lr}
 8000aaa:	b082      	sub	sp, #8
 8000aac:	af00      	add	r7, sp, #0
 8000aae:	6078      	str	r0, [r7, #4]
  if ((ticks - 1UL) > SysTick_LOAD_RELOAD_Msk)
 8000ab0:	687b      	ldr	r3, [r7, #4]
 8000ab2:	3b01      	subs	r3, #1
 8000ab4:	f1b3 7f80 	cmp.w	r3, #16777216	; 0x1000000
 8000ab8:	d301      	bcc.n	8000abe <SysTick_Config+0x16>
  {
    return (1UL);                                                   /* Reload value impossible */
 8000aba:	2301      	movs	r3, #1
 8000abc:	e00f      	b.n	8000ade <SysTick_Config+0x36>
  }

  SysTick->LOAD  = (uint32_t)(ticks - 1UL);                         /* set reload register */
 8000abe:	4a0a      	ldr	r2, [pc, #40]	; (8000ae8 <SysTick_Config+0x40>)
 8000ac0:	687b      	ldr	r3, [r7, #4]
 8000ac2:	3b01      	subs	r3, #1
 8000ac4:	6053      	str	r3, [r2, #4]
  NVIC_SetPriority (SysTick_IRQn, (1UL << __NVIC_PRIO_BITS) - 1UL); /* set Priority for Systick Interrupt */
 8000ac6:	210f      	movs	r1, #15
 8000ac8:	f04f 30ff 	mov.w	r0, #4294967295	; 0xffffffff
 8000acc:	f7ff ff8e 	bl	80009ec <__NVIC_SetPriority>
  SysTick->VAL   = 0UL;                                             /* Load the SysTick Counter Value */
 8000ad0:	4b05      	ldr	r3, [pc, #20]	; (8000ae8 <SysTick_Config+0x40>)
 8000ad2:	2200      	movs	r2, #0
 8000ad4:	609a      	str	r2, [r3, #8]
  SysTick->CTRL  = SysTick_CTRL_CLKSOURCE_Msk |
 8000ad6:	4b04      	ldr	r3, [pc, #16]	; (8000ae8 <SysTick_Config+0x40>)
 8000ad8:	2207      	movs	r2, #7
 8000ada:	601a      	str	r2, [r3, #0]
                   SysTick_CTRL_TICKINT_Msk   |
                   SysTick_CTRL_ENABLE_Msk;                         /* Enable SysTick IRQ and SysTick Timer */
  return (0UL);                                                     /* Function successful */
 8000adc:	2300      	movs	r3, #0
}
 8000ade:	4618      	mov	r0, r3
 8000ae0:	3708      	adds	r7, #8
 8000ae2:	46bd      	mov	sp, r7
 8000ae4:	bd80      	pop	{r7, pc}
 8000ae6:	bf00      	nop
 8000ae8:	e000e010 	.word	0xe000e010

08000aec <HAL_NVIC_SetPriorityGrouping>:
  * @note   When the NVIC_PriorityGroup_0 is selected, IRQ pre-emption is no more possible.
  *         The pending IRQ priority will be managed only by the subpriority.
  * @retval None
  */
void HAL_NVIC_SetPriorityGrouping(uint32_t PriorityGroup)
{
 8000aec:	b580      	push	{r7, lr}
 8000aee:	b082      	sub	sp, #8
 8000af0:	af00      	add	r7, sp, #0
 8000af2:	6078      	str	r0, [r7, #4]
  /* Check the parameters */
  assert_param(IS_NVIC_PRIORITY_GROUP(PriorityGroup));

  /* Set the PRIGROUP[10:8] bits according to the PriorityGroup parameter value */
  NVIC_SetPriorityGrouping(PriorityGroup);
 8000af4:	6878      	ldr	r0, [r7, #4]
 8000af6:	f7ff ff47 	bl	8000988 <__NVIC_SetPriorityGrouping>
}
 8000afa:	bf00      	nop
 8000afc:	3708      	adds	r7, #8
 8000afe:	46bd      	mov	sp, r7
 8000b00:	bd80      	pop	{r7, pc}

08000b02 <HAL_NVIC_SetPriority>:
  *         This parameter can be a value between 0 and 15
  *         A lower priority value indicates a higher priority.
  * @retval None
  */
void HAL_NVIC_SetPriority(IRQn_Type IRQn, uint32_t PreemptPriority, uint32_t SubPriority)
{
 8000b02:	b580      	push	{r7, lr}
 8000b04:	b086      	sub	sp, #24
 8000b06:	af00      	add	r7, sp, #0
 8000b08:	4603      	mov	r3, r0
 8000b0a:	60b9      	str	r1, [r7, #8]
 8000b0c:	607a      	str	r2, [r7, #4]
 8000b0e:	73fb      	strb	r3, [r7, #15]
  uint32_t prioritygroup = 0x00;
 8000b10:	2300      	movs	r3, #0
 8000b12:	617b      	str	r3, [r7, #20]

  /* Check the parameters */
  assert_param(IS_NVIC_SUB_PRIORITY(SubPriority));
  assert_param(IS_NVIC_PREEMPTION_PRIORITY(PreemptPriority));

  prioritygroup = NVIC_GetPriorityGrouping();
 8000b14:	f7ff ff5c 	bl	80009d0 <__NVIC_GetPriorityGrouping>
 8000b18:	6178      	str	r0, [r7, #20]

  NVIC_SetPriority(IRQn, NVIC_EncodePriority(prioritygroup, PreemptPriority, SubPriority));
 8000b1a:	687a      	ldr	r2, [r7, #4]
 8000b1c:	68b9      	ldr	r1, [r7, #8]
 8000b1e:	6978      	ldr	r0, [r7, #20]
 8000b20:	f7ff ff8e 	bl	8000a40 <NVIC_EncodePriority>
 8000b24:	4602      	mov	r2, r0
 8000b26:	f997 300f 	ldrsb.w	r3, [r7, #15]
 8000b2a:	4611      	mov	r1, r2
 8000b2c:	4618      	mov	r0, r3
 8000b2e:	f7ff ff5d 	bl	80009ec <__NVIC_SetPriority>
}
 8000b32:	bf00      	nop
 8000b34:	3718      	adds	r7, #24
 8000b36:	46bd      	mov	sp, r7
 8000b38:	bd80      	pop	{r7, pc}

08000b3a <HAL_SYSTICK_Config>:
  * @param  TicksNumb: Specifies the ticks Number of ticks between two interrupts.
  * @retval status:  - 0  Function succeeded.
  *                  - 1  Function failed.
  */
uint32_t HAL_SYSTICK_Config(uint32_t TicksNumb)
{
 8000b3a:	b580      	push	{r7, lr}
 8000b3c:	b082      	sub	sp, #8
 8000b3e:	af00      	add	r7, sp, #0
 8000b40:	6078      	str	r0, [r7, #4]
   return SysTick_Config(TicksNumb);
 8000b42:	6878      	ldr	r0, [r7, #4]
 8000b44:	f7ff ffb0 	bl	8000aa8 <SysTick_Config>
 8000b48:	4603      	mov	r3, r0
}
 8000b4a:	4618      	mov	r0, r3
 8000b4c:	3708      	adds	r7, #8
 8000b4e:	46bd      	mov	sp, r7
 8000b50:	bd80      	pop	{r7, pc}
	...

08000b54 <HAL_GPIO_Init>:
  * @param  GPIO_Init pointer to a GPIO_InitTypeDef structure that contains
  *         the configuration information for the specified GPIO peripheral.
  * @retval None
  */
void HAL_GPIO_Init(GPIO_TypeDef  *GPIOx, GPIO_InitTypeDef *GPIO_Init)
{
 8000b54:	b480      	push	{r7}
 8000b56:	b087      	sub	sp, #28
 8000b58:	af00      	add	r7, sp, #0
 8000b5a:	6078      	str	r0, [r7, #4]
 8000b5c:	6039      	str	r1, [r7, #0]
  uint32_t position = 0x00u;
 8000b5e:	2300      	movs	r3, #0
 8000b60:	617b      	str	r3, [r7, #20]
  assert_param(IS_GPIO_PIN(GPIO_Init->Pin));
  assert_param(IS_GPIO_MODE(GPIO_Init->Mode));
  assert_param(IS_GPIO_PULL(GPIO_Init->Pull));

  /* Configure the port pins */
  while (((GPIO_Init->Pin) >> position) != 0x00u)
 8000b62:	e17f      	b.n	8000e64 <HAL_GPIO_Init+0x310>
  {
    /* Get current io position */
    iocurrent = (GPIO_Init->Pin) & (1uL << position);
 8000b64:	683b      	ldr	r3, [r7, #0]
 8000b66:	681a      	ldr	r2, [r3, #0]
 8000b68:	2101      	movs	r1, #1
 8000b6a:	697b      	ldr	r3, [r7, #20]
 8000b6c:	fa01 f303 	lsl.w	r3, r1, r3
 8000b70:	4013      	ands	r3, r2
 8000b72:	60fb      	str	r3, [r7, #12]

    if (iocurrent != 0x00u)
 8000b74:	68fb      	ldr	r3, [r7, #12]
 8000b76:	2b00      	cmp	r3, #0
 8000b78:	f000 8171 	beq.w	8000e5e <HAL_GPIO_Init+0x30a>
    {
      /*--------------------- GPIO Mode Configuration ------------------------*/
      /* In case of Output or Alternate function mode selection */
      if((GPIO_Init->Mode == GPIO_MODE_OUTPUT_PP) || (GPIO_Init->Mode == GPIO_MODE_AF_PP) ||
 8000b7c:	683b      	ldr	r3, [r7, #0]
 8000b7e:	685b      	ldr	r3, [r3, #4]
 8000b80:	2b01      	cmp	r3, #1
 8000b82:	d00b      	beq.n	8000b9c <HAL_GPIO_Init+0x48>
 8000b84:	683b      	ldr	r3, [r7, #0]
 8000b86:	685b      	ldr	r3, [r3, #4]
 8000b88:	2b02      	cmp	r3, #2
 8000b8a:	d007      	beq.n	8000b9c <HAL_GPIO_Init+0x48>
         (GPIO_Init->Mode == GPIO_MODE_OUTPUT_OD) || (GPIO_Init->Mode == GPIO_MODE_AF_OD))
 8000b8c:	683b      	ldr	r3, [r7, #0]
 8000b8e:	685b      	ldr	r3, [r3, #4]
      if((GPIO_Init->Mode == GPIO_MODE_OUTPUT_PP) || (GPIO_Init->Mode == GPIO_MODE_AF_PP) ||
 8000b90:	2b11      	cmp	r3, #17
 8000b92:	d003      	beq.n	8000b9c <HAL_GPIO_Init+0x48>
         (GPIO_Init->Mode == GPIO_MODE_OUTPUT_OD) || (GPIO_Init->Mode == GPIO_MODE_AF_OD))
 8000b94:	683b      	ldr	r3, [r7, #0]
 8000b96:	685b      	ldr	r3, [r3, #4]
 8000b98:	2b12      	cmp	r3, #18
 8000b9a:	d130      	bne.n	8000bfe <HAL_GPIO_Init+0xaa>
      {
        /* Check the Speed parameter */
        assert_param(IS_GPIO_SPEED(GPIO_Init->Speed));
        /* Configure the IO Speed */
        temp = GPIOx->OSPEEDR;
 8000b9c:	687b      	ldr	r3, [r7, #4]
 8000b9e:	689b      	ldr	r3, [r3, #8]
 8000ba0:	613b      	str	r3, [r7, #16]
        temp &= ~(GPIO_OSPEEDR_OSPEED0 << (position * 2u));
 8000ba2:	697b      	ldr	r3, [r7, #20]
 8000ba4:	005b      	lsls	r3, r3, #1
 8000ba6:	2203      	movs	r2, #3
 8000ba8:	fa02 f303 	lsl.w	r3, r2, r3
 8000bac:	43db      	mvns	r3, r3
 8000bae:	693a      	ldr	r2, [r7, #16]
 8000bb0:	4013      	ands	r3, r2
 8000bb2:	613b      	str	r3, [r7, #16]
        temp |= (GPIO_Init->Speed << (position * 2u));
 8000bb4:	683b      	ldr	r3, [r7, #0]
 8000bb6:	68da      	ldr	r2, [r3, #12]
 8000bb8:	697b      	ldr	r3, [r7, #20]
 8000bba:	005b      	lsls	r3, r3, #1
 8000bbc:	fa02 f303 	lsl.w	r3, r2, r3
 8000bc0:	693a      	ldr	r2, [r7, #16]
 8000bc2:	4313      	orrs	r3, r2
 8000bc4:	613b      	str	r3, [r7, #16]
        GPIOx->OSPEEDR = temp;
 8000bc6:	687b      	ldr	r3, [r7, #4]
 8000bc8:	693a      	ldr	r2, [r7, #16]
 8000bca:	609a      	str	r2, [r3, #8]

        /* Configure the IO Output Type */
        temp = GPIOx->OTYPER;
 8000bcc:	687b      	ldr	r3, [r7, #4]
 8000bce:	685b      	ldr	r3, [r3, #4]
 8000bd0:	613b      	str	r3, [r7, #16]
        temp &= ~(GPIO_OTYPER_OT0 << position) ;
 8000bd2:	2201      	movs	r2, #1
 8000bd4:	697b      	ldr	r3, [r7, #20]
 8000bd6:	fa02 f303 	lsl.w	r3, r2, r3
 8000bda:	43db      	mvns	r3, r3
 8000bdc:	693a      	ldr	r2, [r7, #16]
 8000bde:	4013      	ands	r3, r2
 8000be0:	613b      	str	r3, [r7, #16]
        temp |= (((GPIO_Init->Mode & GPIO_OUTPUT_TYPE) >> 4u) << position);
 8000be2:	683b      	ldr	r3, [r7, #0]
 8000be4:	685b      	ldr	r3, [r3, #4]
 8000be6:	091b      	lsrs	r3, r3, #4
 8000be8:	f003 0201 	and.w	r2, r3, #1
 8000bec:	697b      	ldr	r3, [r7, #20]
 8000bee:	fa02 f303 	lsl.w	r3, r2, r3
 8000bf2:	693a      	ldr	r2, [r7, #16]
 8000bf4:	4313      	orrs	r3, r2
 8000bf6:	613b      	str	r3, [r7, #16]
        GPIOx->OTYPER = temp;
 8000bf8:	687b      	ldr	r3, [r7, #4]
 8000bfa:	693a      	ldr	r2, [r7, #16]
 8000bfc:	605a      	str	r2, [r3, #4]
      }

#if defined(STM32L471xx) || defined(STM32L475xx) || defined(STM32L476xx) || defined(STM32L485xx) || defined(STM32L486xx)

      /* In case of Analog mode, check if ADC control mode is selected */
      if((GPIO_Init->Mode & GPIO_MODE_ANALOG) == GPIO_MODE_ANALOG)
 8000bfe:	683b      	ldr	r3, [r7, #0]
 8000c00:	685b      	ldr	r3, [r3, #4]
 8000c02:	f003 0303 	and.w	r3, r3, #3
 8000c06:	2b03      	cmp	r3, #3
 8000c08:	d118      	bne.n	8000c3c <HAL_GPIO_Init+0xe8>
      {
        /* Configure the IO Output Type */
        temp = GPIOx->ASCR;
 8000c0a:	687b      	ldr	r3, [r7, #4]
 8000c0c:	6adb      	ldr	r3, [r3, #44]	; 0x2c
 8000c0e:	613b      	str	r3, [r7, #16]
        temp &= ~(GPIO_ASCR_ASC0 << position) ;
 8000c10:	2201      	movs	r2, #1
 8000c12:	697b      	ldr	r3, [r7, #20]
 8000c14:	fa02 f303 	lsl.w	r3, r2, r3
 8000c18:	43db      	mvns	r3, r3
 8000c1a:	693a      	ldr	r2, [r7, #16]
 8000c1c:	4013      	ands	r3, r2
 8000c1e:	613b      	str	r3, [r7, #16]
        temp |= (((GPIO_Init->Mode & ANALOG_MODE) >> 3) << position);
 8000c20:	683b      	ldr	r3, [r7, #0]
 8000c22:	685b      	ldr	r3, [r3, #4]
 8000c24:	08db      	lsrs	r3, r3, #3
 8000c26:	f003 0201 	and.w	r2, r3, #1
 8000c2a:	697b      	ldr	r3, [r7, #20]
 8000c2c:	fa02 f303 	lsl.w	r3, r2, r3
 8000c30:	693a      	ldr	r2, [r7, #16]
 8000c32:	4313      	orrs	r3, r2
 8000c34:	613b      	str	r3, [r7, #16]
        GPIOx->ASCR = temp;
 8000c36:	687b      	ldr	r3, [r7, #4]
 8000c38:	693a      	ldr	r2, [r7, #16]
 8000c3a:	62da      	str	r2, [r3, #44]	; 0x2c
      }

#endif /* STM32L471xx || STM32L475xx || STM32L476xx || STM32L485xx || STM32L486xx */

      /* Activate the Pull-up or Pull down resistor for the current IO */
      temp = GPIOx->PUPDR;
 8000c3c:	687b      	ldr	r3, [r7, #4]
 8000c3e:	68db      	ldr	r3, [r3, #12]
 8000c40:	613b      	str	r3, [r7, #16]
      temp &= ~(GPIO_PUPDR_PUPD0 << (position * 2u));
 8000c42:	697b      	ldr	r3, [r7, #20]
 8000c44:	005b      	lsls	r3, r3, #1
 8000c46:	2203      	movs	r2, #3
 8000c48:	fa02 f303 	lsl.w	r3, r2, r3
 8000c4c:	43db      	mvns	r3, r3
 8000c4e:	693a      	ldr	r2, [r7, #16]
 8000c50:	4013      	ands	r3, r2
 8000c52:	613b      	str	r3, [r7, #16]
      temp |= ((GPIO_Init->Pull) << (position * 2u));
 8000c54:	683b      	ldr	r3, [r7, #0]
 8000c56:	689a      	ldr	r2, [r3, #8]
 8000c58:	697b      	ldr	r3, [r7, #20]
 8000c5a:	005b      	lsls	r3, r3, #1
 8000c5c:	fa02 f303 	lsl.w	r3, r2, r3
 8000c60:	693a      	ldr	r2, [r7, #16]
 8000c62:	4313      	orrs	r3, r2
 8000c64:	613b      	str	r3, [r7, #16]
      GPIOx->PUPDR = temp;
 8000c66:	687b      	ldr	r3, [r7, #4]
 8000c68:	693a      	ldr	r2, [r7, #16]
 8000c6a:	60da      	str	r2, [r3, #12]

      /* In case of Alternate function mode selection */
      if((GPIO_Init->Mode == GPIO_MODE_AF_PP) || (GPIO_Init->Mode == GPIO_MODE_AF_OD))
 8000c6c:	683b      	ldr	r3, [r7, #0]
 8000c6e:	685b      	ldr	r3, [r3, #4]
 8000c70:	2b02      	cmp	r3, #2
 8000c72:	d003      	beq.n	8000c7c <HAL_GPIO_Init+0x128>
 8000c74:	683b      	ldr	r3, [r7, #0]
 8000c76:	685b      	ldr	r3, [r3, #4]
 8000c78:	2b12      	cmp	r3, #18
 8000c7a:	d123      	bne.n	8000cc4 <HAL_GPIO_Init+0x170>
        /* Check the Alternate function parameters */
        assert_param(IS_GPIO_AF_INSTANCE(GPIOx));
        assert_param(IS_GPIO_AF(GPIO_Init->Alternate));

        /* Configure Alternate function mapped with the current IO */
        temp = GPIOx->AFR[position >> 3u];
 8000c7c:	697b      	ldr	r3, [r7, #20]
 8000c7e:	08da      	lsrs	r2, r3, #3
 8000c80:	687b      	ldr	r3, [r7, #4]
 8000c82:	3208      	adds	r2, #8
 8000c84:	f853 3022 	ldr.w	r3, [r3, r2, lsl #2]
 8000c88:	613b      	str	r3, [r7, #16]
        temp &= ~(0xFu << ((position & 0x07u) * 4u));
 8000c8a:	697b      	ldr	r3, [r7, #20]
 8000c8c:	f003 0307 	and.w	r3, r3, #7
 8000c90:	009b      	lsls	r3, r3, #2
 8000c92:	220f      	movs	r2, #15
 8000c94:	fa02 f303 	lsl.w	r3, r2, r3
 8000c98:	43db      	mvns	r3, r3
 8000c9a:	693a      	ldr	r2, [r7, #16]
 8000c9c:	4013      	ands	r3, r2
 8000c9e:	613b      	str	r3, [r7, #16]
        temp |= ((GPIO_Init->Alternate) << ((position & 0x07u) * 4u));
 8000ca0:	683b      	ldr	r3, [r7, #0]
 8000ca2:	691a      	ldr	r2, [r3, #16]
 8000ca4:	697b      	ldr	r3, [r7, #20]
 8000ca6:	f003 0307 	and.w	r3, r3, #7
 8000caa:	009b      	lsls	r3, r3, #2
 8000cac:	fa02 f303 	lsl.w	r3, r2, r3
 8000cb0:	693a      	ldr	r2, [r7, #16]
 8000cb2:	4313      	orrs	r3, r2
 8000cb4:	613b      	str	r3, [r7, #16]
        GPIOx->AFR[position >> 3u] = temp;
 8000cb6:	697b      	ldr	r3, [r7, #20]
 8000cb8:	08da      	lsrs	r2, r3, #3
 8000cba:	687b      	ldr	r3, [r7, #4]
 8000cbc:	3208      	adds	r2, #8
 8000cbe:	6939      	ldr	r1, [r7, #16]
 8000cc0:	f843 1022 	str.w	r1, [r3, r2, lsl #2]
      }

      /* Configure IO Direction mode (Input, Output, Alternate or Analog) */
      temp = GPIOx->MODER;
 8000cc4:	687b      	ldr	r3, [r7, #4]
 8000cc6:	681b      	ldr	r3, [r3, #0]
 8000cc8:	613b      	str	r3, [r7, #16]
      temp &= ~(GPIO_MODER_MODE0 << (position * 2u));
 8000cca:	697b      	ldr	r3, [r7, #20]
 8000ccc:	005b      	lsls	r3, r3, #1
 8000cce:	2203      	movs	r2, #3
 8000cd0:	fa02 f303 	lsl.w	r3, r2, r3
 8000cd4:	43db      	mvns	r3, r3
 8000cd6:	693a      	ldr	r2, [r7, #16]
 8000cd8:	4013      	ands	r3, r2
 8000cda:	613b      	str	r3, [r7, #16]
      temp |= ((GPIO_Init->Mode & GPIO_MODE) << (position * 2u));
 8000cdc:	683b      	ldr	r3, [r7, #0]
 8000cde:	685b      	ldr	r3, [r3, #4]
 8000ce0:	f003 0203 	and.w	r2, r3, #3
 8000ce4:	697b      	ldr	r3, [r7, #20]
 8000ce6:	005b      	lsls	r3, r3, #1
 8000ce8:	fa02 f303 	lsl.w	r3, r2, r3
 8000cec:	693a      	ldr	r2, [r7, #16]
 8000cee:	4313      	orrs	r3, r2
 8000cf0:	613b      	str	r3, [r7, #16]
      GPIOx->MODER = temp;
 8000cf2:	687b      	ldr	r3, [r7, #4]
 8000cf4:	693a      	ldr	r2, [r7, #16]
 8000cf6:	601a      	str	r2, [r3, #0]

      /*--------------------- EXTI Mode Configuration ------------------------*/
      /* Configure the External Interrupt or event for the current IO */
      if((GPIO_Init->Mode & EXTI_MODE) == EXTI_MODE)
 8000cf8:	683b      	ldr	r3, [r7, #0]
 8000cfa:	685b      	ldr	r3, [r3, #4]
 8000cfc:	f003 5380 	and.w	r3, r3, #268435456	; 0x10000000
 8000d00:	2b00      	cmp	r3, #0
 8000d02:	f000 80ac 	beq.w	8000e5e <HAL_GPIO_Init+0x30a>
      {
        /* Enable SYSCFG Clock */
        __HAL_RCC_SYSCFG_CLK_ENABLE();
 8000d06:	4b5e      	ldr	r3, [pc, #376]	; (8000e80 <HAL_GPIO_Init+0x32c>)
 8000d08:	6e1b      	ldr	r3, [r3, #96]	; 0x60
 8000d0a:	4a5d      	ldr	r2, [pc, #372]	; (8000e80 <HAL_GPIO_Init+0x32c>)
 8000d0c:	f043 0301 	orr.w	r3, r3, #1
 8000d10:	6613      	str	r3, [r2, #96]	; 0x60
 8000d12:	4b5b      	ldr	r3, [pc, #364]	; (8000e80 <HAL_GPIO_Init+0x32c>)
 8000d14:	6e1b      	ldr	r3, [r3, #96]	; 0x60
 8000d16:	f003 0301 	and.w	r3, r3, #1
 8000d1a:	60bb      	str	r3, [r7, #8]
 8000d1c:	68bb      	ldr	r3, [r7, #8]

        temp = SYSCFG->EXTICR[position >> 2u];
 8000d1e:	4a59      	ldr	r2, [pc, #356]	; (8000e84 <HAL_GPIO_Init+0x330>)
 8000d20:	697b      	ldr	r3, [r7, #20]
 8000d22:	089b      	lsrs	r3, r3, #2
 8000d24:	3302      	adds	r3, #2
 8000d26:	f852 3023 	ldr.w	r3, [r2, r3, lsl #2]
 8000d2a:	613b      	str	r3, [r7, #16]
        temp &= ~(0x0FuL << (4u * (position & 0x03u)));
 8000d2c:	697b      	ldr	r3, [r7, #20]
 8000d2e:	f003 0303 	and.w	r3, r3, #3
 8000d32:	009b      	lsls	r3, r3, #2
 8000d34:	220f      	movs	r2, #15
 8000d36:	fa02 f303 	lsl.w	r3, r2, r3
 8000d3a:	43db      	mvns	r3, r3
 8000d3c:	693a      	ldr	r2, [r7, #16]
 8000d3e:	4013      	ands	r3, r2
 8000d40:	613b      	str	r3, [r7, #16]
        temp |= (GPIO_GET_INDEX(GPIOx) << (4u * (position & 0x03u)));
 8000d42:	687b      	ldr	r3, [r7, #4]
 8000d44:	f1b3 4f90 	cmp.w	r3, #1207959552	; 0x48000000
 8000d48:	d025      	beq.n	8000d96 <HAL_GPIO_Init+0x242>
 8000d4a:	687b      	ldr	r3, [r7, #4]
 8000d4c:	4a4e      	ldr	r2, [pc, #312]	; (8000e88 <HAL_GPIO_Init+0x334>)
 8000d4e:	4293      	cmp	r3, r2
 8000d50:	d01f      	beq.n	8000d92 <HAL_GPIO_Init+0x23e>
 8000d52:	687b      	ldr	r3, [r7, #4]
 8000d54:	4a4d      	ldr	r2, [pc, #308]	; (8000e8c <HAL_GPIO_Init+0x338>)
 8000d56:	4293      	cmp	r3, r2
 8000d58:	d019      	beq.n	8000d8e <HAL_GPIO_Init+0x23a>
 8000d5a:	687b      	ldr	r3, [r7, #4]
 8000d5c:	4a4c      	ldr	r2, [pc, #304]	; (8000e90 <HAL_GPIO_Init+0x33c>)
 8000d5e:	4293      	cmp	r3, r2
 8000d60:	d013      	beq.n	8000d8a <HAL_GPIO_Init+0x236>
 8000d62:	687b      	ldr	r3, [r7, #4]
 8000d64:	4a4b      	ldr	r2, [pc, #300]	; (8000e94 <HAL_GPIO_Init+0x340>)
 8000d66:	4293      	cmp	r3, r2
 8000d68:	d00d      	beq.n	8000d86 <HAL_GPIO_Init+0x232>
 8000d6a:	687b      	ldr	r3, [r7, #4]
 8000d6c:	4a4a      	ldr	r2, [pc, #296]	; (8000e98 <HAL_GPIO_Init+0x344>)
 8000d6e:	4293      	cmp	r3, r2
 8000d70:	d007      	beq.n	8000d82 <HAL_GPIO_Init+0x22e>
 8000d72:	687b      	ldr	r3, [r7, #4]
 8000d74:	4a49      	ldr	r2, [pc, #292]	; (8000e9c <HAL_GPIO_Init+0x348>)
 8000d76:	4293      	cmp	r3, r2
 8000d78:	d101      	bne.n	8000d7e <HAL_GPIO_Init+0x22a>
 8000d7a:	2306      	movs	r3, #6
 8000d7c:	e00c      	b.n	8000d98 <HAL_GPIO_Init+0x244>
 8000d7e:	2307      	movs	r3, #7
 8000d80:	e00a      	b.n	8000d98 <HAL_GPIO_Init+0x244>
 8000d82:	2305      	movs	r3, #5
 8000d84:	e008      	b.n	8000d98 <HAL_GPIO_Init+0x244>
 8000d86:	2304      	movs	r3, #4
 8000d88:	e006      	b.n	8000d98 <HAL_GPIO_Init+0x244>
 8000d8a:	2303      	movs	r3, #3
 8000d8c:	e004      	b.n	8000d98 <HAL_GPIO_Init+0x244>
 8000d8e:	2302      	movs	r3, #2
 8000d90:	e002      	b.n	8000d98 <HAL_GPIO_Init+0x244>
 8000d92:	2301      	movs	r3, #1
 8000d94:	e000      	b.n	8000d98 <HAL_GPIO_Init+0x244>
 8000d96:	2300      	movs	r3, #0
 8000d98:	697a      	ldr	r2, [r7, #20]
 8000d9a:	f002 0203 	and.w	r2, r2, #3
 8000d9e:	0092      	lsls	r2, r2, #2
 8000da0:	4093      	lsls	r3, r2
 8000da2:	693a      	ldr	r2, [r7, #16]
 8000da4:	4313      	orrs	r3, r2
 8000da6:	613b      	str	r3, [r7, #16]
        SYSCFG->EXTICR[position >> 2u] = temp;
 8000da8:	4936      	ldr	r1, [pc, #216]	; (8000e84 <HAL_GPIO_Init+0x330>)
 8000daa:	697b      	ldr	r3, [r7, #20]
 8000dac:	089b      	lsrs	r3, r3, #2
 8000dae:	3302      	adds	r3, #2
 8000db0:	693a      	ldr	r2, [r7, #16]
 8000db2:	f841 2023 	str.w	r2, [r1, r3, lsl #2]

        /* Clear EXTI line configuration */
        temp = EXTI->IMR1;
 8000db6:	4b3a      	ldr	r3, [pc, #232]	; (8000ea0 <HAL_GPIO_Init+0x34c>)
 8000db8:	681b      	ldr	r3, [r3, #0]
 8000dba:	613b      	str	r3, [r7, #16]
        temp &= ~(iocurrent);
 8000dbc:	68fb      	ldr	r3, [r7, #12]
 8000dbe:	43db      	mvns	r3, r3
 8000dc0:	693a      	ldr	r2, [r7, #16]
 8000dc2:	4013      	ands	r3, r2
 8000dc4:	613b      	str	r3, [r7, #16]
        if((GPIO_Init->Mode & GPIO_MODE_IT) == GPIO_MODE_IT)
 8000dc6:	683b      	ldr	r3, [r7, #0]
 8000dc8:	685b      	ldr	r3, [r3, #4]
 8000dca:	f403 3380 	and.w	r3, r3, #65536	; 0x10000
 8000dce:	2b00      	cmp	r3, #0
 8000dd0:	d003      	beq.n	8000dda <HAL_GPIO_Init+0x286>
        {
          temp |= iocurrent;
 8000dd2:	693a      	ldr	r2, [r7, #16]
 8000dd4:	68fb      	ldr	r3, [r7, #12]
 8000dd6:	4313      	orrs	r3, r2
 8000dd8:	613b      	str	r3, [r7, #16]
        }
        EXTI->IMR1 = temp;
 8000dda:	4a31      	ldr	r2, [pc, #196]	; (8000ea0 <HAL_GPIO_Init+0x34c>)
 8000ddc:	693b      	ldr	r3, [r7, #16]
 8000dde:	6013      	str	r3, [r2, #0]

        temp = EXTI->EMR1;
 8000de0:	4b2f      	ldr	r3, [pc, #188]	; (8000ea0 <HAL_GPIO_Init+0x34c>)
 8000de2:	685b      	ldr	r3, [r3, #4]
 8000de4:	613b      	str	r3, [r7, #16]
        temp &= ~(iocurrent);
 8000de6:	68fb      	ldr	r3, [r7, #12]
 8000de8:	43db      	mvns	r3, r3
 8000dea:	693a      	ldr	r2, [r7, #16]
 8000dec:	4013      	ands	r3, r2
 8000dee:	613b      	str	r3, [r7, #16]
        if((GPIO_Init->Mode & GPIO_MODE_EVT) == GPIO_MODE_EVT)
 8000df0:	683b      	ldr	r3, [r7, #0]
 8000df2:	685b      	ldr	r3, [r3, #4]
 8000df4:	f403 3300 	and.w	r3, r3, #131072	; 0x20000
 8000df8:	2b00      	cmp	r3, #0
 8000dfa:	d003      	beq.n	8000e04 <HAL_GPIO_Init+0x2b0>
        {
          temp |= iocurrent;
 8000dfc:	693a      	ldr	r2, [r7, #16]
 8000dfe:	68fb      	ldr	r3, [r7, #12]
 8000e00:	4313      	orrs	r3, r2
 8000e02:	613b      	str	r3, [r7, #16]
        }
        EXTI->EMR1 = temp;
 8000e04:	4a26      	ldr	r2, [pc, #152]	; (8000ea0 <HAL_GPIO_Init+0x34c>)
 8000e06:	693b      	ldr	r3, [r7, #16]
 8000e08:	6053      	str	r3, [r2, #4]

        /* Clear Rising Falling edge configuration */
        temp = EXTI->RTSR1;
 8000e0a:	4b25      	ldr	r3, [pc, #148]	; (8000ea0 <HAL_GPIO_Init+0x34c>)
 8000e0c:	689b      	ldr	r3, [r3, #8]
 8000e0e:	613b      	str	r3, [r7, #16]
        temp &= ~(iocurrent);
 8000e10:	68fb      	ldr	r3, [r7, #12]
 8000e12:	43db      	mvns	r3, r3
 8000e14:	693a      	ldr	r2, [r7, #16]
 8000e16:	4013      	ands	r3, r2
 8000e18:	613b      	str	r3, [r7, #16]
        if((GPIO_Init->Mode & RISING_EDGE) == RISING_EDGE)
 8000e1a:	683b      	ldr	r3, [r7, #0]
 8000e1c:	685b      	ldr	r3, [r3, #4]
 8000e1e:	f403 1380 	and.w	r3, r3, #1048576	; 0x100000
 8000e22:	2b00      	cmp	r3, #0
 8000e24:	d003      	beq.n	8000e2e <HAL_GPIO_Init+0x2da>
        {
          temp |= iocurrent;
 8000e26:	693a      	ldr	r2, [r7, #16]
 8000e28:	68fb      	ldr	r3, [r7, #12]
 8000e2a:	4313      	orrs	r3, r2
 8000e2c:	613b      	str	r3, [r7, #16]
        }
        EXTI->RTSR1 = temp;
 8000e2e:	4a1c      	ldr	r2, [pc, #112]	; (8000ea0 <HAL_GPIO_Init+0x34c>)
 8000e30:	693b      	ldr	r3, [r7, #16]
 8000e32:	6093      	str	r3, [r2, #8]

        temp = EXTI->FTSR1;
 8000e34:	4b1a      	ldr	r3, [pc, #104]	; (8000ea0 <HAL_GPIO_Init+0x34c>)
 8000e36:	68db      	ldr	r3, [r3, #12]
 8000e38:	613b      	str	r3, [r7, #16]
        temp &= ~(iocurrent);
 8000e3a:	68fb      	ldr	r3, [r7, #12]
 8000e3c:	43db      	mvns	r3, r3
 8000e3e:	693a      	ldr	r2, [r7, #16]
 8000e40:	4013      	ands	r3, r2
 8000e42:	613b      	str	r3, [r7, #16]
        if((GPIO_Init->Mode & FALLING_EDGE) == FALLING_EDGE)
 8000e44:	683b      	ldr	r3, [r7, #0]
 8000e46:	685b      	ldr	r3, [r3, #4]
 8000e48:	f403 1300 	and.w	r3, r3, #2097152	; 0x200000
 8000e4c:	2b00      	cmp	r3, #0
 8000e4e:	d003      	beq.n	8000e58 <HAL_GPIO_Init+0x304>
        {
          temp |= iocurrent;
 8000e50:	693a      	ldr	r2, [r7, #16]
 8000e52:	68fb      	ldr	r3, [r7, #12]
 8000e54:	4313      	orrs	r3, r2
 8000e56:	613b      	str	r3, [r7, #16]
        }
        EXTI->FTSR1 = temp;
 8000e58:	4a11      	ldr	r2, [pc, #68]	; (8000ea0 <HAL_GPIO_Init+0x34c>)
 8000e5a:	693b      	ldr	r3, [r7, #16]
 8000e5c:	60d3      	str	r3, [r2, #12]
      }
    }

    position++;
 8000e5e:	697b      	ldr	r3, [r7, #20]
 8000e60:	3301      	adds	r3, #1
 8000e62:	617b      	str	r3, [r7, #20]
  while (((GPIO_Init->Pin) >> position) != 0x00u)
 8000e64:	683b      	ldr	r3, [r7, #0]
 8000e66:	681a      	ldr	r2, [r3, #0]
 8000e68:	697b      	ldr	r3, [r7, #20]
 8000e6a:	fa22 f303 	lsr.w	r3, r2, r3
 8000e6e:	2b00      	cmp	r3, #0
 8000e70:	f47f ae78 	bne.w	8000b64 <HAL_GPIO_Init+0x10>
  }
}
 8000e74:	bf00      	nop
 8000e76:	371c      	adds	r7, #28
 8000e78:	46bd      	mov	sp, r7
 8000e7a:	f85d 7b04 	ldr.w	r7, [sp], #4
 8000e7e:	4770      	bx	lr
 8000e80:	40021000 	.word	0x40021000
 8000e84:	40010000 	.word	0x40010000
 8000e88:	48000400 	.word	0x48000400
 8000e8c:	48000800 	.word	0x48000800
 8000e90:	48000c00 	.word	0x48000c00
 8000e94:	48001000 	.word	0x48001000
 8000e98:	48001400 	.word	0x48001400
 8000e9c:	48001800 	.word	0x48001800
 8000ea0:	40010400 	.word	0x40010400

08000ea4 <HAL_GPIO_WritePin>:
  *            @arg GPIO_PIN_RESET: to clear the port pin
  *            @arg GPIO_PIN_SET: to set the port pin
  * @retval None
  */
void HAL_GPIO_WritePin(GPIO_TypeDef* GPIOx, uint16_t GPIO_Pin, GPIO_PinState PinState)
{
 8000ea4:	b480      	push	{r7}
 8000ea6:	b083      	sub	sp, #12
 8000ea8:	af00      	add	r7, sp, #0
 8000eaa:	6078      	str	r0, [r7, #4]
 8000eac:	460b      	mov	r3, r1
 8000eae:	807b      	strh	r3, [r7, #2]
 8000eb0:	4613      	mov	r3, r2
 8000eb2:	707b      	strb	r3, [r7, #1]
  /* Check the parameters */
  assert_param(IS_GPIO_PIN(GPIO_Pin));
  assert_param(IS_GPIO_PIN_ACTION(PinState));

  if(PinState != GPIO_PIN_RESET)
 8000eb4:	787b      	ldrb	r3, [r7, #1]
 8000eb6:	2b00      	cmp	r3, #0
 8000eb8:	d003      	beq.n	8000ec2 <HAL_GPIO_WritePin+0x1e>
  {
    GPIOx->BSRR = (uint32_t)GPIO_Pin;
 8000eba:	887a      	ldrh	r2, [r7, #2]
 8000ebc:	687b      	ldr	r3, [r7, #4]
 8000ebe:	619a      	str	r2, [r3, #24]
  }
  else
  {
    GPIOx->BRR = (uint32_t)GPIO_Pin;
  }
}
 8000ec0:	e002      	b.n	8000ec8 <HAL_GPIO_WritePin+0x24>
    GPIOx->BRR = (uint32_t)GPIO_Pin;
 8000ec2:	887a      	ldrh	r2, [r7, #2]
 8000ec4:	687b      	ldr	r3, [r7, #4]
 8000ec6:	629a      	str	r2, [r3, #40]	; 0x28
}
 8000ec8:	bf00      	nop
 8000eca:	370c      	adds	r7, #12
 8000ecc:	46bd      	mov	sp, r7
 8000ece:	f85d 7b04 	ldr.w	r7, [sp], #4
 8000ed2:	4770      	bx	lr

08000ed4 <HAL_PWREx_GetVoltageRange>:
  * @brief Return Voltage Scaling Range.
  * @retval VOS bit field (PWR_REGULATOR_VOLTAGE_SCALE1 or PWR_REGULATOR_VOLTAGE_SCALE2
  *         or PWR_REGULATOR_VOLTAGE_SCALE1_BOOST when applicable)
  */
uint32_t HAL_PWREx_GetVoltageRange(void)
{
 8000ed4:	b480      	push	{r7}
 8000ed6:	af00      	add	r7, sp, #0
    else
    {
      return PWR_REGULATOR_VOLTAGE_SCALE1_BOOST;
    }
#else
  return  (PWR->CR1 & PWR_CR1_VOS);
 8000ed8:	4b04      	ldr	r3, [pc, #16]	; (8000eec <HAL_PWREx_GetVoltageRange+0x18>)
 8000eda:	681b      	ldr	r3, [r3, #0]
 8000edc:	f403 63c0 	and.w	r3, r3, #1536	; 0x600
#endif
}
 8000ee0:	4618      	mov	r0, r3
 8000ee2:	46bd      	mov	sp, r7
 8000ee4:	f85d 7b04 	ldr.w	r7, [sp], #4
 8000ee8:	4770      	bx	lr
 8000eea:	bf00      	nop
 8000eec:	40007000 	.word	0x40007000

08000ef0 <HAL_PWREx_ControlVoltageScaling>:
  *        cleared before returning the status. If the flag is not cleared within
  *        50 microseconds, HAL_TIMEOUT status is reported.
  * @retval HAL Status
  */
HAL_StatusTypeDef HAL_PWREx_ControlVoltageScaling(uint32_t VoltageScaling)
{
 8000ef0:	b480      	push	{r7}
 8000ef2:	b085      	sub	sp, #20
 8000ef4:	af00      	add	r7, sp, #0
 8000ef6:	6078      	str	r0, [r7, #4]
  }

#else

  /* If Set Range 1 */
  if (VoltageScaling == PWR_REGULATOR_VOLTAGE_SCALE1)
 8000ef8:	687b      	ldr	r3, [r7, #4]
 8000efa:	f5b3 7f00 	cmp.w	r3, #512	; 0x200
 8000efe:	d130      	bne.n	8000f62 <HAL_PWREx_ControlVoltageScaling+0x72>
  {
    if (READ_BIT(PWR->CR1, PWR_CR1_VOS) != PWR_REGULATOR_VOLTAGE_SCALE1)
 8000f00:	4b23      	ldr	r3, [pc, #140]	; (8000f90 <HAL_PWREx_ControlVoltageScaling+0xa0>)
 8000f02:	681b      	ldr	r3, [r3, #0]
 8000f04:	f403 63c0 	and.w	r3, r3, #1536	; 0x600
 8000f08:	f5b3 7f00 	cmp.w	r3, #512	; 0x200
 8000f0c:	d038      	beq.n	8000f80 <HAL_PWREx_ControlVoltageScaling+0x90>
    {
      /* Set Range 1 */
      MODIFY_REG(PWR->CR1, PWR_CR1_VOS, PWR_REGULATOR_VOLTAGE_SCALE1);
 8000f0e:	4b20      	ldr	r3, [pc, #128]	; (8000f90 <HAL_PWREx_ControlVoltageScaling+0xa0>)
 8000f10:	681b      	ldr	r3, [r3, #0]
 8000f12:	f423 63c0 	bic.w	r3, r3, #1536	; 0x600
 8000f16:	4a1e      	ldr	r2, [pc, #120]	; (8000f90 <HAL_PWREx_ControlVoltageScaling+0xa0>)
 8000f18:	f443 7300 	orr.w	r3, r3, #512	; 0x200
 8000f1c:	6013      	str	r3, [r2, #0]

      /* Wait until VOSF is cleared */
      wait_loop_index = ((PWR_FLAG_SETTING_DELAY_US * SystemCoreClock) / 1000000U) + 1U;
 8000f1e:	4b1d      	ldr	r3, [pc, #116]	; (8000f94 <HAL_PWREx_ControlVoltageScaling+0xa4>)
 8000f20:	681b      	ldr	r3, [r3, #0]
 8000f22:	2232      	movs	r2, #50	; 0x32
 8000f24:	fb02 f303 	mul.w	r3, r2, r3
 8000f28:	4a1b      	ldr	r2, [pc, #108]	; (8000f98 <HAL_PWREx_ControlVoltageScaling+0xa8>)
 8000f2a:	fba2 2303 	umull	r2, r3, r2, r3
 8000f2e:	0c9b      	lsrs	r3, r3, #18
 8000f30:	3301      	adds	r3, #1
 8000f32:	60fb      	str	r3, [r7, #12]
      while ((HAL_IS_BIT_SET(PWR->SR2, PWR_SR2_VOSF)) && (wait_loop_index != 0U))
 8000f34:	e002      	b.n	8000f3c <HAL_PWREx_ControlVoltageScaling+0x4c>
      {
        wait_loop_index--;
 8000f36:	68fb      	ldr	r3, [r7, #12]
 8000f38:	3b01      	subs	r3, #1
 8000f3a:	60fb      	str	r3, [r7, #12]
      while ((HAL_IS_BIT_SET(PWR->SR2, PWR_SR2_VOSF)) && (wait_loop_index != 0U))
 8000f3c:	4b14      	ldr	r3, [pc, #80]	; (8000f90 <HAL_PWREx_ControlVoltageScaling+0xa0>)
 8000f3e:	695b      	ldr	r3, [r3, #20]
 8000f40:	f403 6380 	and.w	r3, r3, #1024	; 0x400
 8000f44:	f5b3 6f80 	cmp.w	r3, #1024	; 0x400
 8000f48:	d102      	bne.n	8000f50 <HAL_PWREx_ControlVoltageScaling+0x60>
 8000f4a:	68fb      	ldr	r3, [r7, #12]
 8000f4c:	2b00      	cmp	r3, #0
 8000f4e:	d1f2      	bne.n	8000f36 <HAL_PWREx_ControlVoltageScaling+0x46>
      }
      if (HAL_IS_BIT_SET(PWR->SR2, PWR_SR2_VOSF))
 8000f50:	4b0f      	ldr	r3, [pc, #60]	; (8000f90 <HAL_PWREx_ControlVoltageScaling+0xa0>)
 8000f52:	695b      	ldr	r3, [r3, #20]
 8000f54:	f403 6380 	and.w	r3, r3, #1024	; 0x400
 8000f58:	f5b3 6f80 	cmp.w	r3, #1024	; 0x400
 8000f5c:	d110      	bne.n	8000f80 <HAL_PWREx_ControlVoltageScaling+0x90>
      {
        return HAL_TIMEOUT;
 8000f5e:	2303      	movs	r3, #3
 8000f60:	e00f      	b.n	8000f82 <HAL_PWREx_ControlVoltageScaling+0x92>
      }
    }
  }
  else
  {
    if (READ_BIT(PWR->CR1, PWR_CR1_VOS) != PWR_REGULATOR_VOLTAGE_SCALE2)
 8000f62:	4b0b      	ldr	r3, [pc, #44]	; (8000f90 <HAL_PWREx_ControlVoltageScaling+0xa0>)
 8000f64:	681b      	ldr	r3, [r3, #0]
 8000f66:	f403 63c0 	and.w	r3, r3, #1536	; 0x600
 8000f6a:	f5b3 6f80 	cmp.w	r3, #1024	; 0x400
 8000f6e:	d007      	beq.n	8000f80 <HAL_PWREx_ControlVoltageScaling+0x90>
    {
      /* Set Range 2 */
      MODIFY_REG(PWR->CR1, PWR_CR1_VOS, PWR_REGULATOR_VOLTAGE_SCALE2);
 8000f70:	4b07      	ldr	r3, [pc, #28]	; (8000f90 <HAL_PWREx_ControlVoltageScaling+0xa0>)
 8000f72:	681b      	ldr	r3, [r3, #0]
 8000f74:	f423 63c0 	bic.w	r3, r3, #1536	; 0x600
 8000f78:	4a05      	ldr	r2, [pc, #20]	; (8000f90 <HAL_PWREx_ControlVoltageScaling+0xa0>)
 8000f7a:	f443 6380 	orr.w	r3, r3, #1024	; 0x400
 8000f7e:	6013      	str	r3, [r2, #0]
      /* No need to wait for VOSF to be cleared for this transition */
    }
  }
#endif

  return HAL_OK;
 8000f80:	2300      	movs	r3, #0
}
 8000f82:	4618      	mov	r0, r3
 8000f84:	3714      	adds	r7, #20
 8000f86:	46bd      	mov	sp, r7
 8000f88:	f85d 7b04 	ldr.w	r7, [sp], #4
 8000f8c:	4770      	bx	lr
 8000f8e:	bf00      	nop
 8000f90:	40007000 	.word	0x40007000
 8000f94:	20000000 	.word	0x20000000
 8000f98:	431bde83 	.word	0x431bde83

08000f9c <HAL_RCC_OscConfig>:
  *         supported by this macro. User should request a transition to HSE Off
  *         first and then HSE On or HSE Bypass.
  * @retval HAL status
  */
HAL_StatusTypeDef HAL_RCC_OscConfig(RCC_OscInitTypeDef  *RCC_OscInitStruct)
{
 8000f9c:	b580      	push	{r7, lr}
 8000f9e:	b088      	sub	sp, #32
 8000fa0:	af00      	add	r7, sp, #0
 8000fa2:	6078      	str	r0, [r7, #4]
  uint32_t tickstart;
  HAL_StatusTypeDef status;
  uint32_t sysclk_source, pll_config;

  /* Check Null pointer */
  if(RCC_OscInitStruct == NULL)
 8000fa4:	687b      	ldr	r3, [r7, #4]
 8000fa6:	2b00      	cmp	r3, #0
 8000fa8:	d101      	bne.n	8000fae <HAL_RCC_OscConfig+0x12>
  {
    return HAL_ERROR;
 8000faa:	2301      	movs	r3, #1
 8000fac:	e3d4      	b.n	8001758 <HAL_RCC_OscConfig+0x7bc>
  }

  /* Check the parameters */
  assert_param(IS_RCC_OSCILLATORTYPE(RCC_OscInitStruct->OscillatorType));

  sysclk_source = __HAL_RCC_GET_SYSCLK_SOURCE();
 8000fae:	4ba1      	ldr	r3, [pc, #644]	; (8001234 <HAL_RCC_OscConfig+0x298>)
 8000fb0:	689b      	ldr	r3, [r3, #8]
 8000fb2:	f003 030c 	and.w	r3, r3, #12
 8000fb6:	61bb      	str	r3, [r7, #24]
  pll_config = __HAL_RCC_GET_PLL_OSCSOURCE();
 8000fb8:	4b9e      	ldr	r3, [pc, #632]	; (8001234 <HAL_RCC_OscConfig+0x298>)
 8000fba:	68db      	ldr	r3, [r3, #12]
 8000fbc:	f003 0303 	and.w	r3, r3, #3
 8000fc0:	617b      	str	r3, [r7, #20]

  /*----------------------------- MSI Configuration --------------------------*/
  if(((RCC_OscInitStruct->OscillatorType) & RCC_OSCILLATORTYPE_MSI) == RCC_OSCILLATORTYPE_MSI)
 8000fc2:	687b      	ldr	r3, [r7, #4]
 8000fc4:	681b      	ldr	r3, [r3, #0]
 8000fc6:	f003 0310 	and.w	r3, r3, #16
 8000fca:	2b00      	cmp	r3, #0
 8000fcc:	f000 80e4 	beq.w	8001198 <HAL_RCC_OscConfig+0x1fc>
    assert_param(IS_RCC_MSI(RCC_OscInitStruct->MSIState));
    assert_param(IS_RCC_MSICALIBRATION_VALUE(RCC_OscInitStruct->MSICalibrationValue));
    assert_param(IS_RCC_MSI_CLOCK_RANGE(RCC_OscInitStruct->MSIClockRange));

    /* Check if MSI is used as system clock or as PLL source when PLL is selected as system clock */
    if((sysclk_source == RCC_CFGR_SWS_MSI) ||
 8000fd0:	69bb      	ldr	r3, [r7, #24]
 8000fd2:	2b00      	cmp	r3, #0
 8000fd4:	d007      	beq.n	8000fe6 <HAL_RCC_OscConfig+0x4a>
 8000fd6:	69bb      	ldr	r3, [r7, #24]
 8000fd8:	2b0c      	cmp	r3, #12
 8000fda:	f040 808b 	bne.w	80010f4 <HAL_RCC_OscConfig+0x158>
       ((sysclk_source == RCC_CFGR_SWS_PLL) && (pll_config == RCC_PLLSOURCE_MSI)))
 8000fde:	697b      	ldr	r3, [r7, #20]
 8000fe0:	2b01      	cmp	r3, #1
 8000fe2:	f040 8087 	bne.w	80010f4 <HAL_RCC_OscConfig+0x158>
    {
      if((READ_BIT(RCC->CR, RCC_CR_MSIRDY) != 0U) && (RCC_OscInitStruct->MSIState == RCC_MSI_OFF))
 8000fe6:	4b93      	ldr	r3, [pc, #588]	; (8001234 <HAL_RCC_OscConfig+0x298>)
 8000fe8:	681b      	ldr	r3, [r3, #0]
 8000fea:	f003 0302 	and.w	r3, r3, #2
 8000fee:	2b00      	cmp	r3, #0
 8000ff0:	d005      	beq.n	8000ffe <HAL_RCC_OscConfig+0x62>
 8000ff2:	687b      	ldr	r3, [r7, #4]
 8000ff4:	699b      	ldr	r3, [r3, #24]
 8000ff6:	2b00      	cmp	r3, #0
 8000ff8:	d101      	bne.n	8000ffe <HAL_RCC_OscConfig+0x62>
      {
        return HAL_ERROR;
 8000ffa:	2301      	movs	r3, #1
 8000ffc:	e3ac      	b.n	8001758 <HAL_RCC_OscConfig+0x7bc>
      else
      {
        /* To correctly read data from FLASH memory, the number of wait states (LATENCY)
           must be correctly programmed according to the frequency of the CPU clock
           (HCLK) and the supply voltage of the device. */
        if(RCC_OscInitStruct->MSIClockRange > __HAL_RCC_GET_MSI_RANGE())
 8000ffe:	687b      	ldr	r3, [r7, #4]
 8001000:	6a1a      	ldr	r2, [r3, #32]
 8001002:	4b8c      	ldr	r3, [pc, #560]	; (8001234 <HAL_RCC_OscConfig+0x298>)
 8001004:	681b      	ldr	r3, [r3, #0]
 8001006:	f003 0308 	and.w	r3, r3, #8
 800100a:	2b00      	cmp	r3, #0
 800100c:	d004      	beq.n	8001018 <HAL_RCC_OscConfig+0x7c>
 800100e:	4b89      	ldr	r3, [pc, #548]	; (8001234 <HAL_RCC_OscConfig+0x298>)
 8001010:	681b      	ldr	r3, [r3, #0]
 8001012:	f003 03f0 	and.w	r3, r3, #240	; 0xf0
 8001016:	e005      	b.n	8001024 <HAL_RCC_OscConfig+0x88>
 8001018:	4b86      	ldr	r3, [pc, #536]	; (8001234 <HAL_RCC_OscConfig+0x298>)
 800101a:	f8d3 3094 	ldr.w	r3, [r3, #148]	; 0x94
 800101e:	091b      	lsrs	r3, r3, #4
 8001020:	f003 03f0 	and.w	r3, r3, #240	; 0xf0
 8001024:	4293      	cmp	r3, r2
 8001026:	d223      	bcs.n	8001070 <HAL_RCC_OscConfig+0xd4>
        {
          /* First increase number of wait states update if necessary */
          if(RCC_SetFlashLatencyFromMSIRange(RCC_OscInitStruct->MSIClockRange) != HAL_OK)
 8001028:	687b      	ldr	r3, [r7, #4]
 800102a:	6a1b      	ldr	r3, [r3, #32]
 800102c:	4618      	mov	r0, r3
 800102e:	f000 fd3f 	bl	8001ab0 <RCC_SetFlashLatencyFromMSIRange>
 8001032:	4603      	mov	r3, r0
 8001034:	2b00      	cmp	r3, #0
 8001036:	d001      	beq.n	800103c <HAL_RCC_OscConfig+0xa0>
          {
            return HAL_ERROR;
 8001038:	2301      	movs	r3, #1
 800103a:	e38d      	b.n	8001758 <HAL_RCC_OscConfig+0x7bc>
          }

          /* Selects the Multiple Speed oscillator (MSI) clock range .*/
          __HAL_RCC_MSI_RANGE_CONFIG(RCC_OscInitStruct->MSIClockRange);
 800103c:	4b7d      	ldr	r3, [pc, #500]	; (8001234 <HAL_RCC_OscConfig+0x298>)
 800103e:	681b      	ldr	r3, [r3, #0]
 8001040:	4a7c      	ldr	r2, [pc, #496]	; (8001234 <HAL_RCC_OscConfig+0x298>)
 8001042:	f043 0308 	orr.w	r3, r3, #8
 8001046:	6013      	str	r3, [r2, #0]
 8001048:	4b7a      	ldr	r3, [pc, #488]	; (8001234 <HAL_RCC_OscConfig+0x298>)
 800104a:	681b      	ldr	r3, [r3, #0]
 800104c:	f023 02f0 	bic.w	r2, r3, #240	; 0xf0
 8001050:	687b      	ldr	r3, [r7, #4]
 8001052:	6a1b      	ldr	r3, [r3, #32]
 8001054:	4977      	ldr	r1, [pc, #476]	; (8001234 <HAL_RCC_OscConfig+0x298>)
 8001056:	4313      	orrs	r3, r2
 8001058:	600b      	str	r3, [r1, #0]
          /* Adjusts the Multiple Speed oscillator (MSI) calibration value.*/
          __HAL_RCC_MSI_CALIBRATIONVALUE_ADJUST(RCC_OscInitStruct->MSICalibrationValue);
 800105a:	4b76      	ldr	r3, [pc, #472]	; (8001234 <HAL_RCC_OscConfig+0x298>)
 800105c:	685b      	ldr	r3, [r3, #4]
 800105e:	f423 427f 	bic.w	r2, r3, #65280	; 0xff00
 8001062:	687b      	ldr	r3, [r7, #4]
 8001064:	69db      	ldr	r3, [r3, #28]
 8001066:	021b      	lsls	r3, r3, #8
 8001068:	4972      	ldr	r1, [pc, #456]	; (8001234 <HAL_RCC_OscConfig+0x298>)
 800106a:	4313      	orrs	r3, r2
 800106c:	604b      	str	r3, [r1, #4]
 800106e:	e025      	b.n	80010bc <HAL_RCC_OscConfig+0x120>
        }
        else
        {
          /* Else, keep current flash latency while decreasing applies */
          /* Selects the Multiple Speed oscillator (MSI) clock range .*/
          __HAL_RCC_MSI_RANGE_CONFIG(RCC_OscInitStruct->MSIClockRange);
 8001070:	4b70      	ldr	r3, [pc, #448]	; (8001234 <HAL_RCC_OscConfig+0x298>)
 8001072:	681b      	ldr	r3, [r3, #0]
 8001074:	4a6f      	ldr	r2, [pc, #444]	; (8001234 <HAL_RCC_OscConfig+0x298>)
 8001076:	f043 0308 	orr.w	r3, r3, #8
 800107a:	6013      	str	r3, [r2, #0]
 800107c:	4b6d      	ldr	r3, [pc, #436]	; (8001234 <HAL_RCC_OscConfig+0x298>)
 800107e:	681b      	ldr	r3, [r3, #0]
 8001080:	f023 02f0 	bic.w	r2, r3, #240	; 0xf0
 8001084:	687b      	ldr	r3, [r7, #4]
 8001086:	6a1b      	ldr	r3, [r3, #32]
 8001088:	496a      	ldr	r1, [pc, #424]	; (8001234 <HAL_RCC_OscConfig+0x298>)
 800108a:	4313      	orrs	r3, r2
 800108c:	600b      	str	r3, [r1, #0]
          /* Adjusts the Multiple Speed oscillator (MSI) calibration value.*/
          __HAL_RCC_MSI_CALIBRATIONVALUE_ADJUST(RCC_OscInitStruct->MSICalibrationValue);
 800108e:	4b69      	ldr	r3, [pc, #420]	; (8001234 <HAL_RCC_OscConfig+0x298>)
 8001090:	685b      	ldr	r3, [r3, #4]
 8001092:	f423 427f 	bic.w	r2, r3, #65280	; 0xff00
 8001096:	687b      	ldr	r3, [r7, #4]
 8001098:	69db      	ldr	r3, [r3, #28]
 800109a:	021b      	lsls	r3, r3, #8
 800109c:	4965      	ldr	r1, [pc, #404]	; (8001234 <HAL_RCC_OscConfig+0x298>)
 800109e:	4313      	orrs	r3, r2
 80010a0:	604b      	str	r3, [r1, #4]

          /* Decrease number of wait states update if necessary */
          /* Only possible when MSI is the System clock source  */
          if(sysclk_source == RCC_CFGR_SWS_MSI)
 80010a2:	69bb      	ldr	r3, [r7, #24]
 80010a4:	2b00      	cmp	r3, #0
 80010a6:	d109      	bne.n	80010bc <HAL_RCC_OscConfig+0x120>
          {
            if(RCC_SetFlashLatencyFromMSIRange(RCC_OscInitStruct->MSIClockRange) != HAL_OK)
 80010a8:	687b      	ldr	r3, [r7, #4]
 80010aa:	6a1b      	ldr	r3, [r3, #32]
 80010ac:	4618      	mov	r0, r3
 80010ae:	f000 fcff 	bl	8001ab0 <RCC_SetFlashLatencyFromMSIRange>
 80010b2:	4603      	mov	r3, r0
 80010b4:	2b00      	cmp	r3, #0
 80010b6:	d001      	beq.n	80010bc <HAL_RCC_OscConfig+0x120>
            {
              return HAL_ERROR;
 80010b8:	2301      	movs	r3, #1
 80010ba:	e34d      	b.n	8001758 <HAL_RCC_OscConfig+0x7bc>
            }
          }
        }

        /* Update the SystemCoreClock global variable */
        SystemCoreClock = HAL_RCC_GetSysClockFreq() >> (AHBPrescTable[READ_BIT(RCC->CFGR, RCC_CFGR_HPRE) >> RCC_CFGR_HPRE_Pos] & 0x1FU);
 80010bc:	f000 fc36 	bl	800192c <HAL_RCC_GetSysClockFreq>
 80010c0:	4601      	mov	r1, r0
 80010c2:	4b5c      	ldr	r3, [pc, #368]	; (8001234 <HAL_RCC_OscConfig+0x298>)
 80010c4:	689b      	ldr	r3, [r3, #8]
 80010c6:	091b      	lsrs	r3, r3, #4
 80010c8:	f003 030f 	and.w	r3, r3, #15
 80010cc:	4a5a      	ldr	r2, [pc, #360]	; (8001238 <HAL_RCC_OscConfig+0x29c>)
 80010ce:	5cd3      	ldrb	r3, [r2, r3]
 80010d0:	f003 031f 	and.w	r3, r3, #31
 80010d4:	fa21 f303 	lsr.w	r3, r1, r3
 80010d8:	4a58      	ldr	r2, [pc, #352]	; (800123c <HAL_RCC_OscConfig+0x2a0>)
 80010da:	6013      	str	r3, [r2, #0]

        /* Configure the source of time base considering new system clocks settings*/
        status = HAL_InitTick(uwTickPrio);
 80010dc:	4b58      	ldr	r3, [pc, #352]	; (8001240 <HAL_RCC_OscConfig+0x2a4>)
 80010de:	681b      	ldr	r3, [r3, #0]
 80010e0:	4618      	mov	r0, r3
 80010e2:	f7ff fbf5 	bl	80008d0 <HAL_InitTick>
 80010e6:	4603      	mov	r3, r0
 80010e8:	73fb      	strb	r3, [r7, #15]
        if(status != HAL_OK)
 80010ea:	7bfb      	ldrb	r3, [r7, #15]
 80010ec:	2b00      	cmp	r3, #0
 80010ee:	d052      	beq.n	8001196 <HAL_RCC_OscConfig+0x1fa>
        {
          return status;
 80010f0:	7bfb      	ldrb	r3, [r7, #15]
 80010f2:	e331      	b.n	8001758 <HAL_RCC_OscConfig+0x7bc>
      }
    }
    else
    {
      /* Check the MSI State */
      if(RCC_OscInitStruct->MSIState != RCC_MSI_OFF)
 80010f4:	687b      	ldr	r3, [r7, #4]
 80010f6:	699b      	ldr	r3, [r3, #24]
 80010f8:	2b00      	cmp	r3, #0
 80010fa:	d032      	beq.n	8001162 <HAL_RCC_OscConfig+0x1c6>
      {
        /* Enable the Internal High Speed oscillator (MSI). */
        __HAL_RCC_MSI_ENABLE();
 80010fc:	4b4d      	ldr	r3, [pc, #308]	; (8001234 <HAL_RCC_OscConfig+0x298>)
 80010fe:	681b      	ldr	r3, [r3, #0]
 8001100:	4a4c      	ldr	r2, [pc, #304]	; (8001234 <HAL_RCC_OscConfig+0x298>)
 8001102:	f043 0301 	orr.w	r3, r3, #1
 8001106:	6013      	str	r3, [r2, #0]

        /* Get timeout */
        tickstart = HAL_GetTick();
 8001108:	f7ff fc32 	bl	8000970 <HAL_GetTick>
 800110c:	6138      	str	r0, [r7, #16]

        /* Wait till MSI is ready */
        while(READ_BIT(RCC->CR, RCC_CR_MSIRDY) == 0U)
 800110e:	e008      	b.n	8001122 <HAL_RCC_OscConfig+0x186>
        {
          if((HAL_GetTick() - tickstart) > MSI_TIMEOUT_VALUE)
 8001110:	f7ff fc2e 	bl	8000970 <HAL_GetTick>
 8001114:	4602      	mov	r2, r0
 8001116:	693b      	ldr	r3, [r7, #16]
 8001118:	1ad3      	subs	r3, r2, r3
 800111a:	2b02      	cmp	r3, #2
 800111c:	d901      	bls.n	8001122 <HAL_RCC_OscConfig+0x186>
          {
            return HAL_TIMEOUT;
 800111e:	2303      	movs	r3, #3
 8001120:	e31a      	b.n	8001758 <HAL_RCC_OscConfig+0x7bc>
        while(READ_BIT(RCC->CR, RCC_CR_MSIRDY) == 0U)
 8001122:	4b44      	ldr	r3, [pc, #272]	; (8001234 <HAL_RCC_OscConfig+0x298>)
 8001124:	681b      	ldr	r3, [r3, #0]
 8001126:	f003 0302 	and.w	r3, r3, #2
 800112a:	2b00      	cmp	r3, #0
 800112c:	d0f0      	beq.n	8001110 <HAL_RCC_OscConfig+0x174>
          }
        }
         /* Selects the Multiple Speed oscillator (MSI) clock range .*/
        __HAL_RCC_MSI_RANGE_CONFIG(RCC_OscInitStruct->MSIClockRange);
 800112e:	4b41      	ldr	r3, [pc, #260]	; (8001234 <HAL_RCC_OscConfig+0x298>)
 8001130:	681b      	ldr	r3, [r3, #0]
 8001132:	4a40      	ldr	r2, [pc, #256]	; (8001234 <HAL_RCC_OscConfig+0x298>)
 8001134:	f043 0308 	orr.w	r3, r3, #8
 8001138:	6013      	str	r3, [r2, #0]
 800113a:	4b3e      	ldr	r3, [pc, #248]	; (8001234 <HAL_RCC_OscConfig+0x298>)
 800113c:	681b      	ldr	r3, [r3, #0]
 800113e:	f023 02f0 	bic.w	r2, r3, #240	; 0xf0
 8001142:	687b      	ldr	r3, [r7, #4]
 8001144:	6a1b      	ldr	r3, [r3, #32]
 8001146:	493b      	ldr	r1, [pc, #236]	; (8001234 <HAL_RCC_OscConfig+0x298>)
 8001148:	4313      	orrs	r3, r2
 800114a:	600b      	str	r3, [r1, #0]
         /* Adjusts the Multiple Speed oscillator (MSI) calibration value.*/
        __HAL_RCC_MSI_CALIBRATIONVALUE_ADJUST(RCC_OscInitStruct->MSICalibrationValue);
 800114c:	4b39      	ldr	r3, [pc, #228]	; (8001234 <HAL_RCC_OscConfig+0x298>)
 800114e:	685b      	ldr	r3, [r3, #4]
 8001150:	f423 427f 	bic.w	r2, r3, #65280	; 0xff00
 8001154:	687b      	ldr	r3, [r7, #4]
 8001156:	69db      	ldr	r3, [r3, #28]
 8001158:	021b      	lsls	r3, r3, #8
 800115a:	4936      	ldr	r1, [pc, #216]	; (8001234 <HAL_RCC_OscConfig+0x298>)
 800115c:	4313      	orrs	r3, r2
 800115e:	604b      	str	r3, [r1, #4]
 8001160:	e01a      	b.n	8001198 <HAL_RCC_OscConfig+0x1fc>

      }
      else
      {
        /* Disable the Internal High Speed oscillator (MSI). */
        __HAL_RCC_MSI_DISABLE();
 8001162:	4b34      	ldr	r3, [pc, #208]	; (8001234 <HAL_RCC_OscConfig+0x298>)
 8001164:	681b      	ldr	r3, [r3, #0]
 8001166:	4a33      	ldr	r2, [pc, #204]	; (8001234 <HAL_RCC_OscConfig+0x298>)
 8001168:	f023 0301 	bic.w	r3, r3, #1
 800116c:	6013      	str	r3, [r2, #0]

        /* Get timeout */
        tickstart = HAL_GetTick();
 800116e:	f7ff fbff 	bl	8000970 <HAL_GetTick>
 8001172:	6138      	str	r0, [r7, #16]

        /* Wait till MSI is ready */
        while(READ_BIT(RCC->CR, RCC_CR_MSIRDY) != 0U)
 8001174:	e008      	b.n	8001188 <HAL_RCC_OscConfig+0x1ec>
        {
          if((HAL_GetTick() - tickstart) > MSI_TIMEOUT_VALUE)
 8001176:	f7ff fbfb 	bl	8000970 <HAL_GetTick>
 800117a:	4602      	mov	r2, r0
 800117c:	693b      	ldr	r3, [r7, #16]
 800117e:	1ad3      	subs	r3, r2, r3
 8001180:	2b02      	cmp	r3, #2
 8001182:	d901      	bls.n	8001188 <HAL_RCC_OscConfig+0x1ec>
          {
            return HAL_TIMEOUT;
 8001184:	2303      	movs	r3, #3
 8001186:	e2e7      	b.n	8001758 <HAL_RCC_OscConfig+0x7bc>
        while(READ_BIT(RCC->CR, RCC_CR_MSIRDY) != 0U)
 8001188:	4b2a      	ldr	r3, [pc, #168]	; (8001234 <HAL_RCC_OscConfig+0x298>)
 800118a:	681b      	ldr	r3, [r3, #0]
 800118c:	f003 0302 	and.w	r3, r3, #2
 8001190:	2b00      	cmp	r3, #0
 8001192:	d1f0      	bne.n	8001176 <HAL_RCC_OscConfig+0x1da>
 8001194:	e000      	b.n	8001198 <HAL_RCC_OscConfig+0x1fc>
      if((READ_BIT(RCC->CR, RCC_CR_MSIRDY) != 0U) && (RCC_OscInitStruct->MSIState == RCC_MSI_OFF))
 8001196:	bf00      	nop
        }
      }
    }
  }
  /*------------------------------- HSE Configuration ------------------------*/
  if(((RCC_OscInitStruct->OscillatorType) & RCC_OSCILLATORTYPE_HSE) == RCC_OSCILLATORTYPE_HSE)
 8001198:	687b      	ldr	r3, [r7, #4]
 800119a:	681b      	ldr	r3, [r3, #0]
 800119c:	f003 0301 	and.w	r3, r3, #1
 80011a0:	2b00      	cmp	r3, #0
 80011a2:	d074      	beq.n	800128e <HAL_RCC_OscConfig+0x2f2>
  {
    /* Check the parameters */
    assert_param(IS_RCC_HSE(RCC_OscInitStruct->HSEState));

    /* When the HSE is used as system clock or clock source for PLL in these cases it is not allowed to be disabled */
    if((sysclk_source == RCC_CFGR_SWS_HSE) ||
 80011a4:	69bb      	ldr	r3, [r7, #24]
 80011a6:	2b08      	cmp	r3, #8
 80011a8:	d005      	beq.n	80011b6 <HAL_RCC_OscConfig+0x21a>
 80011aa:	69bb      	ldr	r3, [r7, #24]
 80011ac:	2b0c      	cmp	r3, #12
 80011ae:	d10e      	bne.n	80011ce <HAL_RCC_OscConfig+0x232>
       ((sysclk_source == RCC_CFGR_SWS_PLL) && (pll_config == RCC_PLLSOURCE_HSE)))
 80011b0:	697b      	ldr	r3, [r7, #20]
 80011b2:	2b03      	cmp	r3, #3
 80011b4:	d10b      	bne.n	80011ce <HAL_RCC_OscConfig+0x232>
    {
      if((READ_BIT(RCC->CR, RCC_CR_HSERDY) != 0U) && (RCC_OscInitStruct->HSEState == RCC_HSE_OFF))
 80011b6:	4b1f      	ldr	r3, [pc, #124]	; (8001234 <HAL_RCC_OscConfig+0x298>)
 80011b8:	681b      	ldr	r3, [r3, #0]
 80011ba:	f403 3300 	and.w	r3, r3, #131072	; 0x20000
 80011be:	2b00      	cmp	r3, #0
 80011c0:	d064      	beq.n	800128c <HAL_RCC_OscConfig+0x2f0>
 80011c2:	687b      	ldr	r3, [r7, #4]
 80011c4:	685b      	ldr	r3, [r3, #4]
 80011c6:	2b00      	cmp	r3, #0
 80011c8:	d160      	bne.n	800128c <HAL_RCC_OscConfig+0x2f0>
      {
        return HAL_ERROR;
 80011ca:	2301      	movs	r3, #1
 80011cc:	e2c4      	b.n	8001758 <HAL_RCC_OscConfig+0x7bc>
      }
    }
    else
    {
      /* Set the new HSE configuration ---------------------------------------*/
      __HAL_RCC_HSE_CONFIG(RCC_OscInitStruct->HSEState);
 80011ce:	687b      	ldr	r3, [r7, #4]
 80011d0:	685b      	ldr	r3, [r3, #4]
 80011d2:	f5b3 3f80 	cmp.w	r3, #65536	; 0x10000
 80011d6:	d106      	bne.n	80011e6 <HAL_RCC_OscConfig+0x24a>
 80011d8:	4b16      	ldr	r3, [pc, #88]	; (8001234 <HAL_RCC_OscConfig+0x298>)
 80011da:	681b      	ldr	r3, [r3, #0]
 80011dc:	4a15      	ldr	r2, [pc, #84]	; (8001234 <HAL_RCC_OscConfig+0x298>)
 80011de:	f443 3380 	orr.w	r3, r3, #65536	; 0x10000
 80011e2:	6013      	str	r3, [r2, #0]
 80011e4:	e01d      	b.n	8001222 <HAL_RCC_OscConfig+0x286>
 80011e6:	687b      	ldr	r3, [r7, #4]
 80011e8:	685b      	ldr	r3, [r3, #4]
 80011ea:	f5b3 2fa0 	cmp.w	r3, #327680	; 0x50000
 80011ee:	d10c      	bne.n	800120a <HAL_RCC_OscConfig+0x26e>
 80011f0:	4b10      	ldr	r3, [pc, #64]	; (8001234 <HAL_RCC_OscConfig+0x298>)
 80011f2:	681b      	ldr	r3, [r3, #0]
 80011f4:	4a0f      	ldr	r2, [pc, #60]	; (8001234 <HAL_RCC_OscConfig+0x298>)
 80011f6:	f443 2380 	orr.w	r3, r3, #262144	; 0x40000
 80011fa:	6013      	str	r3, [r2, #0]
 80011fc:	4b0d      	ldr	r3, [pc, #52]	; (8001234 <HAL_RCC_OscConfig+0x298>)
 80011fe:	681b      	ldr	r3, [r3, #0]
 8001200:	4a0c      	ldr	r2, [pc, #48]	; (8001234 <HAL_RCC_OscConfig+0x298>)
 8001202:	f443 3380 	orr.w	r3, r3, #65536	; 0x10000
 8001206:	6013      	str	r3, [r2, #0]
 8001208:	e00b      	b.n	8001222 <HAL_RCC_OscConfig+0x286>
 800120a:	4b0a      	ldr	r3, [pc, #40]	; (8001234 <HAL_RCC_OscConfig+0x298>)
 800120c:	681b      	ldr	r3, [r3, #0]
 800120e:	4a09      	ldr	r2, [pc, #36]	; (8001234 <HAL_RCC_OscConfig+0x298>)
 8001210:	f423 3380 	bic.w	r3, r3, #65536	; 0x10000
 8001214:	6013      	str	r3, [r2, #0]
 8001216:	4b07      	ldr	r3, [pc, #28]	; (8001234 <HAL_RCC_OscConfig+0x298>)
 8001218:	681b      	ldr	r3, [r3, #0]
 800121a:	4a06      	ldr	r2, [pc, #24]	; (8001234 <HAL_RCC_OscConfig+0x298>)
 800121c:	f423 2380 	bic.w	r3, r3, #262144	; 0x40000
 8001220:	6013      	str	r3, [r2, #0]

      /* Check the HSE State */
      if(RCC_OscInitStruct->HSEState != RCC_HSE_OFF)
 8001222:	687b      	ldr	r3, [r7, #4]
 8001224:	685b      	ldr	r3, [r3, #4]
 8001226:	2b00      	cmp	r3, #0
 8001228:	d01c      	beq.n	8001264 <HAL_RCC_OscConfig+0x2c8>
      {
        /* Get Start Tick*/
        tickstart = HAL_GetTick();
 800122a:	f7ff fba1 	bl	8000970 <HAL_GetTick>
 800122e:	6138      	str	r0, [r7, #16]

        /* Wait till HSE is ready */
        while(READ_BIT(RCC->CR, RCC_CR_HSERDY) == 0U)
 8001230:	e011      	b.n	8001256 <HAL_RCC_OscConfig+0x2ba>
 8001232:	bf00      	nop
 8001234:	40021000 	.word	0x40021000
 8001238:	08002db4 	.word	0x08002db4
 800123c:	20000000 	.word	0x20000000
 8001240:	20000004 	.word	0x20000004
        {
          if((HAL_GetTick() - tickstart) > HSE_TIMEOUT_VALUE)
 8001244:	f7ff fb94 	bl	8000970 <HAL_GetTick>
 8001248:	4602      	mov	r2, r0
 800124a:	693b      	ldr	r3, [r7, #16]
 800124c:	1ad3      	subs	r3, r2, r3
 800124e:	2b64      	cmp	r3, #100	; 0x64
 8001250:	d901      	bls.n	8001256 <HAL_RCC_OscConfig+0x2ba>
          {
            return HAL_TIMEOUT;
 8001252:	2303      	movs	r3, #3
 8001254:	e280      	b.n	8001758 <HAL_RCC_OscConfig+0x7bc>
        while(READ_BIT(RCC->CR, RCC_CR_HSERDY) == 0U)
 8001256:	4baf      	ldr	r3, [pc, #700]	; (8001514 <HAL_RCC_OscConfig+0x578>)
 8001258:	681b      	ldr	r3, [r3, #0]
 800125a:	f403 3300 	and.w	r3, r3, #131072	; 0x20000
 800125e:	2b00      	cmp	r3, #0
 8001260:	d0f0      	beq.n	8001244 <HAL_RCC_OscConfig+0x2a8>
 8001262:	e014      	b.n	800128e <HAL_RCC_OscConfig+0x2f2>
        }
      }
      else
      {
        /* Get Start Tick*/
        tickstart = HAL_GetTick();
 8001264:	f7ff fb84 	bl	8000970 <HAL_GetTick>
 8001268:	6138      	str	r0, [r7, #16]

        /* Wait till HSE is disabled */
        while(READ_BIT(RCC->CR, RCC_CR_HSERDY) != 0U)
 800126a:	e008      	b.n	800127e <HAL_RCC_OscConfig+0x2e2>
        {
          if((HAL_GetTick() - tickstart) > HSE_TIMEOUT_VALUE)
 800126c:	f7ff fb80 	bl	8000970 <HAL_GetTick>
 8001270:	4602      	mov	r2, r0
 8001272:	693b      	ldr	r3, [r7, #16]
 8001274:	1ad3      	subs	r3, r2, r3
 8001276:	2b64      	cmp	r3, #100	; 0x64
 8001278:	d901      	bls.n	800127e <HAL_RCC_OscConfig+0x2e2>
          {
            return HAL_TIMEOUT;
 800127a:	2303      	movs	r3, #3
 800127c:	e26c      	b.n	8001758 <HAL_RCC_OscConfig+0x7bc>
        while(READ_BIT(RCC->CR, RCC_CR_HSERDY) != 0U)
 800127e:	4ba5      	ldr	r3, [pc, #660]	; (8001514 <HAL_RCC_OscConfig+0x578>)
 8001280:	681b      	ldr	r3, [r3, #0]
 8001282:	f403 3300 	and.w	r3, r3, #131072	; 0x20000
 8001286:	2b00      	cmp	r3, #0
 8001288:	d1f0      	bne.n	800126c <HAL_RCC_OscConfig+0x2d0>
 800128a:	e000      	b.n	800128e <HAL_RCC_OscConfig+0x2f2>
      if((READ_BIT(RCC->CR, RCC_CR_HSERDY) != 0U) && (RCC_OscInitStruct->HSEState == RCC_HSE_OFF))
 800128c:	bf00      	nop
        }
      }
    }
  }
  /*----------------------------- HSI Configuration --------------------------*/
  if(((RCC_OscInitStruct->OscillatorType) & RCC_OSCILLATORTYPE_HSI) == RCC_OSCILLATORTYPE_HSI)
 800128e:	687b      	ldr	r3, [r7, #4]
 8001290:	681b      	ldr	r3, [r3, #0]
 8001292:	f003 0302 	and.w	r3, r3, #2
 8001296:	2b00      	cmp	r3, #0
 8001298:	d060      	beq.n	800135c <HAL_RCC_OscConfig+0x3c0>
    /* Check the parameters */
    assert_param(IS_RCC_HSI(RCC_OscInitStruct->HSIState));
    assert_param(IS_RCC_HSI_CALIBRATION_VALUE(RCC_OscInitStruct->HSICalibrationValue));

    /* Check if HSI is used as system clock or as PLL source when PLL is selected as system clock */
    if((sysclk_source == RCC_CFGR_SWS_HSI) ||
 800129a:	69bb      	ldr	r3, [r7, #24]
 800129c:	2b04      	cmp	r3, #4
 800129e:	d005      	beq.n	80012ac <HAL_RCC_OscConfig+0x310>
 80012a0:	69bb      	ldr	r3, [r7, #24]
 80012a2:	2b0c      	cmp	r3, #12
 80012a4:	d119      	bne.n	80012da <HAL_RCC_OscConfig+0x33e>
       ((sysclk_source == RCC_CFGR_SWS_PLL) && (pll_config == RCC_PLLSOURCE_HSI)))
 80012a6:	697b      	ldr	r3, [r7, #20]
 80012a8:	2b02      	cmp	r3, #2
 80012aa:	d116      	bne.n	80012da <HAL_RCC_OscConfig+0x33e>
    {
      /* When HSI is used as system clock it will not be disabled */
      if((READ_BIT(RCC->CR, RCC_CR_HSIRDY) != 0U) && (RCC_OscInitStruct->HSIState == RCC_HSI_OFF))
 80012ac:	4b99      	ldr	r3, [pc, #612]	; (8001514 <HAL_RCC_OscConfig+0x578>)
 80012ae:	681b      	ldr	r3, [r3, #0]
 80012b0:	f403 6380 	and.w	r3, r3, #1024	; 0x400
 80012b4:	2b00      	cmp	r3, #0
 80012b6:	d005      	beq.n	80012c4 <HAL_RCC_OscConfig+0x328>
 80012b8:	687b      	ldr	r3, [r7, #4]
 80012ba:	68db      	ldr	r3, [r3, #12]
 80012bc:	2b00      	cmp	r3, #0
 80012be:	d101      	bne.n	80012c4 <HAL_RCC_OscConfig+0x328>
      {
        return HAL_ERROR;
 80012c0:	2301      	movs	r3, #1
 80012c2:	e249      	b.n	8001758 <HAL_RCC_OscConfig+0x7bc>
      }
      /* Otherwise, just the calibration is allowed */
      else
      {
        /* Adjusts the Internal High Speed oscillator (HSI) calibration value.*/
        __HAL_RCC_HSI_CALIBRATIONVALUE_ADJUST(RCC_OscInitStruct->HSICalibrationValue);
 80012c4:	4b93      	ldr	r3, [pc, #588]	; (8001514 <HAL_RCC_OscConfig+0x578>)
 80012c6:	685b      	ldr	r3, [r3, #4]
 80012c8:	f023 52f8 	bic.w	r2, r3, #520093696	; 0x1f000000
 80012cc:	687b      	ldr	r3, [r7, #4]
 80012ce:	691b      	ldr	r3, [r3, #16]
 80012d0:	061b      	lsls	r3, r3, #24
 80012d2:	4990      	ldr	r1, [pc, #576]	; (8001514 <HAL_RCC_OscConfig+0x578>)
 80012d4:	4313      	orrs	r3, r2
 80012d6:	604b      	str	r3, [r1, #4]
      if((READ_BIT(RCC->CR, RCC_CR_HSIRDY) != 0U) && (RCC_OscInitStruct->HSIState == RCC_HSI_OFF))
 80012d8:	e040      	b.n	800135c <HAL_RCC_OscConfig+0x3c0>
      }
    }
    else
    {
      /* Check the HSI State */
      if(RCC_OscInitStruct->HSIState != RCC_HSI_OFF)
 80012da:	687b      	ldr	r3, [r7, #4]
 80012dc:	68db      	ldr	r3, [r3, #12]
 80012de:	2b00      	cmp	r3, #0
 80012e0:	d023      	beq.n	800132a <HAL_RCC_OscConfig+0x38e>
      {
        /* Enable the Internal High Speed oscillator (HSI). */
        __HAL_RCC_HSI_ENABLE();
 80012e2:	4b8c      	ldr	r3, [pc, #560]	; (8001514 <HAL_RCC_OscConfig+0x578>)
 80012e4:	681b      	ldr	r3, [r3, #0]
 80012e6:	4a8b      	ldr	r2, [pc, #556]	; (8001514 <HAL_RCC_OscConfig+0x578>)
 80012e8:	f443 7380 	orr.w	r3, r3, #256	; 0x100
 80012ec:	6013      	str	r3, [r2, #0]

        /* Get Start Tick*/
        tickstart = HAL_GetTick();
 80012ee:	f7ff fb3f 	bl	8000970 <HAL_GetTick>
 80012f2:	6138      	str	r0, [r7, #16]

        /* Wait till HSI is ready */
        while(READ_BIT(RCC->CR, RCC_CR_HSIRDY) == 0U)
 80012f4:	e008      	b.n	8001308 <HAL_RCC_OscConfig+0x36c>
        {
          if((HAL_GetTick() - tickstart) > HSI_TIMEOUT_VALUE)
 80012f6:	f7ff fb3b 	bl	8000970 <HAL_GetTick>
 80012fa:	4602      	mov	r2, r0
 80012fc:	693b      	ldr	r3, [r7, #16]
 80012fe:	1ad3      	subs	r3, r2, r3
 8001300:	2b02      	cmp	r3, #2
 8001302:	d901      	bls.n	8001308 <HAL_RCC_OscConfig+0x36c>
          {
            return HAL_TIMEOUT;
 8001304:	2303      	movs	r3, #3
 8001306:	e227      	b.n	8001758 <HAL_RCC_OscConfig+0x7bc>
        while(READ_BIT(RCC->CR, RCC_CR_HSIRDY) == 0U)
 8001308:	4b82      	ldr	r3, [pc, #520]	; (8001514 <HAL_RCC_OscConfig+0x578>)
 800130a:	681b      	ldr	r3, [r3, #0]
 800130c:	f403 6380 	and.w	r3, r3, #1024	; 0x400
 8001310:	2b00      	cmp	r3, #0
 8001312:	d0f0      	beq.n	80012f6 <HAL_RCC_OscConfig+0x35a>
          }
        }

        /* Adjusts the Internal High Speed oscillator (HSI) calibration value.*/
        __HAL_RCC_HSI_CALIBRATIONVALUE_ADJUST(RCC_OscInitStruct->HSICalibrationValue);
 8001314:	4b7f      	ldr	r3, [pc, #508]	; (8001514 <HAL_RCC_OscConfig+0x578>)
 8001316:	685b      	ldr	r3, [r3, #4]
 8001318:	f023 52f8 	bic.w	r2, r3, #520093696	; 0x1f000000
 800131c:	687b      	ldr	r3, [r7, #4]
 800131e:	691b      	ldr	r3, [r3, #16]
 8001320:	061b      	lsls	r3, r3, #24
 8001322:	497c      	ldr	r1, [pc, #496]	; (8001514 <HAL_RCC_OscConfig+0x578>)
 8001324:	4313      	orrs	r3, r2
 8001326:	604b      	str	r3, [r1, #4]
 8001328:	e018      	b.n	800135c <HAL_RCC_OscConfig+0x3c0>
      }
      else
      {
        /* Disable the Internal High Speed oscillator (HSI). */
        __HAL_RCC_HSI_DISABLE();
 800132a:	4b7a      	ldr	r3, [pc, #488]	; (8001514 <HAL_RCC_OscConfig+0x578>)
 800132c:	681b      	ldr	r3, [r3, #0]
 800132e:	4a79      	ldr	r2, [pc, #484]	; (8001514 <HAL_RCC_OscConfig+0x578>)
 8001330:	f423 7380 	bic.w	r3, r3, #256	; 0x100
 8001334:	6013      	str	r3, [r2, #0]

        /* Get Start Tick*/
        tickstart = HAL_GetTick();
 8001336:	f7ff fb1b 	bl	8000970 <HAL_GetTick>
 800133a:	6138      	str	r0, [r7, #16]

        /* Wait till HSI is disabled */
        while(READ_BIT(RCC->CR, RCC_CR_HSIRDY) != 0U)
 800133c:	e008      	b.n	8001350 <HAL_RCC_OscConfig+0x3b4>
        {
          if((HAL_GetTick() - tickstart) > HSI_TIMEOUT_VALUE)
 800133e:	f7ff fb17 	bl	8000970 <HAL_GetTick>
 8001342:	4602      	mov	r2, r0
 8001344:	693b      	ldr	r3, [r7, #16]
 8001346:	1ad3      	subs	r3, r2, r3
 8001348:	2b02      	cmp	r3, #2
 800134a:	d901      	bls.n	8001350 <HAL_RCC_OscConfig+0x3b4>
          {
            return HAL_TIMEOUT;
 800134c:	2303      	movs	r3, #3
 800134e:	e203      	b.n	8001758 <HAL_RCC_OscConfig+0x7bc>
        while(READ_BIT(RCC->CR, RCC_CR_HSIRDY) != 0U)
 8001350:	4b70      	ldr	r3, [pc, #448]	; (8001514 <HAL_RCC_OscConfig+0x578>)
 8001352:	681b      	ldr	r3, [r3, #0]
 8001354:	f403 6380 	and.w	r3, r3, #1024	; 0x400
 8001358:	2b00      	cmp	r3, #0
 800135a:	d1f0      	bne.n	800133e <HAL_RCC_OscConfig+0x3a2>
        }
      }
    }
  }
  /*------------------------------ LSI Configuration -------------------------*/
  if(((RCC_OscInitStruct->OscillatorType) & RCC_OSCILLATORTYPE_LSI) == RCC_OSCILLATORTYPE_LSI)
 800135c:	687b      	ldr	r3, [r7, #4]
 800135e:	681b      	ldr	r3, [r3, #0]
 8001360:	f003 0308 	and.w	r3, r3, #8
 8001364:	2b00      	cmp	r3, #0
 8001366:	d03c      	beq.n	80013e2 <HAL_RCC_OscConfig+0x446>
  {
    /* Check the parameters */
    assert_param(IS_RCC_LSI(RCC_OscInitStruct->LSIState));

    /* Check the LSI State */
    if(RCC_OscInitStruct->LSIState != RCC_LSI_OFF)
 8001368:	687b      	ldr	r3, [r7, #4]
 800136a:	695b      	ldr	r3, [r3, #20]
 800136c:	2b00      	cmp	r3, #0
 800136e:	d01c      	beq.n	80013aa <HAL_RCC_OscConfig+0x40e>
        MODIFY_REG(RCC->CSR, RCC_CSR_LSIPREDIV, RCC_OscInitStruct->LSIDiv);
      }
#endif /* RCC_CSR_LSIPREDIV */

      /* Enable the Internal Low Speed oscillator (LSI). */
      __HAL_RCC_LSI_ENABLE();
 8001370:	4b68      	ldr	r3, [pc, #416]	; (8001514 <HAL_RCC_OscConfig+0x578>)
 8001372:	f8d3 3094 	ldr.w	r3, [r3, #148]	; 0x94
 8001376:	4a67      	ldr	r2, [pc, #412]	; (8001514 <HAL_RCC_OscConfig+0x578>)
 8001378:	f043 0301 	orr.w	r3, r3, #1
 800137c:	f8c2 3094 	str.w	r3, [r2, #148]	; 0x94

      /* Get Start Tick*/
      tickstart = HAL_GetTick();
 8001380:	f7ff faf6 	bl	8000970 <HAL_GetTick>
 8001384:	6138      	str	r0, [r7, #16]

      /* Wait till LSI is ready */
      while(READ_BIT(RCC->CSR, RCC_CSR_LSIRDY) == 0U)
 8001386:	e008      	b.n	800139a <HAL_RCC_OscConfig+0x3fe>
      {
        if((HAL_GetTick() - tickstart) > LSI_TIMEOUT_VALUE)
 8001388:	f7ff faf2 	bl	8000970 <HAL_GetTick>
 800138c:	4602      	mov	r2, r0
 800138e:	693b      	ldr	r3, [r7, #16]
 8001390:	1ad3      	subs	r3, r2, r3
 8001392:	2b02      	cmp	r3, #2
 8001394:	d901      	bls.n	800139a <HAL_RCC_OscConfig+0x3fe>
        {
          return HAL_TIMEOUT;
 8001396:	2303      	movs	r3, #3
 8001398:	e1de      	b.n	8001758 <HAL_RCC_OscConfig+0x7bc>
      while(READ_BIT(RCC->CSR, RCC_CSR_LSIRDY) == 0U)
 800139a:	4b5e      	ldr	r3, [pc, #376]	; (8001514 <HAL_RCC_OscConfig+0x578>)
 800139c:	f8d3 3094 	ldr.w	r3, [r3, #148]	; 0x94
 80013a0:	f003 0302 	and.w	r3, r3, #2
 80013a4:	2b00      	cmp	r3, #0
 80013a6:	d0ef      	beq.n	8001388 <HAL_RCC_OscConfig+0x3ec>
 80013a8:	e01b      	b.n	80013e2 <HAL_RCC_OscConfig+0x446>
      }
    }
    else
    {
      /* Disable the Internal Low Speed oscillator (LSI). */
      __HAL_RCC_LSI_DISABLE();
 80013aa:	4b5a      	ldr	r3, [pc, #360]	; (8001514 <HAL_RCC_OscConfig+0x578>)
 80013ac:	f8d3 3094 	ldr.w	r3, [r3, #148]	; 0x94
 80013b0:	4a58      	ldr	r2, [pc, #352]	; (8001514 <HAL_RCC_OscConfig+0x578>)
 80013b2:	f023 0301 	bic.w	r3, r3, #1
 80013b6:	f8c2 3094 	str.w	r3, [r2, #148]	; 0x94

      /* Get Start Tick*/
      tickstart = HAL_GetTick();
 80013ba:	f7ff fad9 	bl	8000970 <HAL_GetTick>
 80013be:	6138      	str	r0, [r7, #16]

      /* Wait till LSI is disabled */
      while(READ_BIT(RCC->CSR, RCC_CSR_LSIRDY) != 0U)
 80013c0:	e008      	b.n	80013d4 <HAL_RCC_OscConfig+0x438>
      {
        if((HAL_GetTick() - tickstart) > LSI_TIMEOUT_VALUE)
 80013c2:	f7ff fad5 	bl	8000970 <HAL_GetTick>
 80013c6:	4602      	mov	r2, r0
 80013c8:	693b      	ldr	r3, [r7, #16]
 80013ca:	1ad3      	subs	r3, r2, r3
 80013cc:	2b02      	cmp	r3, #2
 80013ce:	d901      	bls.n	80013d4 <HAL_RCC_OscConfig+0x438>
        {
          return HAL_TIMEOUT;
 80013d0:	2303      	movs	r3, #3
 80013d2:	e1c1      	b.n	8001758 <HAL_RCC_OscConfig+0x7bc>
      while(READ_BIT(RCC->CSR, RCC_CSR_LSIRDY) != 0U)
 80013d4:	4b4f      	ldr	r3, [pc, #316]	; (8001514 <HAL_RCC_OscConfig+0x578>)
 80013d6:	f8d3 3094 	ldr.w	r3, [r3, #148]	; 0x94
 80013da:	f003 0302 	and.w	r3, r3, #2
 80013de:	2b00      	cmp	r3, #0
 80013e0:	d1ef      	bne.n	80013c2 <HAL_RCC_OscConfig+0x426>
        }
      }
    }
  }
  /*------------------------------ LSE Configuration -------------------------*/
  if(((RCC_OscInitStruct->OscillatorType) & RCC_OSCILLATORTYPE_LSE) == RCC_OSCILLATORTYPE_LSE)
 80013e2:	687b      	ldr	r3, [r7, #4]
 80013e4:	681b      	ldr	r3, [r3, #0]
 80013e6:	f003 0304 	and.w	r3, r3, #4
 80013ea:	2b00      	cmp	r3, #0
 80013ec:	f000 80a6 	beq.w	800153c <HAL_RCC_OscConfig+0x5a0>
  {
    FlagStatus       pwrclkchanged = RESET;
 80013f0:	2300      	movs	r3, #0
 80013f2:	77fb      	strb	r3, [r7, #31]
    /* Check the parameters */
    assert_param(IS_RCC_LSE(RCC_OscInitStruct->LSEState));

    /* Update LSE configuration in Backup Domain control register    */
    /* Requires to enable write access to Backup Domain of necessary */
    if(HAL_IS_BIT_CLR(RCC->APB1ENR1, RCC_APB1ENR1_PWREN))
 80013f4:	4b47      	ldr	r3, [pc, #284]	; (8001514 <HAL_RCC_OscConfig+0x578>)
 80013f6:	6d9b      	ldr	r3, [r3, #88]	; 0x58
 80013f8:	f003 5380 	and.w	r3, r3, #268435456	; 0x10000000
 80013fc:	2b00      	cmp	r3, #0
 80013fe:	d10d      	bne.n	800141c <HAL_RCC_OscConfig+0x480>
    {
      __HAL_RCC_PWR_CLK_ENABLE();
 8001400:	4b44      	ldr	r3, [pc, #272]	; (8001514 <HAL_RCC_OscConfig+0x578>)
 8001402:	6d9b      	ldr	r3, [r3, #88]	; 0x58
 8001404:	4a43      	ldr	r2, [pc, #268]	; (8001514 <HAL_RCC_OscConfig+0x578>)
 8001406:	f043 5380 	orr.w	r3, r3, #268435456	; 0x10000000
 800140a:	6593      	str	r3, [r2, #88]	; 0x58
 800140c:	4b41      	ldr	r3, [pc, #260]	; (8001514 <HAL_RCC_OscConfig+0x578>)
 800140e:	6d9b      	ldr	r3, [r3, #88]	; 0x58
 8001410:	f003 5380 	and.w	r3, r3, #268435456	; 0x10000000
 8001414:	60bb      	str	r3, [r7, #8]
 8001416:	68bb      	ldr	r3, [r7, #8]
      pwrclkchanged = SET;
 8001418:	2301      	movs	r3, #1
 800141a:	77fb      	strb	r3, [r7, #31]
    }

    if(HAL_IS_BIT_CLR(PWR->CR1, PWR_CR1_DBP))
 800141c:	4b3e      	ldr	r3, [pc, #248]	; (8001518 <HAL_RCC_OscConfig+0x57c>)
 800141e:	681b      	ldr	r3, [r3, #0]
 8001420:	f403 7380 	and.w	r3, r3, #256	; 0x100
 8001424:	2b00      	cmp	r3, #0
 8001426:	d118      	bne.n	800145a <HAL_RCC_OscConfig+0x4be>
    {
      /* Enable write access to Backup domain */
      SET_BIT(PWR->CR1, PWR_CR1_DBP);
 8001428:	4b3b      	ldr	r3, [pc, #236]	; (8001518 <HAL_RCC_OscConfig+0x57c>)
 800142a:	681b      	ldr	r3, [r3, #0]
 800142c:	4a3a      	ldr	r2, [pc, #232]	; (8001518 <HAL_RCC_OscConfig+0x57c>)
 800142e:	f443 7380 	orr.w	r3, r3, #256	; 0x100
 8001432:	6013      	str	r3, [r2, #0]

      /* Wait for Backup domain Write protection disable */
      tickstart = HAL_GetTick();
 8001434:	f7ff fa9c 	bl	8000970 <HAL_GetTick>
 8001438:	6138      	str	r0, [r7, #16]

      while(HAL_IS_BIT_CLR(PWR->CR1, PWR_CR1_DBP))
 800143a:	e008      	b.n	800144e <HAL_RCC_OscConfig+0x4b2>
      {
        if((HAL_GetTick() - tickstart) > RCC_DBP_TIMEOUT_VALUE)
 800143c:	f7ff fa98 	bl	8000970 <HAL_GetTick>
 8001440:	4602      	mov	r2, r0
 8001442:	693b      	ldr	r3, [r7, #16]
 8001444:	1ad3      	subs	r3, r2, r3
 8001446:	2b02      	cmp	r3, #2
 8001448:	d901      	bls.n	800144e <HAL_RCC_OscConfig+0x4b2>
        {
          return HAL_TIMEOUT;
 800144a:	2303      	movs	r3, #3
 800144c:	e184      	b.n	8001758 <HAL_RCC_OscConfig+0x7bc>
      while(HAL_IS_BIT_CLR(PWR->CR1, PWR_CR1_DBP))
 800144e:	4b32      	ldr	r3, [pc, #200]	; (8001518 <HAL_RCC_OscConfig+0x57c>)
 8001450:	681b      	ldr	r3, [r3, #0]
 8001452:	f403 7380 	and.w	r3, r3, #256	; 0x100
 8001456:	2b00      	cmp	r3, #0
 8001458:	d0f0      	beq.n	800143c <HAL_RCC_OscConfig+0x4a0>
    {
      CLEAR_BIT(RCC->BDCR, RCC_BDCR_LSEON);
      CLEAR_BIT(RCC->BDCR, RCC_BDCR_LSEBYP);
    }
#else
    __HAL_RCC_LSE_CONFIG(RCC_OscInitStruct->LSEState);
 800145a:	687b      	ldr	r3, [r7, #4]
 800145c:	689b      	ldr	r3, [r3, #8]
 800145e:	2b01      	cmp	r3, #1
 8001460:	d108      	bne.n	8001474 <HAL_RCC_OscConfig+0x4d8>
 8001462:	4b2c      	ldr	r3, [pc, #176]	; (8001514 <HAL_RCC_OscConfig+0x578>)
 8001464:	f8d3 3090 	ldr.w	r3, [r3, #144]	; 0x90
 8001468:	4a2a      	ldr	r2, [pc, #168]	; (8001514 <HAL_RCC_OscConfig+0x578>)
 800146a:	f043 0301 	orr.w	r3, r3, #1
 800146e:	f8c2 3090 	str.w	r3, [r2, #144]	; 0x90
 8001472:	e024      	b.n	80014be <HAL_RCC_OscConfig+0x522>
 8001474:	687b      	ldr	r3, [r7, #4]
 8001476:	689b      	ldr	r3, [r3, #8]
 8001478:	2b05      	cmp	r3, #5
 800147a:	d110      	bne.n	800149e <HAL_RCC_OscConfig+0x502>
 800147c:	4b25      	ldr	r3, [pc, #148]	; (8001514 <HAL_RCC_OscConfig+0x578>)
 800147e:	f8d3 3090 	ldr.w	r3, [r3, #144]	; 0x90
 8001482:	4a24      	ldr	r2, [pc, #144]	; (8001514 <HAL_RCC_OscConfig+0x578>)
 8001484:	f043 0304 	orr.w	r3, r3, #4
 8001488:	f8c2 3090 	str.w	r3, [r2, #144]	; 0x90
 800148c:	4b21      	ldr	r3, [pc, #132]	; (8001514 <HAL_RCC_OscConfig+0x578>)
 800148e:	f8d3 3090 	ldr.w	r3, [r3, #144]	; 0x90
 8001492:	4a20      	ldr	r2, [pc, #128]	; (8001514 <HAL_RCC_OscConfig+0x578>)
 8001494:	f043 0301 	orr.w	r3, r3, #1
 8001498:	f8c2 3090 	str.w	r3, [r2, #144]	; 0x90
 800149c:	e00f      	b.n	80014be <HAL_RCC_OscConfig+0x522>
 800149e:	4b1d      	ldr	r3, [pc, #116]	; (8001514 <HAL_RCC_OscConfig+0x578>)
 80014a0:	f8d3 3090 	ldr.w	r3, [r3, #144]	; 0x90
 80014a4:	4a1b      	ldr	r2, [pc, #108]	; (8001514 <HAL_RCC_OscConfig+0x578>)
 80014a6:	f023 0301 	bic.w	r3, r3, #1
 80014aa:	f8c2 3090 	str.w	r3, [r2, #144]	; 0x90
 80014ae:	4b19      	ldr	r3, [pc, #100]	; (8001514 <HAL_RCC_OscConfig+0x578>)
 80014b0:	f8d3 3090 	ldr.w	r3, [r3, #144]	; 0x90
 80014b4:	4a17      	ldr	r2, [pc, #92]	; (8001514 <HAL_RCC_OscConfig+0x578>)
 80014b6:	f023 0304 	bic.w	r3, r3, #4
 80014ba:	f8c2 3090 	str.w	r3, [r2, #144]	; 0x90
#endif /* RCC_BDCR_LSESYSDIS */

    /* Check the LSE State */
    if(RCC_OscInitStruct->LSEState != RCC_LSE_OFF)
 80014be:	687b      	ldr	r3, [r7, #4]
 80014c0:	689b      	ldr	r3, [r3, #8]
 80014c2:	2b00      	cmp	r3, #0
 80014c4:	d016      	beq.n	80014f4 <HAL_RCC_OscConfig+0x558>
    {
      /* Get Start Tick*/
      tickstart = HAL_GetTick();
 80014c6:	f7ff fa53 	bl	8000970 <HAL_GetTick>
 80014ca:	6138      	str	r0, [r7, #16]

      /* Wait till LSE is ready */
      while(READ_BIT(RCC->BDCR, RCC_BDCR_LSERDY) == 0U)
 80014cc:	e00a      	b.n	80014e4 <HAL_RCC_OscConfig+0x548>
      {
        if((HAL_GetTick() - tickstart) > RCC_LSE_TIMEOUT_VALUE)
 80014ce:	f7ff fa4f 	bl	8000970 <HAL_GetTick>
 80014d2:	4602      	mov	r2, r0
 80014d4:	693b      	ldr	r3, [r7, #16]
 80014d6:	1ad3      	subs	r3, r2, r3
 80014d8:	f241 3288 	movw	r2, #5000	; 0x1388
 80014dc:	4293      	cmp	r3, r2
 80014de:	d901      	bls.n	80014e4 <HAL_RCC_OscConfig+0x548>
        {
          return HAL_TIMEOUT;
 80014e0:	2303      	movs	r3, #3
 80014e2:	e139      	b.n	8001758 <HAL_RCC_OscConfig+0x7bc>
      while(READ_BIT(RCC->BDCR, RCC_BDCR_LSERDY) == 0U)
 80014e4:	4b0b      	ldr	r3, [pc, #44]	; (8001514 <HAL_RCC_OscConfig+0x578>)
 80014e6:	f8d3 3090 	ldr.w	r3, [r3, #144]	; 0x90
 80014ea:	f003 0302 	and.w	r3, r3, #2
 80014ee:	2b00      	cmp	r3, #0
 80014f0:	d0ed      	beq.n	80014ce <HAL_RCC_OscConfig+0x532>
 80014f2:	e01a      	b.n	800152a <HAL_RCC_OscConfig+0x58e>
      }
    }
    else
    {
      /* Get Start Tick*/
      tickstart = HAL_GetTick();
 80014f4:	f7ff fa3c 	bl	8000970 <HAL_GetTick>
 80014f8:	6138      	str	r0, [r7, #16]

      /* Wait till LSE is disabled */
      while(READ_BIT(RCC->BDCR, RCC_BDCR_LSERDY) != 0U)
 80014fa:	e00f      	b.n	800151c <HAL_RCC_OscConfig+0x580>
      {
        if((HAL_GetTick() - tickstart) > RCC_LSE_TIMEOUT_VALUE)
 80014fc:	f7ff fa38 	bl	8000970 <HAL_GetTick>
 8001500:	4602      	mov	r2, r0
 8001502:	693b      	ldr	r3, [r7, #16]
 8001504:	1ad3      	subs	r3, r2, r3
 8001506:	f241 3288 	movw	r2, #5000	; 0x1388
 800150a:	4293      	cmp	r3, r2
 800150c:	d906      	bls.n	800151c <HAL_RCC_OscConfig+0x580>
        {
          return HAL_TIMEOUT;
 800150e:	2303      	movs	r3, #3
 8001510:	e122      	b.n	8001758 <HAL_RCC_OscConfig+0x7bc>
 8001512:	bf00      	nop
 8001514:	40021000 	.word	0x40021000
 8001518:	40007000 	.word	0x40007000
      while(READ_BIT(RCC->BDCR, RCC_BDCR_LSERDY) != 0U)
 800151c:	4b90      	ldr	r3, [pc, #576]	; (8001760 <HAL_RCC_OscConfig+0x7c4>)
 800151e:	f8d3 3090 	ldr.w	r3, [r3, #144]	; 0x90
 8001522:	f003 0302 	and.w	r3, r3, #2
 8001526:	2b00      	cmp	r3, #0
 8001528:	d1e8      	bne.n	80014fc <HAL_RCC_OscConfig+0x560>
      CLEAR_BIT(RCC->BDCR, RCC_BDCR_LSESYSDIS);
#endif /* RCC_BDCR_LSESYSDIS */
    }

    /* Restore clock configuration if changed */
    if(pwrclkchanged == SET)
 800152a:	7ffb      	ldrb	r3, [r7, #31]
 800152c:	2b01      	cmp	r3, #1
 800152e:	d105      	bne.n	800153c <HAL_RCC_OscConfig+0x5a0>
    {
      __HAL_RCC_PWR_CLK_DISABLE();
 8001530:	4b8b      	ldr	r3, [pc, #556]	; (8001760 <HAL_RCC_OscConfig+0x7c4>)
 8001532:	6d9b      	ldr	r3, [r3, #88]	; 0x58
 8001534:	4a8a      	ldr	r2, [pc, #552]	; (8001760 <HAL_RCC_OscConfig+0x7c4>)
 8001536:	f023 5380 	bic.w	r3, r3, #268435456	; 0x10000000
 800153a:	6593      	str	r3, [r2, #88]	; 0x58
#endif /* RCC_HSI48_SUPPORT */
  /*-------------------------------- PLL Configuration -----------------------*/
  /* Check the parameters */
  assert_param(IS_RCC_PLL(RCC_OscInitStruct->PLL.PLLState));

  if(RCC_OscInitStruct->PLL.PLLState != RCC_PLL_NONE)
 800153c:	687b      	ldr	r3, [r7, #4]
 800153e:	6a9b      	ldr	r3, [r3, #40]	; 0x28
 8001540:	2b00      	cmp	r3, #0
 8001542:	f000 8108 	beq.w	8001756 <HAL_RCC_OscConfig+0x7ba>
  {
    /* PLL On ? */
    if(RCC_OscInitStruct->PLL.PLLState == RCC_PLL_ON)
 8001546:	687b      	ldr	r3, [r7, #4]
 8001548:	6a9b      	ldr	r3, [r3, #40]	; 0x28
 800154a:	2b02      	cmp	r3, #2
 800154c:	f040 80d0 	bne.w	80016f0 <HAL_RCC_OscConfig+0x754>
#endif /* RCC_PLLP_SUPPORT */
      assert_param(IS_RCC_PLLQ_VALUE(RCC_OscInitStruct->PLL.PLLQ));
      assert_param(IS_RCC_PLLR_VALUE(RCC_OscInitStruct->PLL.PLLR));

      /* Do nothing if PLL configuration is the unchanged */
      pll_config = RCC->PLLCFGR;
 8001550:	4b83      	ldr	r3, [pc, #524]	; (8001760 <HAL_RCC_OscConfig+0x7c4>)
 8001552:	68db      	ldr	r3, [r3, #12]
 8001554:	617b      	str	r3, [r7, #20]
      if((READ_BIT(pll_config, RCC_PLLCFGR_PLLSRC)  != RCC_OscInitStruct->PLL.PLLSource) ||
 8001556:	697b      	ldr	r3, [r7, #20]
 8001558:	f003 0203 	and.w	r2, r3, #3
 800155c:	687b      	ldr	r3, [r7, #4]
 800155e:	6adb      	ldr	r3, [r3, #44]	; 0x2c
 8001560:	429a      	cmp	r2, r3
 8001562:	d130      	bne.n	80015c6 <HAL_RCC_OscConfig+0x62a>
         (READ_BIT(pll_config, RCC_PLLCFGR_PLLM)    != ((RCC_OscInitStruct->PLL.PLLM - 1U) << RCC_PLLCFGR_PLLM_Pos)) ||
 8001564:	697b      	ldr	r3, [r7, #20]
 8001566:	f003 0270 	and.w	r2, r3, #112	; 0x70
 800156a:	687b      	ldr	r3, [r7, #4]
 800156c:	6b1b      	ldr	r3, [r3, #48]	; 0x30
 800156e:	3b01      	subs	r3, #1
 8001570:	011b      	lsls	r3, r3, #4
      if((READ_BIT(pll_config, RCC_PLLCFGR_PLLSRC)  != RCC_OscInitStruct->PLL.PLLSource) ||
 8001572:	429a      	cmp	r2, r3
 8001574:	d127      	bne.n	80015c6 <HAL_RCC_OscConfig+0x62a>
         (READ_BIT(pll_config, RCC_PLLCFGR_PLLN)    != (RCC_OscInitStruct->PLL.PLLN << RCC_PLLCFGR_PLLN_Pos)) ||
 8001576:	697b      	ldr	r3, [r7, #20]
 8001578:	f403 42fe 	and.w	r2, r3, #32512	; 0x7f00
 800157c:	687b      	ldr	r3, [r7, #4]
 800157e:	6b5b      	ldr	r3, [r3, #52]	; 0x34
 8001580:	021b      	lsls	r3, r3, #8
         (READ_BIT(pll_config, RCC_PLLCFGR_PLLM)    != ((RCC_OscInitStruct->PLL.PLLM - 1U) << RCC_PLLCFGR_PLLM_Pos)) ||
 8001582:	429a      	cmp	r2, r3
 8001584:	d11f      	bne.n	80015c6 <HAL_RCC_OscConfig+0x62a>
#if defined(RCC_PLLP_SUPPORT)
#if defined(RCC_PLLP_DIV_2_31_SUPPORT)
         (READ_BIT(pll_config, RCC_PLLCFGR_PLLPDIV) != (RCC_OscInitStruct->PLL.PLLP << RCC_PLLCFGR_PLLPDIV_Pos)) ||
#else
         (READ_BIT(pll_config, RCC_PLLCFGR_PLLP)    != ((RCC_OscInitStruct->PLL.PLLP == RCC_PLLP_DIV7) ? 0U : 1U)) ||
 8001586:	697b      	ldr	r3, [r7, #20]
 8001588:	f403 3300 	and.w	r3, r3, #131072	; 0x20000
 800158c:	687a      	ldr	r2, [r7, #4]
 800158e:	6b92      	ldr	r2, [r2, #56]	; 0x38
 8001590:	2a07      	cmp	r2, #7
 8001592:	bf14      	ite	ne
 8001594:	2201      	movne	r2, #1
 8001596:	2200      	moveq	r2, #0
 8001598:	b2d2      	uxtb	r2, r2
         (READ_BIT(pll_config, RCC_PLLCFGR_PLLN)    != (RCC_OscInitStruct->PLL.PLLN << RCC_PLLCFGR_PLLN_Pos)) ||
 800159a:	4293      	cmp	r3, r2
 800159c:	d113      	bne.n	80015c6 <HAL_RCC_OscConfig+0x62a>
#endif
#endif
         (READ_BIT(pll_config, RCC_PLLCFGR_PLLQ)    != ((((RCC_OscInitStruct->PLL.PLLQ) >> 1U) - 1U) << RCC_PLLCFGR_PLLQ_Pos)) ||
 800159e:	697b      	ldr	r3, [r7, #20]
 80015a0:	f403 02c0 	and.w	r2, r3, #6291456	; 0x600000
 80015a4:	687b      	ldr	r3, [r7, #4]
 80015a6:	6bdb      	ldr	r3, [r3, #60]	; 0x3c
 80015a8:	085b      	lsrs	r3, r3, #1
 80015aa:	3b01      	subs	r3, #1
 80015ac:	055b      	lsls	r3, r3, #21
         (READ_BIT(pll_config, RCC_PLLCFGR_PLLP)    != ((RCC_OscInitStruct->PLL.PLLP == RCC_PLLP_DIV7) ? 0U : 1U)) ||
 80015ae:	429a      	cmp	r2, r3
 80015b0:	d109      	bne.n	80015c6 <HAL_RCC_OscConfig+0x62a>
         (READ_BIT(pll_config, RCC_PLLCFGR_PLLR)    != ((((RCC_OscInitStruct->PLL.PLLR) >> 1U) - 1U) << RCC_PLLCFGR_PLLR_Pos)))
 80015b2:	697b      	ldr	r3, [r7, #20]
 80015b4:	f003 62c0 	and.w	r2, r3, #100663296	; 0x6000000
 80015b8:	687b      	ldr	r3, [r7, #4]
 80015ba:	6c1b      	ldr	r3, [r3, #64]	; 0x40
 80015bc:	085b      	lsrs	r3, r3, #1
 80015be:	3b01      	subs	r3, #1
 80015c0:	065b      	lsls	r3, r3, #25
         (READ_BIT(pll_config, RCC_PLLCFGR_PLLQ)    != ((((RCC_OscInitStruct->PLL.PLLQ) >> 1U) - 1U) << RCC_PLLCFGR_PLLQ_Pos)) ||
 80015c2:	429a      	cmp	r2, r3
 80015c4:	d06e      	beq.n	80016a4 <HAL_RCC_OscConfig+0x708>
      {
        /* Check if the PLL is used as system clock or not */
        if(sysclk_source != RCC_CFGR_SWS_PLL)
 80015c6:	69bb      	ldr	r3, [r7, #24]
 80015c8:	2b0c      	cmp	r3, #12
 80015ca:	d069      	beq.n	80016a0 <HAL_RCC_OscConfig+0x704>
        {
#if defined(RCC_PLLSAI1_SUPPORT) || defined(RCC_PLLSAI2_SUPPORT)
          /* Check if main PLL can be updated */
          /* Not possible if the source is shared by other enabled PLLSAIx */
          if((READ_BIT(RCC->CR, RCC_CR_PLLSAI1ON) != 0U)
 80015cc:	4b64      	ldr	r3, [pc, #400]	; (8001760 <HAL_RCC_OscConfig+0x7c4>)
 80015ce:	681b      	ldr	r3, [r3, #0]
 80015d0:	f003 6380 	and.w	r3, r3, #67108864	; 0x4000000
 80015d4:	2b00      	cmp	r3, #0
 80015d6:	d105      	bne.n	80015e4 <HAL_RCC_OscConfig+0x648>
#if defined(RCC_PLLSAI2_SUPPORT)
             || (READ_BIT(RCC->CR, RCC_CR_PLLSAI2ON) != 0U)
 80015d8:	4b61      	ldr	r3, [pc, #388]	; (8001760 <HAL_RCC_OscConfig+0x7c4>)
 80015da:	681b      	ldr	r3, [r3, #0]
 80015dc:	f003 5380 	and.w	r3, r3, #268435456	; 0x10000000
 80015e0:	2b00      	cmp	r3, #0
 80015e2:	d001      	beq.n	80015e8 <HAL_RCC_OscConfig+0x64c>
#endif
            )
          {
            return HAL_ERROR;
 80015e4:	2301      	movs	r3, #1
 80015e6:	e0b7      	b.n	8001758 <HAL_RCC_OscConfig+0x7bc>
          }
          else
#endif /* RCC_PLLSAI1_SUPPORT || RCC_PLLSAI2_SUPPORT */
          {
            /* Disable the main PLL. */
            __HAL_RCC_PLL_DISABLE();
 80015e8:	4b5d      	ldr	r3, [pc, #372]	; (8001760 <HAL_RCC_OscConfig+0x7c4>)
 80015ea:	681b      	ldr	r3, [r3, #0]
 80015ec:	4a5c      	ldr	r2, [pc, #368]	; (8001760 <HAL_RCC_OscConfig+0x7c4>)
 80015ee:	f023 7380 	bic.w	r3, r3, #16777216	; 0x1000000
 80015f2:	6013      	str	r3, [r2, #0]

            /* Get Start Tick*/
            tickstart = HAL_GetTick();
 80015f4:	f7ff f9bc 	bl	8000970 <HAL_GetTick>
 80015f8:	6138      	str	r0, [r7, #16]

            /* Wait till PLL is ready */
            while(READ_BIT(RCC->CR, RCC_CR_PLLRDY) != 0U)
 80015fa:	e008      	b.n	800160e <HAL_RCC_OscConfig+0x672>
            {
              if((HAL_GetTick() - tickstart) > PLL_TIMEOUT_VALUE)
 80015fc:	f7ff f9b8 	bl	8000970 <HAL_GetTick>
 8001600:	4602      	mov	r2, r0
 8001602:	693b      	ldr	r3, [r7, #16]
 8001604:	1ad3      	subs	r3, r2, r3
 8001606:	2b02      	cmp	r3, #2
 8001608:	d901      	bls.n	800160e <HAL_RCC_OscConfig+0x672>
              {
                return HAL_TIMEOUT;
 800160a:	2303      	movs	r3, #3
 800160c:	e0a4      	b.n	8001758 <HAL_RCC_OscConfig+0x7bc>
            while(READ_BIT(RCC->CR, RCC_CR_PLLRDY) != 0U)
 800160e:	4b54      	ldr	r3, [pc, #336]	; (8001760 <HAL_RCC_OscConfig+0x7c4>)
 8001610:	681b      	ldr	r3, [r3, #0]
 8001612:	f003 7300 	and.w	r3, r3, #33554432	; 0x2000000
 8001616:	2b00      	cmp	r3, #0
 8001618:	d1f0      	bne.n	80015fc <HAL_RCC_OscConfig+0x660>
              }
            }

            /* Configure the main PLL clock source, multiplication and division factors. */
            __HAL_RCC_PLL_CONFIG(RCC_OscInitStruct->PLL.PLLSource,
 800161a:	4b51      	ldr	r3, [pc, #324]	; (8001760 <HAL_RCC_OscConfig+0x7c4>)
 800161c:	68da      	ldr	r2, [r3, #12]
 800161e:	4b51      	ldr	r3, [pc, #324]	; (8001764 <HAL_RCC_OscConfig+0x7c8>)
 8001620:	4013      	ands	r3, r2
 8001622:	687a      	ldr	r2, [r7, #4]
 8001624:	6ad1      	ldr	r1, [r2, #44]	; 0x2c
 8001626:	687a      	ldr	r2, [r7, #4]
 8001628:	6b12      	ldr	r2, [r2, #48]	; 0x30
 800162a:	3a01      	subs	r2, #1
 800162c:	0112      	lsls	r2, r2, #4
 800162e:	4311      	orrs	r1, r2
 8001630:	687a      	ldr	r2, [r7, #4]
 8001632:	6b52      	ldr	r2, [r2, #52]	; 0x34
 8001634:	0212      	lsls	r2, r2, #8
 8001636:	4311      	orrs	r1, r2
 8001638:	687a      	ldr	r2, [r7, #4]
 800163a:	6bd2      	ldr	r2, [r2, #60]	; 0x3c
 800163c:	0852      	lsrs	r2, r2, #1
 800163e:	3a01      	subs	r2, #1
 8001640:	0552      	lsls	r2, r2, #21
 8001642:	4311      	orrs	r1, r2
 8001644:	687a      	ldr	r2, [r7, #4]
 8001646:	6c12      	ldr	r2, [r2, #64]	; 0x40
 8001648:	0852      	lsrs	r2, r2, #1
 800164a:	3a01      	subs	r2, #1
 800164c:	0652      	lsls	r2, r2, #25
 800164e:	4311      	orrs	r1, r2
 8001650:	687a      	ldr	r2, [r7, #4]
 8001652:	6b92      	ldr	r2, [r2, #56]	; 0x38
 8001654:	0912      	lsrs	r2, r2, #4
 8001656:	0452      	lsls	r2, r2, #17
 8001658:	430a      	orrs	r2, r1
 800165a:	4941      	ldr	r1, [pc, #260]	; (8001760 <HAL_RCC_OscConfig+0x7c4>)
 800165c:	4313      	orrs	r3, r2
 800165e:	60cb      	str	r3, [r1, #12]
#endif
                                 RCC_OscInitStruct->PLL.PLLQ,
                                 RCC_OscInitStruct->PLL.PLLR);

            /* Enable the main PLL. */
            __HAL_RCC_PLL_ENABLE();
 8001660:	4b3f      	ldr	r3, [pc, #252]	; (8001760 <HAL_RCC_OscConfig+0x7c4>)
 8001662:	681b      	ldr	r3, [r3, #0]
 8001664:	4a3e      	ldr	r2, [pc, #248]	; (8001760 <HAL_RCC_OscConfig+0x7c4>)
 8001666:	f043 7380 	orr.w	r3, r3, #16777216	; 0x1000000
 800166a:	6013      	str	r3, [r2, #0]

            /* Enable PLL System Clock output. */
            __HAL_RCC_PLLCLKOUT_ENABLE(RCC_PLL_SYSCLK);
 800166c:	4b3c      	ldr	r3, [pc, #240]	; (8001760 <HAL_RCC_OscConfig+0x7c4>)
 800166e:	68db      	ldr	r3, [r3, #12]
 8001670:	4a3b      	ldr	r2, [pc, #236]	; (8001760 <HAL_RCC_OscConfig+0x7c4>)
 8001672:	f043 7380 	orr.w	r3, r3, #16777216	; 0x1000000
 8001676:	60d3      	str	r3, [r2, #12]

            /* Get Start Tick*/
            tickstart = HAL_GetTick();
 8001678:	f7ff f97a 	bl	8000970 <HAL_GetTick>
 800167c:	6138      	str	r0, [r7, #16]

            /* Wait till PLL is ready */
            while(READ_BIT(RCC->CR, RCC_CR_PLLRDY) == 0U)
 800167e:	e008      	b.n	8001692 <HAL_RCC_OscConfig+0x6f6>
            {
              if((HAL_GetTick() - tickstart) > PLL_TIMEOUT_VALUE)
 8001680:	f7ff f976 	bl	8000970 <HAL_GetTick>
 8001684:	4602      	mov	r2, r0
 8001686:	693b      	ldr	r3, [r7, #16]
 8001688:	1ad3      	subs	r3, r2, r3
 800168a:	2b02      	cmp	r3, #2
 800168c:	d901      	bls.n	8001692 <HAL_RCC_OscConfig+0x6f6>
              {
                return HAL_TIMEOUT;
 800168e:	2303      	movs	r3, #3
 8001690:	e062      	b.n	8001758 <HAL_RCC_OscConfig+0x7bc>
            while(READ_BIT(RCC->CR, RCC_CR_PLLRDY) == 0U)
 8001692:	4b33      	ldr	r3, [pc, #204]	; (8001760 <HAL_RCC_OscConfig+0x7c4>)
 8001694:	681b      	ldr	r3, [r3, #0]
 8001696:	f003 7300 	and.w	r3, r3, #33554432	; 0x2000000
 800169a:	2b00      	cmp	r3, #0
 800169c:	d0f0      	beq.n	8001680 <HAL_RCC_OscConfig+0x6e4>
        if(sysclk_source != RCC_CFGR_SWS_PLL)
 800169e:	e05a      	b.n	8001756 <HAL_RCC_OscConfig+0x7ba>
          }
        }
        else
        {
          /* PLL is already used as System core clock */
          return HAL_ERROR;
 80016a0:	2301      	movs	r3, #1
 80016a2:	e059      	b.n	8001758 <HAL_RCC_OscConfig+0x7bc>
      }
      else
      {
        /* PLL configuration is unchanged */
        /* Re-enable PLL if it was disabled (ie. low power mode) */
        if(READ_BIT(RCC->CR, RCC_CR_PLLRDY) == 0U)
 80016a4:	4b2e      	ldr	r3, [pc, #184]	; (8001760 <HAL_RCC_OscConfig+0x7c4>)
 80016a6:	681b      	ldr	r3, [r3, #0]
 80016a8:	f003 7300 	and.w	r3, r3, #33554432	; 0x2000000
 80016ac:	2b00      	cmp	r3, #0
 80016ae:	d152      	bne.n	8001756 <HAL_RCC_OscConfig+0x7ba>
        {
          /* Enable the main PLL. */
          __HAL_RCC_PLL_ENABLE();
 80016b0:	4b2b      	ldr	r3, [pc, #172]	; (8001760 <HAL_RCC_OscConfig+0x7c4>)
 80016b2:	681b      	ldr	r3, [r3, #0]
 80016b4:	4a2a      	ldr	r2, [pc, #168]	; (8001760 <HAL_RCC_OscConfig+0x7c4>)
 80016b6:	f043 7380 	orr.w	r3, r3, #16777216	; 0x1000000
 80016ba:	6013      	str	r3, [r2, #0]

          /* Enable PLL System Clock output. */
          __HAL_RCC_PLLCLKOUT_ENABLE(RCC_PLL_SYSCLK);
 80016bc:	4b28      	ldr	r3, [pc, #160]	; (8001760 <HAL_RCC_OscConfig+0x7c4>)
 80016be:	68db      	ldr	r3, [r3, #12]
 80016c0:	4a27      	ldr	r2, [pc, #156]	; (8001760 <HAL_RCC_OscConfig+0x7c4>)
 80016c2:	f043 7380 	orr.w	r3, r3, #16777216	; 0x1000000
 80016c6:	60d3      	str	r3, [r2, #12]

          /* Get Start Tick*/
          tickstart = HAL_GetTick();
 80016c8:	f7ff f952 	bl	8000970 <HAL_GetTick>
 80016cc:	6138      	str	r0, [r7, #16]

          /* Wait till PLL is ready */
          while(READ_BIT(RCC->CR, RCC_CR_PLLRDY) == 0U)
 80016ce:	e008      	b.n	80016e2 <HAL_RCC_OscConfig+0x746>
          {
            if((HAL_GetTick() - tickstart) > PLL_TIMEOUT_VALUE)
 80016d0:	f7ff f94e 	bl	8000970 <HAL_GetTick>
 80016d4:	4602      	mov	r2, r0
 80016d6:	693b      	ldr	r3, [r7, #16]
 80016d8:	1ad3      	subs	r3, r2, r3
 80016da:	2b02      	cmp	r3, #2
 80016dc:	d901      	bls.n	80016e2 <HAL_RCC_OscConfig+0x746>
            {
              return HAL_TIMEOUT;
 80016de:	2303      	movs	r3, #3
 80016e0:	e03a      	b.n	8001758 <HAL_RCC_OscConfig+0x7bc>
          while(READ_BIT(RCC->CR, RCC_CR_PLLRDY) == 0U)
 80016e2:	4b1f      	ldr	r3, [pc, #124]	; (8001760 <HAL_RCC_OscConfig+0x7c4>)
 80016e4:	681b      	ldr	r3, [r3, #0]
 80016e6:	f003 7300 	and.w	r3, r3, #33554432	; 0x2000000
 80016ea:	2b00      	cmp	r3, #0
 80016ec:	d0f0      	beq.n	80016d0 <HAL_RCC_OscConfig+0x734>
 80016ee:	e032      	b.n	8001756 <HAL_RCC_OscConfig+0x7ba>
      }
    }
    else
    {
      /* Check that PLL is not used as system clock or not */
      if(sysclk_source != RCC_CFGR_SWS_PLL)
 80016f0:	69bb      	ldr	r3, [r7, #24]
 80016f2:	2b0c      	cmp	r3, #12
 80016f4:	d02d      	beq.n	8001752 <HAL_RCC_OscConfig+0x7b6>
      {
        /* Disable the main PLL. */
        __HAL_RCC_PLL_DISABLE();
 80016f6:	4b1a      	ldr	r3, [pc, #104]	; (8001760 <HAL_RCC_OscConfig+0x7c4>)
 80016f8:	681b      	ldr	r3, [r3, #0]
 80016fa:	4a19      	ldr	r2, [pc, #100]	; (8001760 <HAL_RCC_OscConfig+0x7c4>)
 80016fc:	f023 7380 	bic.w	r3, r3, #16777216	; 0x1000000
 8001700:	6013      	str	r3, [r2, #0]

        /* Disable all PLL outputs to save power if no PLLs on */
#if defined(RCC_PLLSAI1_SUPPORT) && defined(RCC_CR_PLLSAI2RDY)
        if(READ_BIT(RCC->CR, (RCC_CR_PLLSAI1RDY | RCC_CR_PLLSAI2RDY)) == 0U)
 8001702:	4b17      	ldr	r3, [pc, #92]	; (8001760 <HAL_RCC_OscConfig+0x7c4>)
 8001704:	681b      	ldr	r3, [r3, #0]
 8001706:	f003 5320 	and.w	r3, r3, #671088640	; 0x28000000
 800170a:	2b00      	cmp	r3, #0
 800170c:	d105      	bne.n	800171a <HAL_RCC_OscConfig+0x77e>
        {
          MODIFY_REG(RCC->PLLCFGR, RCC_PLLCFGR_PLLSRC, RCC_PLLSOURCE_NONE);
 800170e:	4b14      	ldr	r3, [pc, #80]	; (8001760 <HAL_RCC_OscConfig+0x7c4>)
 8001710:	68db      	ldr	r3, [r3, #12]
 8001712:	4a13      	ldr	r2, [pc, #76]	; (8001760 <HAL_RCC_OscConfig+0x7c4>)
 8001714:	f023 0303 	bic.w	r3, r3, #3
 8001718:	60d3      	str	r3, [r2, #12]
#else
        MODIFY_REG(RCC->PLLCFGR, RCC_PLLCFGR_PLLSRC, RCC_PLLSOURCE_NONE);
#endif /* RCC_PLLSAI1_SUPPORT && RCC_CR_PLLSAI2RDY */

#if defined(RCC_PLLSAI2_SUPPORT)
        __HAL_RCC_PLLCLKOUT_DISABLE(RCC_PLL_SYSCLK | RCC_PLL_48M1CLK | RCC_PLL_SAI3CLK);
 800171a:	4b11      	ldr	r3, [pc, #68]	; (8001760 <HAL_RCC_OscConfig+0x7c4>)
 800171c:	68db      	ldr	r3, [r3, #12]
 800171e:	4a10      	ldr	r2, [pc, #64]	; (8001760 <HAL_RCC_OscConfig+0x7c4>)
 8001720:	f023 7388 	bic.w	r3, r3, #17825792	; 0x1100000
 8001724:	f423 3380 	bic.w	r3, r3, #65536	; 0x10000
 8001728:	60d3      	str	r3, [r2, #12]
#else
        __HAL_RCC_PLLCLKOUT_DISABLE(RCC_PLL_SYSCLK | RCC_PLL_48M1CLK);
#endif /* RCC_PLLSAI2_SUPPORT */

        /* Get Start Tick*/
        tickstart = HAL_GetTick();
 800172a:	f7ff f921 	bl	8000970 <HAL_GetTick>
 800172e:	6138      	str	r0, [r7, #16]

        /* Wait till PLL is disabled */
        while(READ_BIT(RCC->CR, RCC_CR_PLLRDY) != 0U)
 8001730:	e008      	b.n	8001744 <HAL_RCC_OscConfig+0x7a8>
        {
          if((HAL_GetTick() - tickstart) > PLL_TIMEOUT_VALUE)
 8001732:	f7ff f91d 	bl	8000970 <HAL_GetTick>
 8001736:	4602      	mov	r2, r0
 8001738:	693b      	ldr	r3, [r7, #16]
 800173a:	1ad3      	subs	r3, r2, r3
 800173c:	2b02      	cmp	r3, #2
 800173e:	d901      	bls.n	8001744 <HAL_RCC_OscConfig+0x7a8>
          {
            return HAL_TIMEOUT;
 8001740:	2303      	movs	r3, #3
 8001742:	e009      	b.n	8001758 <HAL_RCC_OscConfig+0x7bc>
        while(READ_BIT(RCC->CR, RCC_CR_PLLRDY) != 0U)
 8001744:	4b06      	ldr	r3, [pc, #24]	; (8001760 <HAL_RCC_OscConfig+0x7c4>)
 8001746:	681b      	ldr	r3, [r3, #0]
 8001748:	f003 7300 	and.w	r3, r3, #33554432	; 0x2000000
 800174c:	2b00      	cmp	r3, #0
 800174e:	d1f0      	bne.n	8001732 <HAL_RCC_OscConfig+0x796>
 8001750:	e001      	b.n	8001756 <HAL_RCC_OscConfig+0x7ba>
        }
      }
      else
      {
        /* PLL is already used as System core clock */
        return HAL_ERROR;
 8001752:	2301      	movs	r3, #1
 8001754:	e000      	b.n	8001758 <HAL_RCC_OscConfig+0x7bc>
      }
    }
  }
  return HAL_OK;
 8001756:	2300      	movs	r3, #0
}
 8001758:	4618      	mov	r0, r3
 800175a:	3720      	adds	r7, #32
 800175c:	46bd      	mov	sp, r7
 800175e:	bd80      	pop	{r7, pc}
 8001760:	40021000 	.word	0x40021000
 8001764:	f99d808c 	.word	0xf99d808c

08001768 <HAL_RCC_ClockConfig>:
  *         HPRE[3:0] bits to ensure that HCLK not exceed the maximum allowed frequency
  *         (for more details refer to section above "Initialization/de-initialization functions")
  * @retval None
  */
HAL_StatusTypeDef HAL_RCC_ClockConfig(RCC_ClkInitTypeDef  *RCC_ClkInitStruct, uint32_t FLatency)
{
 8001768:	b580      	push	{r7, lr}
 800176a:	b084      	sub	sp, #16
 800176c:	af00      	add	r7, sp, #0
 800176e:	6078      	str	r0, [r7, #4]
 8001770:	6039      	str	r1, [r7, #0]
  uint32_t hpre = RCC_SYSCLK_DIV1;
#endif
  HAL_StatusTypeDef status;

  /* Check Null pointer */
  if(RCC_ClkInitStruct == NULL)
 8001772:	687b      	ldr	r3, [r7, #4]
 8001774:	2b00      	cmp	r3, #0
 8001776:	d101      	bne.n	800177c <HAL_RCC_ClockConfig+0x14>
  {
    return HAL_ERROR;
 8001778:	2301      	movs	r3, #1
 800177a:	e0c8      	b.n	800190e <HAL_RCC_ClockConfig+0x1a6>
  /* To correctly read data from FLASH memory, the number of wait states (LATENCY)
    must be correctly programmed according to the frequency of the CPU clock
    (HCLK) and the supply voltage of the device. */

  /* Increasing the number of wait states because of higher CPU frequency */
  if(FLatency > __HAL_FLASH_GET_LATENCY())
 800177c:	4b66      	ldr	r3, [pc, #408]	; (8001918 <HAL_RCC_ClockConfig+0x1b0>)
 800177e:	681b      	ldr	r3, [r3, #0]
 8001780:	f003 0307 	and.w	r3, r3, #7
 8001784:	683a      	ldr	r2, [r7, #0]
 8001786:	429a      	cmp	r2, r3
 8001788:	d910      	bls.n	80017ac <HAL_RCC_ClockConfig+0x44>
  {
    /* Program the new number of wait states to the LATENCY bits in the FLASH_ACR register */
    __HAL_FLASH_SET_LATENCY(FLatency);
 800178a:	4b63      	ldr	r3, [pc, #396]	; (8001918 <HAL_RCC_ClockConfig+0x1b0>)
 800178c:	681b      	ldr	r3, [r3, #0]
 800178e:	f023 0207 	bic.w	r2, r3, #7
 8001792:	4961      	ldr	r1, [pc, #388]	; (8001918 <HAL_RCC_ClockConfig+0x1b0>)
 8001794:	683b      	ldr	r3, [r7, #0]
 8001796:	4313      	orrs	r3, r2
 8001798:	600b      	str	r3, [r1, #0]

    /* Check that the new number of wait states is taken into account to access the Flash
    memory by reading the FLASH_ACR register */
    if(__HAL_FLASH_GET_LATENCY() != FLatency)
 800179a:	4b5f      	ldr	r3, [pc, #380]	; (8001918 <HAL_RCC_ClockConfig+0x1b0>)
 800179c:	681b      	ldr	r3, [r3, #0]
 800179e:	f003 0307 	and.w	r3, r3, #7
 80017a2:	683a      	ldr	r2, [r7, #0]
 80017a4:	429a      	cmp	r2, r3
 80017a6:	d001      	beq.n	80017ac <HAL_RCC_ClockConfig+0x44>
    {
      return HAL_ERROR;
 80017a8:	2301      	movs	r3, #1
 80017aa:	e0b0      	b.n	800190e <HAL_RCC_ClockConfig+0x1a6>
    }
  }

  /*------------------------- SYSCLK Configuration ---------------------------*/
  if(((RCC_ClkInitStruct->ClockType) & RCC_CLOCKTYPE_SYSCLK) == RCC_CLOCKTYPE_SYSCLK)
 80017ac:	687b      	ldr	r3, [r7, #4]
 80017ae:	681b      	ldr	r3, [r3, #0]
 80017b0:	f003 0301 	and.w	r3, r3, #1
 80017b4:	2b00      	cmp	r3, #0
 80017b6:	d04c      	beq.n	8001852 <HAL_RCC_ClockConfig+0xea>
  {
    assert_param(IS_RCC_SYSCLKSOURCE(RCC_ClkInitStruct->SYSCLKSource));

    /* PLL is selected as System Clock Source */
    if(RCC_ClkInitStruct->SYSCLKSource == RCC_SYSCLKSOURCE_PLLCLK)
 80017b8:	687b      	ldr	r3, [r7, #4]
 80017ba:	685b      	ldr	r3, [r3, #4]
 80017bc:	2b03      	cmp	r3, #3
 80017be:	d107      	bne.n	80017d0 <HAL_RCC_ClockConfig+0x68>
    {
      /* Check the PLL ready flag */
      if(READ_BIT(RCC->CR, RCC_CR_PLLRDY) == 0U)
 80017c0:	4b56      	ldr	r3, [pc, #344]	; (800191c <HAL_RCC_ClockConfig+0x1b4>)
 80017c2:	681b      	ldr	r3, [r3, #0]
 80017c4:	f003 7300 	and.w	r3, r3, #33554432	; 0x2000000
 80017c8:	2b00      	cmp	r3, #0
 80017ca:	d121      	bne.n	8001810 <HAL_RCC_ClockConfig+0xa8>
      {
        return HAL_ERROR;
 80017cc:	2301      	movs	r3, #1
 80017ce:	e09e      	b.n	800190e <HAL_RCC_ClockConfig+0x1a6>
#endif
    }
    else
    {
      /* HSE is selected as System Clock Source */
      if(RCC_ClkInitStruct->SYSCLKSource == RCC_SYSCLKSOURCE_HSE)
 80017d0:	687b      	ldr	r3, [r7, #4]
 80017d2:	685b      	ldr	r3, [r3, #4]
 80017d4:	2b02      	cmp	r3, #2
 80017d6:	d107      	bne.n	80017e8 <HAL_RCC_ClockConfig+0x80>
      {
        /* Check the HSE ready flag */
        if(READ_BIT(RCC->CR, RCC_CR_HSERDY) == 0U)
 80017d8:	4b50      	ldr	r3, [pc, #320]	; (800191c <HAL_RCC_ClockConfig+0x1b4>)
 80017da:	681b      	ldr	r3, [r3, #0]
 80017dc:	f403 3300 	and.w	r3, r3, #131072	; 0x20000
 80017e0:	2b00      	cmp	r3, #0
 80017e2:	d115      	bne.n	8001810 <HAL_RCC_ClockConfig+0xa8>
        {
          return HAL_ERROR;
 80017e4:	2301      	movs	r3, #1
 80017e6:	e092      	b.n	800190e <HAL_RCC_ClockConfig+0x1a6>
        }
      }
      /* MSI is selected as System Clock Source */
      else if(RCC_ClkInitStruct->SYSCLKSource == RCC_SYSCLKSOURCE_MSI)
 80017e8:	687b      	ldr	r3, [r7, #4]
 80017ea:	685b      	ldr	r3, [r3, #4]
 80017ec:	2b00      	cmp	r3, #0
 80017ee:	d107      	bne.n	8001800 <HAL_RCC_ClockConfig+0x98>
      {
        /* Check the MSI ready flag */
        if(READ_BIT(RCC->CR, RCC_CR_MSIRDY) == 0U)
 80017f0:	4b4a      	ldr	r3, [pc, #296]	; (800191c <HAL_RCC_ClockConfig+0x1b4>)
 80017f2:	681b      	ldr	r3, [r3, #0]
 80017f4:	f003 0302 	and.w	r3, r3, #2
 80017f8:	2b00      	cmp	r3, #0
 80017fa:	d109      	bne.n	8001810 <HAL_RCC_ClockConfig+0xa8>
        {
          return HAL_ERROR;
 80017fc:	2301      	movs	r3, #1
 80017fe:	e086      	b.n	800190e <HAL_RCC_ClockConfig+0x1a6>
      }
      /* HSI is selected as System Clock Source */
      else
      {
        /* Check the HSI ready flag */
        if(READ_BIT(RCC->CR, RCC_CR_HSIRDY) == 0U)
 8001800:	4b46      	ldr	r3, [pc, #280]	; (800191c <HAL_RCC_ClockConfig+0x1b4>)
 8001802:	681b      	ldr	r3, [r3, #0]
 8001804:	f403 6380 	and.w	r3, r3, #1024	; 0x400
 8001808:	2b00      	cmp	r3, #0
 800180a:	d101      	bne.n	8001810 <HAL_RCC_ClockConfig+0xa8>
        {
          return HAL_ERROR;
 800180c:	2301      	movs	r3, #1
 800180e:	e07e      	b.n	800190e <HAL_RCC_ClockConfig+0x1a6>
      }
#endif

    }

    MODIFY_REG(RCC->CFGR, RCC_CFGR_SW, RCC_ClkInitStruct->SYSCLKSource);
 8001810:	4b42      	ldr	r3, [pc, #264]	; (800191c <HAL_RCC_ClockConfig+0x1b4>)
 8001812:	689b      	ldr	r3, [r3, #8]
 8001814:	f023 0203 	bic.w	r2, r3, #3
 8001818:	687b      	ldr	r3, [r7, #4]
 800181a:	685b      	ldr	r3, [r3, #4]
 800181c:	493f      	ldr	r1, [pc, #252]	; (800191c <HAL_RCC_ClockConfig+0x1b4>)
 800181e:	4313      	orrs	r3, r2
 8001820:	608b      	str	r3, [r1, #8]

    /* Get Start Tick*/
    tickstart = HAL_GetTick();
 8001822:	f7ff f8a5 	bl	8000970 <HAL_GetTick>
 8001826:	60f8      	str	r0, [r7, #12]

    while(__HAL_RCC_GET_SYSCLK_SOURCE() != (RCC_ClkInitStruct->SYSCLKSource << RCC_CFGR_SWS_Pos))
 8001828:	e00a      	b.n	8001840 <HAL_RCC_ClockConfig+0xd8>
    {
      if((HAL_GetTick() - tickstart) > CLOCKSWITCH_TIMEOUT_VALUE)
 800182a:	f7ff f8a1 	bl	8000970 <HAL_GetTick>
 800182e:	4602      	mov	r2, r0
 8001830:	68fb      	ldr	r3, [r7, #12]
 8001832:	1ad3      	subs	r3, r2, r3
 8001834:	f241 3288 	movw	r2, #5000	; 0x1388
 8001838:	4293      	cmp	r3, r2
 800183a:	d901      	bls.n	8001840 <HAL_RCC_ClockConfig+0xd8>
      {
        return HAL_TIMEOUT;
 800183c:	2303      	movs	r3, #3
 800183e:	e066      	b.n	800190e <HAL_RCC_ClockConfig+0x1a6>
    while(__HAL_RCC_GET_SYSCLK_SOURCE() != (RCC_ClkInitStruct->SYSCLKSource << RCC_CFGR_SWS_Pos))
 8001840:	4b36      	ldr	r3, [pc, #216]	; (800191c <HAL_RCC_ClockConfig+0x1b4>)
 8001842:	689b      	ldr	r3, [r3, #8]
 8001844:	f003 020c 	and.w	r2, r3, #12
 8001848:	687b      	ldr	r3, [r7, #4]
 800184a:	685b      	ldr	r3, [r3, #4]
 800184c:	009b      	lsls	r3, r3, #2
 800184e:	429a      	cmp	r2, r3
 8001850:	d1eb      	bne.n	800182a <HAL_RCC_ClockConfig+0xc2>
      }
    }
  }

  /*-------------------------- HCLK Configuration --------------------------*/
  if(((RCC_ClkInitStruct->ClockType) & RCC_CLOCKTYPE_HCLK) == RCC_CLOCKTYPE_HCLK)
 8001852:	687b      	ldr	r3, [r7, #4]
 8001854:	681b      	ldr	r3, [r3, #0]
 8001856:	f003 0302 	and.w	r3, r3, #2
 800185a:	2b00      	cmp	r3, #0
 800185c:	d008      	beq.n	8001870 <HAL_RCC_ClockConfig+0x108>
  {
    assert_param(IS_RCC_HCLK(RCC_ClkInitStruct->AHBCLKDivider));
    MODIFY_REG(RCC->CFGR, RCC_CFGR_HPRE, RCC_ClkInitStruct->AHBCLKDivider);
 800185e:	4b2f      	ldr	r3, [pc, #188]	; (800191c <HAL_RCC_ClockConfig+0x1b4>)
 8001860:	689b      	ldr	r3, [r3, #8]
 8001862:	f023 02f0 	bic.w	r2, r3, #240	; 0xf0
 8001866:	687b      	ldr	r3, [r7, #4]
 8001868:	689b      	ldr	r3, [r3, #8]
 800186a:	492c      	ldr	r1, [pc, #176]	; (800191c <HAL_RCC_ClockConfig+0x1b4>)
 800186c:	4313      	orrs	r3, r2
 800186e:	608b      	str	r3, [r1, #8]
    }
  }
#endif

  /* Decreasing the number of wait states because of lower CPU frequency */
  if(FLatency < __HAL_FLASH_GET_LATENCY())
 8001870:	4b29      	ldr	r3, [pc, #164]	; (8001918 <HAL_RCC_ClockConfig+0x1b0>)
 8001872:	681b      	ldr	r3, [r3, #0]
 8001874:	f003 0307 	and.w	r3, r3, #7
 8001878:	683a      	ldr	r2, [r7, #0]
 800187a:	429a      	cmp	r2, r3
 800187c:	d210      	bcs.n	80018a0 <HAL_RCC_ClockConfig+0x138>
  {
    /* Program the new number of wait states to the LATENCY bits in the FLASH_ACR register */
    __HAL_FLASH_SET_LATENCY(FLatency);
 800187e:	4b26      	ldr	r3, [pc, #152]	; (8001918 <HAL_RCC_ClockConfig+0x1b0>)
 8001880:	681b      	ldr	r3, [r3, #0]
 8001882:	f023 0207 	bic.w	r2, r3, #7
 8001886:	4924      	ldr	r1, [pc, #144]	; (8001918 <HAL_RCC_ClockConfig+0x1b0>)
 8001888:	683b      	ldr	r3, [r7, #0]
 800188a:	4313      	orrs	r3, r2
 800188c:	600b      	str	r3, [r1, #0]

    /* Check that the new number of wait states is taken into account to access the Flash
    memory by reading the FLASH_ACR register */
    if(__HAL_FLASH_GET_LATENCY() != FLatency)
 800188e:	4b22      	ldr	r3, [pc, #136]	; (8001918 <HAL_RCC_ClockConfig+0x1b0>)
 8001890:	681b      	ldr	r3, [r3, #0]
 8001892:	f003 0307 	and.w	r3, r3, #7
 8001896:	683a      	ldr	r2, [r7, #0]
 8001898:	429a      	cmp	r2, r3
 800189a:	d001      	beq.n	80018a0 <HAL_RCC_ClockConfig+0x138>
    {
      return HAL_ERROR;
 800189c:	2301      	movs	r3, #1
 800189e:	e036      	b.n	800190e <HAL_RCC_ClockConfig+0x1a6>
    }
  }

  /*-------------------------- PCLK1 Configuration ---------------------------*/
  if(((RCC_ClkInitStruct->ClockType) & RCC_CLOCKTYPE_PCLK1) == RCC_CLOCKTYPE_PCLK1)
 80018a0:	687b      	ldr	r3, [r7, #4]
 80018a2:	681b      	ldr	r3, [r3, #0]
 80018a4:	f003 0304 	and.w	r3, r3, #4
 80018a8:	2b00      	cmp	r3, #0
 80018aa:	d008      	beq.n	80018be <HAL_RCC_ClockConfig+0x156>
  {
    assert_param(IS_RCC_PCLK(RCC_ClkInitStruct->APB1CLKDivider));
    MODIFY_REG(RCC->CFGR, RCC_CFGR_PPRE1, RCC_ClkInitStruct->APB1CLKDivider);
 80018ac:	4b1b      	ldr	r3, [pc, #108]	; (800191c <HAL_RCC_ClockConfig+0x1b4>)
 80018ae:	689b      	ldr	r3, [r3, #8]
 80018b0:	f423 62e0 	bic.w	r2, r3, #1792	; 0x700
 80018b4:	687b      	ldr	r3, [r7, #4]
 80018b6:	68db      	ldr	r3, [r3, #12]
 80018b8:	4918      	ldr	r1, [pc, #96]	; (800191c <HAL_RCC_ClockConfig+0x1b4>)
 80018ba:	4313      	orrs	r3, r2
 80018bc:	608b      	str	r3, [r1, #8]
  }

  /*-------------------------- PCLK2 Configuration ---------------------------*/
  if(((RCC_ClkInitStruct->ClockType) & RCC_CLOCKTYPE_PCLK2) == RCC_CLOCKTYPE_PCLK2)
 80018be:	687b      	ldr	r3, [r7, #4]
 80018c0:	681b      	ldr	r3, [r3, #0]
 80018c2:	f003 0308 	and.w	r3, r3, #8
 80018c6:	2b00      	cmp	r3, #0
 80018c8:	d009      	beq.n	80018de <HAL_RCC_ClockConfig+0x176>
  {
    assert_param(IS_RCC_PCLK(RCC_ClkInitStruct->APB2CLKDivider));
    MODIFY_REG(RCC->CFGR, RCC_CFGR_PPRE2, ((RCC_ClkInitStruct->APB2CLKDivider) << 3U));
 80018ca:	4b14      	ldr	r3, [pc, #80]	; (800191c <HAL_RCC_ClockConfig+0x1b4>)
 80018cc:	689b      	ldr	r3, [r3, #8]
 80018ce:	f423 5260 	bic.w	r2, r3, #14336	; 0x3800
 80018d2:	687b      	ldr	r3, [r7, #4]
 80018d4:	691b      	ldr	r3, [r3, #16]
 80018d6:	00db      	lsls	r3, r3, #3
 80018d8:	4910      	ldr	r1, [pc, #64]	; (800191c <HAL_RCC_ClockConfig+0x1b4>)
 80018da:	4313      	orrs	r3, r2
 80018dc:	608b      	str	r3, [r1, #8]
  }

  /* Update the SystemCoreClock global variable */
  SystemCoreClock = HAL_RCC_GetSysClockFreq() >> (AHBPrescTable[READ_BIT(RCC->CFGR, RCC_CFGR_HPRE) >> RCC_CFGR_HPRE_Pos] & 0x1FU);
 80018de:	f000 f825 	bl	800192c <HAL_RCC_GetSysClockFreq>
 80018e2:	4601      	mov	r1, r0
 80018e4:	4b0d      	ldr	r3, [pc, #52]	; (800191c <HAL_RCC_ClockConfig+0x1b4>)
 80018e6:	689b      	ldr	r3, [r3, #8]
 80018e8:	091b      	lsrs	r3, r3, #4
 80018ea:	f003 030f 	and.w	r3, r3, #15
 80018ee:	4a0c      	ldr	r2, [pc, #48]	; (8001920 <HAL_RCC_ClockConfig+0x1b8>)
 80018f0:	5cd3      	ldrb	r3, [r2, r3]
 80018f2:	f003 031f 	and.w	r3, r3, #31
 80018f6:	fa21 f303 	lsr.w	r3, r1, r3
 80018fa:	4a0a      	ldr	r2, [pc, #40]	; (8001924 <HAL_RCC_ClockConfig+0x1bc>)
 80018fc:	6013      	str	r3, [r2, #0]

  /* Configure the source of time base considering new system clocks settings*/
  status = HAL_InitTick(uwTickPrio);
 80018fe:	4b0a      	ldr	r3, [pc, #40]	; (8001928 <HAL_RCC_ClockConfig+0x1c0>)
 8001900:	681b      	ldr	r3, [r3, #0]
 8001902:	4618      	mov	r0, r3
 8001904:	f7fe ffe4 	bl	80008d0 <HAL_InitTick>
 8001908:	4603      	mov	r3, r0
 800190a:	72fb      	strb	r3, [r7, #11]

  return status;
 800190c:	7afb      	ldrb	r3, [r7, #11]
}
 800190e:	4618      	mov	r0, r3
 8001910:	3710      	adds	r7, #16
 8001912:	46bd      	mov	sp, r7
 8001914:	bd80      	pop	{r7, pc}
 8001916:	bf00      	nop
 8001918:	40022000 	.word	0x40022000
 800191c:	40021000 	.word	0x40021000
 8001920:	08002db4 	.word	0x08002db4
 8001924:	20000000 	.word	0x20000000
 8001928:	20000004 	.word	0x20000004

0800192c <HAL_RCC_GetSysClockFreq>:
  *
  *
  * @retval SYSCLK frequency
  */
uint32_t HAL_RCC_GetSysClockFreq(void)
{
 800192c:	b480      	push	{r7}
 800192e:	b089      	sub	sp, #36	; 0x24
 8001930:	af00      	add	r7, sp, #0
  uint32_t msirange = 0U, sysclockfreq = 0U;
 8001932:	2300      	movs	r3, #0
 8001934:	61fb      	str	r3, [r7, #28]
 8001936:	2300      	movs	r3, #0
 8001938:	61bb      	str	r3, [r7, #24]
  uint32_t pllvco, pllsource, pllr, pllm;    /* no init needed */
  uint32_t sysclk_source, pll_oscsource;

  sysclk_source = __HAL_RCC_GET_SYSCLK_SOURCE();
 800193a:	4b3d      	ldr	r3, [pc, #244]	; (8001a30 <HAL_RCC_GetSysClockFreq+0x104>)
 800193c:	689b      	ldr	r3, [r3, #8]
 800193e:	f003 030c 	and.w	r3, r3, #12
 8001942:	613b      	str	r3, [r7, #16]
  pll_oscsource = __HAL_RCC_GET_PLL_OSCSOURCE();
 8001944:	4b3a      	ldr	r3, [pc, #232]	; (8001a30 <HAL_RCC_GetSysClockFreq+0x104>)
 8001946:	68db      	ldr	r3, [r3, #12]
 8001948:	f003 0303 	and.w	r3, r3, #3
 800194c:	60fb      	str	r3, [r7, #12]

  if((sysclk_source == RCC_CFGR_SWS_MSI) ||
 800194e:	693b      	ldr	r3, [r7, #16]
 8001950:	2b00      	cmp	r3, #0
 8001952:	d005      	beq.n	8001960 <HAL_RCC_GetSysClockFreq+0x34>
 8001954:	693b      	ldr	r3, [r7, #16]
 8001956:	2b0c      	cmp	r3, #12
 8001958:	d121      	bne.n	800199e <HAL_RCC_GetSysClockFreq+0x72>
     ((sysclk_source == RCC_CFGR_SWS_PLL) && (pll_oscsource == RCC_PLLSOURCE_MSI)))
 800195a:	68fb      	ldr	r3, [r7, #12]
 800195c:	2b01      	cmp	r3, #1
 800195e:	d11e      	bne.n	800199e <HAL_RCC_GetSysClockFreq+0x72>
  {
    /* MSI or PLL with MSI source used as system clock source */

    /* Get SYSCLK source */
    if(READ_BIT(RCC->CR, RCC_CR_MSIRGSEL) == 0U)
 8001960:	4b33      	ldr	r3, [pc, #204]	; (8001a30 <HAL_RCC_GetSysClockFreq+0x104>)
 8001962:	681b      	ldr	r3, [r3, #0]
 8001964:	f003 0308 	and.w	r3, r3, #8
 8001968:	2b00      	cmp	r3, #0
 800196a:	d107      	bne.n	800197c <HAL_RCC_GetSysClockFreq+0x50>
    { /* MSISRANGE from RCC_CSR applies */
      msirange = READ_BIT(RCC->CSR, RCC_CSR_MSISRANGE) >> RCC_CSR_MSISRANGE_Pos;
 800196c:	4b30      	ldr	r3, [pc, #192]	; (8001a30 <HAL_RCC_GetSysClockFreq+0x104>)
 800196e:	f8d3 3094 	ldr.w	r3, [r3, #148]	; 0x94
 8001972:	0a1b      	lsrs	r3, r3, #8
 8001974:	f003 030f 	and.w	r3, r3, #15
 8001978:	61fb      	str	r3, [r7, #28]
 800197a:	e005      	b.n	8001988 <HAL_RCC_GetSysClockFreq+0x5c>
    }
    else
    { /* MSIRANGE from RCC_CR applies */
      msirange = READ_BIT(RCC->CR, RCC_CR_MSIRANGE) >> RCC_CR_MSIRANGE_Pos;
 800197c:	4b2c      	ldr	r3, [pc, #176]	; (8001a30 <HAL_RCC_GetSysClockFreq+0x104>)
 800197e:	681b      	ldr	r3, [r3, #0]
 8001980:	091b      	lsrs	r3, r3, #4
 8001982:	f003 030f 	and.w	r3, r3, #15
 8001986:	61fb      	str	r3, [r7, #28]
    }
    /*MSI frequency range in HZ*/
    msirange = MSIRangeTable[msirange];
 8001988:	4a2a      	ldr	r2, [pc, #168]	; (8001a34 <HAL_RCC_GetSysClockFreq+0x108>)
 800198a:	69fb      	ldr	r3, [r7, #28]
 800198c:	f852 3023 	ldr.w	r3, [r2, r3, lsl #2]
 8001990:	61fb      	str	r3, [r7, #28]

    if(sysclk_source == RCC_CFGR_SWS_MSI)
 8001992:	693b      	ldr	r3, [r7, #16]
 8001994:	2b00      	cmp	r3, #0
 8001996:	d10d      	bne.n	80019b4 <HAL_RCC_GetSysClockFreq+0x88>
    {
      /* MSI used as system clock source */
      sysclockfreq = msirange;
 8001998:	69fb      	ldr	r3, [r7, #28]
 800199a:	61bb      	str	r3, [r7, #24]
    if(sysclk_source == RCC_CFGR_SWS_MSI)
 800199c:	e00a      	b.n	80019b4 <HAL_RCC_GetSysClockFreq+0x88>
    }
  }
  else if(sysclk_source == RCC_CFGR_SWS_HSI)
 800199e:	693b      	ldr	r3, [r7, #16]
 80019a0:	2b04      	cmp	r3, #4
 80019a2:	d102      	bne.n	80019aa <HAL_RCC_GetSysClockFreq+0x7e>
  {
    /* HSI used as system clock source */
    sysclockfreq = HSI_VALUE;
 80019a4:	4b24      	ldr	r3, [pc, #144]	; (8001a38 <HAL_RCC_GetSysClockFreq+0x10c>)
 80019a6:	61bb      	str	r3, [r7, #24]
 80019a8:	e004      	b.n	80019b4 <HAL_RCC_GetSysClockFreq+0x88>
  }
  else if(sysclk_source == RCC_CFGR_SWS_HSE)
 80019aa:	693b      	ldr	r3, [r7, #16]
 80019ac:	2b08      	cmp	r3, #8
 80019ae:	d101      	bne.n	80019b4 <HAL_RCC_GetSysClockFreq+0x88>
  {
    /* HSE used as system clock source */
    sysclockfreq = HSE_VALUE;
 80019b0:	4b22      	ldr	r3, [pc, #136]	; (8001a3c <HAL_RCC_GetSysClockFreq+0x110>)
 80019b2:	61bb      	str	r3, [r7, #24]
  else
  {
    /* unexpected case: sysclockfreq at 0 */
  }

  if(sysclk_source == RCC_CFGR_SWS_PLL)
 80019b4:	693b      	ldr	r3, [r7, #16]
 80019b6:	2b0c      	cmp	r3, #12
 80019b8:	d133      	bne.n	8001a22 <HAL_RCC_GetSysClockFreq+0xf6>
    /* PLL used as system clock  source */

    /* PLL_VCO = (HSE_VALUE or HSI_VALUE or MSI_VALUE) * PLLN / PLLM
    SYSCLK = PLL_VCO / PLLR
    */
    pllsource = READ_BIT(RCC->PLLCFGR, RCC_PLLCFGR_PLLSRC);
 80019ba:	4b1d      	ldr	r3, [pc, #116]	; (8001a30 <HAL_RCC_GetSysClockFreq+0x104>)
 80019bc:	68db      	ldr	r3, [r3, #12]
 80019be:	f003 0303 	and.w	r3, r3, #3
 80019c2:	60bb      	str	r3, [r7, #8]

    switch (pllsource)
 80019c4:	68bb      	ldr	r3, [r7, #8]
 80019c6:	2b02      	cmp	r3, #2
 80019c8:	d002      	beq.n	80019d0 <HAL_RCC_GetSysClockFreq+0xa4>
 80019ca:	2b03      	cmp	r3, #3
 80019cc:	d003      	beq.n	80019d6 <HAL_RCC_GetSysClockFreq+0xaa>
 80019ce:	e005      	b.n	80019dc <HAL_RCC_GetSysClockFreq+0xb0>
    {
    case RCC_PLLSOURCE_HSI:  /* HSI used as PLL clock source */
      pllvco = HSI_VALUE;
 80019d0:	4b19      	ldr	r3, [pc, #100]	; (8001a38 <HAL_RCC_GetSysClockFreq+0x10c>)
 80019d2:	617b      	str	r3, [r7, #20]
      break;
 80019d4:	e005      	b.n	80019e2 <HAL_RCC_GetSysClockFreq+0xb6>

    case RCC_PLLSOURCE_HSE:  /* HSE used as PLL clock source */
      pllvco = HSE_VALUE;
 80019d6:	4b19      	ldr	r3, [pc, #100]	; (8001a3c <HAL_RCC_GetSysClockFreq+0x110>)
 80019d8:	617b      	str	r3, [r7, #20]
      break;
 80019da:	e002      	b.n	80019e2 <HAL_RCC_GetSysClockFreq+0xb6>

    case RCC_PLLSOURCE_MSI:  /* MSI used as PLL clock source */
    default:
      pllvco = msirange;
 80019dc:	69fb      	ldr	r3, [r7, #28]
 80019de:	617b      	str	r3, [r7, #20]
      break;
 80019e0:	bf00      	nop
    }
    pllm = (READ_BIT(RCC->PLLCFGR, RCC_PLLCFGR_PLLM) >> RCC_PLLCFGR_PLLM_Pos) + 1U ;
 80019e2:	4b13      	ldr	r3, [pc, #76]	; (8001a30 <HAL_RCC_GetSysClockFreq+0x104>)
 80019e4:	68db      	ldr	r3, [r3, #12]
 80019e6:	091b      	lsrs	r3, r3, #4
 80019e8:	f003 0307 	and.w	r3, r3, #7
 80019ec:	3301      	adds	r3, #1
 80019ee:	607b      	str	r3, [r7, #4]
    pllvco = (pllvco * (READ_BIT(RCC->PLLCFGR, RCC_PLLCFGR_PLLN) >> RCC_PLLCFGR_PLLN_Pos)) / pllm;
 80019f0:	4b0f      	ldr	r3, [pc, #60]	; (8001a30 <HAL_RCC_GetSysClockFreq+0x104>)
 80019f2:	68db      	ldr	r3, [r3, #12]
 80019f4:	0a1b      	lsrs	r3, r3, #8
 80019f6:	f003 037f 	and.w	r3, r3, #127	; 0x7f
 80019fa:	697a      	ldr	r2, [r7, #20]
 80019fc:	fb02 f203 	mul.w	r2, r2, r3
 8001a00:	687b      	ldr	r3, [r7, #4]
 8001a02:	fbb2 f3f3 	udiv	r3, r2, r3
 8001a06:	617b      	str	r3, [r7, #20]
    pllr = ((READ_BIT(RCC->PLLCFGR, RCC_PLLCFGR_PLLR) >> RCC_PLLCFGR_PLLR_Pos) + 1U ) * 2U;
 8001a08:	4b09      	ldr	r3, [pc, #36]	; (8001a30 <HAL_RCC_GetSysClockFreq+0x104>)
 8001a0a:	68db      	ldr	r3, [r3, #12]
 8001a0c:	0e5b      	lsrs	r3, r3, #25
 8001a0e:	f003 0303 	and.w	r3, r3, #3
 8001a12:	3301      	adds	r3, #1
 8001a14:	005b      	lsls	r3, r3, #1
 8001a16:	603b      	str	r3, [r7, #0]
    sysclockfreq = pllvco / pllr;
 8001a18:	697a      	ldr	r2, [r7, #20]
 8001a1a:	683b      	ldr	r3, [r7, #0]
 8001a1c:	fbb2 f3f3 	udiv	r3, r2, r3
 8001a20:	61bb      	str	r3, [r7, #24]
  }

  return sysclockfreq;
 8001a22:	69bb      	ldr	r3, [r7, #24]
}
 8001a24:	4618      	mov	r0, r3
 8001a26:	3724      	adds	r7, #36	; 0x24
 8001a28:	46bd      	mov	sp, r7
 8001a2a:	f85d 7b04 	ldr.w	r7, [sp], #4
 8001a2e:	4770      	bx	lr
 8001a30:	40021000 	.word	0x40021000
 8001a34:	08002dcc 	.word	0x08002dcc
 8001a38:	00f42400 	.word	0x00f42400
 8001a3c:	007a1200 	.word	0x007a1200

08001a40 <HAL_RCC_GetHCLKFreq>:
  *
  * @note   The SystemCoreClock CMSIS variable is used to store System Clock Frequency.
  * @retval HCLK frequency in Hz
  */
uint32_t HAL_RCC_GetHCLKFreq(void)
{
 8001a40:	b480      	push	{r7}
 8001a42:	af00      	add	r7, sp, #0
  return SystemCoreClock;
 8001a44:	4b03      	ldr	r3, [pc, #12]	; (8001a54 <HAL_RCC_GetHCLKFreq+0x14>)
 8001a46:	681b      	ldr	r3, [r3, #0]
}
 8001a48:	4618      	mov	r0, r3
 8001a4a:	46bd      	mov	sp, r7
 8001a4c:	f85d 7b04 	ldr.w	r7, [sp], #4
 8001a50:	4770      	bx	lr
 8001a52:	bf00      	nop
 8001a54:	20000000 	.word	0x20000000

08001a58 <HAL_RCC_GetPCLK1Freq>:
  * @note   Each time PCLK1 changes, this function must be called to update the
  *         right PCLK1 value. Otherwise, any configuration based on this function will be incorrect.
  * @retval PCLK1 frequency in Hz
  */
uint32_t HAL_RCC_GetPCLK1Freq(void)
{
 8001a58:	b580      	push	{r7, lr}
 8001a5a:	af00      	add	r7, sp, #0
  /* Get HCLK source and Compute PCLK1 frequency ---------------------------*/
  return (HAL_RCC_GetHCLKFreq() >> (APBPrescTable[READ_BIT(RCC->CFGR, RCC_CFGR_PPRE1) >> RCC_CFGR_PPRE1_Pos] & 0x1FU));
 8001a5c:	f7ff fff0 	bl	8001a40 <HAL_RCC_GetHCLKFreq>
 8001a60:	4601      	mov	r1, r0
 8001a62:	4b06      	ldr	r3, [pc, #24]	; (8001a7c <HAL_RCC_GetPCLK1Freq+0x24>)
 8001a64:	689b      	ldr	r3, [r3, #8]
 8001a66:	0a1b      	lsrs	r3, r3, #8
 8001a68:	f003 0307 	and.w	r3, r3, #7
 8001a6c:	4a04      	ldr	r2, [pc, #16]	; (8001a80 <HAL_RCC_GetPCLK1Freq+0x28>)
 8001a6e:	5cd3      	ldrb	r3, [r2, r3]
 8001a70:	f003 031f 	and.w	r3, r3, #31
 8001a74:	fa21 f303 	lsr.w	r3, r1, r3
}
 8001a78:	4618      	mov	r0, r3
 8001a7a:	bd80      	pop	{r7, pc}
 8001a7c:	40021000 	.word	0x40021000
 8001a80:	08002dc4 	.word	0x08002dc4

08001a84 <HAL_RCC_GetPCLK2Freq>:
  * @note   Each time PCLK2 changes, this function must be called to update the
  *         right PCLK2 value. Otherwise, any configuration based on this function will be incorrect.
  * @retval PCLK2 frequency in Hz
  */
uint32_t HAL_RCC_GetPCLK2Freq(void)
{
 8001a84:	b580      	push	{r7, lr}
 8001a86:	af00      	add	r7, sp, #0
  /* Get HCLK source and Compute PCLK2 frequency ---------------------------*/
  return (HAL_RCC_GetHCLKFreq()>> (APBPrescTable[READ_BIT(RCC->CFGR, RCC_CFGR_PPRE2) >> RCC_CFGR_PPRE2_Pos] & 0x1FU));
 8001a88:	f7ff ffda 	bl	8001a40 <HAL_RCC_GetHCLKFreq>
 8001a8c:	4601      	mov	r1, r0
 8001a8e:	4b06      	ldr	r3, [pc, #24]	; (8001aa8 <HAL_RCC_GetPCLK2Freq+0x24>)
 8001a90:	689b      	ldr	r3, [r3, #8]
 8001a92:	0adb      	lsrs	r3, r3, #11
 8001a94:	f003 0307 	and.w	r3, r3, #7
 8001a98:	4a04      	ldr	r2, [pc, #16]	; (8001aac <HAL_RCC_GetPCLK2Freq+0x28>)
 8001a9a:	5cd3      	ldrb	r3, [r2, r3]
 8001a9c:	f003 031f 	and.w	r3, r3, #31
 8001aa0:	fa21 f303 	lsr.w	r3, r1, r3
}
 8001aa4:	4618      	mov	r0, r3
 8001aa6:	bd80      	pop	{r7, pc}
 8001aa8:	40021000 	.word	0x40021000
 8001aac:	08002dc4 	.word	0x08002dc4

08001ab0 <RCC_SetFlashLatencyFromMSIRange>:
            voltage range.
  * @param  msirange  MSI range value from RCC_MSIRANGE_0 to RCC_MSIRANGE_11
  * @retval HAL status
  */
static HAL_StatusTypeDef RCC_SetFlashLatencyFromMSIRange(uint32_t msirange)
{
 8001ab0:	b580      	push	{r7, lr}
 8001ab2:	b086      	sub	sp, #24
 8001ab4:	af00      	add	r7, sp, #0
 8001ab6:	6078      	str	r0, [r7, #4]
  uint32_t vos;
  uint32_t latency = FLASH_LATENCY_0;  /* default value 0WS */
 8001ab8:	2300      	movs	r3, #0
 8001aba:	613b      	str	r3, [r7, #16]

  if(__HAL_RCC_PWR_IS_CLK_ENABLED())
 8001abc:	4b2a      	ldr	r3, [pc, #168]	; (8001b68 <RCC_SetFlashLatencyFromMSIRange+0xb8>)
 8001abe:	6d9b      	ldr	r3, [r3, #88]	; 0x58
 8001ac0:	f003 5380 	and.w	r3, r3, #268435456	; 0x10000000
 8001ac4:	2b00      	cmp	r3, #0
 8001ac6:	d003      	beq.n	8001ad0 <RCC_SetFlashLatencyFromMSIRange+0x20>
  {
    vos = HAL_PWREx_GetVoltageRange();
 8001ac8:	f7ff fa04 	bl	8000ed4 <HAL_PWREx_GetVoltageRange>
 8001acc:	6178      	str	r0, [r7, #20]
 8001ace:	e014      	b.n	8001afa <RCC_SetFlashLatencyFromMSIRange+0x4a>
  }
  else
  {
    __HAL_RCC_PWR_CLK_ENABLE();
 8001ad0:	4b25      	ldr	r3, [pc, #148]	; (8001b68 <RCC_SetFlashLatencyFromMSIRange+0xb8>)
 8001ad2:	6d9b      	ldr	r3, [r3, #88]	; 0x58
 8001ad4:	4a24      	ldr	r2, [pc, #144]	; (8001b68 <RCC_SetFlashLatencyFromMSIRange+0xb8>)
 8001ad6:	f043 5380 	orr.w	r3, r3, #268435456	; 0x10000000
 8001ada:	6593      	str	r3, [r2, #88]	; 0x58
 8001adc:	4b22      	ldr	r3, [pc, #136]	; (8001b68 <RCC_SetFlashLatencyFromMSIRange+0xb8>)
 8001ade:	6d9b      	ldr	r3, [r3, #88]	; 0x58
 8001ae0:	f003 5380 	and.w	r3, r3, #268435456	; 0x10000000
 8001ae4:	60fb      	str	r3, [r7, #12]
 8001ae6:	68fb      	ldr	r3, [r7, #12]
    vos = HAL_PWREx_GetVoltageRange();
 8001ae8:	f7ff f9f4 	bl	8000ed4 <HAL_PWREx_GetVoltageRange>
 8001aec:	6178      	str	r0, [r7, #20]
    __HAL_RCC_PWR_CLK_DISABLE();
 8001aee:	4b1e      	ldr	r3, [pc, #120]	; (8001b68 <RCC_SetFlashLatencyFromMSIRange+0xb8>)
 8001af0:	6d9b      	ldr	r3, [r3, #88]	; 0x58
 8001af2:	4a1d      	ldr	r2, [pc, #116]	; (8001b68 <RCC_SetFlashLatencyFromMSIRange+0xb8>)
 8001af4:	f023 5380 	bic.w	r3, r3, #268435456	; 0x10000000
 8001af8:	6593      	str	r3, [r2, #88]	; 0x58
  }

  if(vos == PWR_REGULATOR_VOLTAGE_SCALE1)
 8001afa:	697b      	ldr	r3, [r7, #20]
 8001afc:	f5b3 7f00 	cmp.w	r3, #512	; 0x200
 8001b00:	d10b      	bne.n	8001b1a <RCC_SetFlashLatencyFromMSIRange+0x6a>
  {
    if(msirange > RCC_MSIRANGE_8)
 8001b02:	687b      	ldr	r3, [r7, #4]
 8001b04:	2b80      	cmp	r3, #128	; 0x80
 8001b06:	d919      	bls.n	8001b3c <RCC_SetFlashLatencyFromMSIRange+0x8c>
    {
      /* MSI > 16Mhz */
      if(msirange > RCC_MSIRANGE_10)
 8001b08:	687b      	ldr	r3, [r7, #4]
 8001b0a:	2ba0      	cmp	r3, #160	; 0xa0
 8001b0c:	d902      	bls.n	8001b14 <RCC_SetFlashLatencyFromMSIRange+0x64>
      {
        /* MSI 48Mhz */
        latency = FLASH_LATENCY_2; /* 2WS */
 8001b0e:	2302      	movs	r3, #2
 8001b10:	613b      	str	r3, [r7, #16]
 8001b12:	e013      	b.n	8001b3c <RCC_SetFlashLatencyFromMSIRange+0x8c>
      }
      else
      {
        /* MSI 24Mhz or 32Mhz */
        latency = FLASH_LATENCY_1; /* 1WS */
 8001b14:	2301      	movs	r3, #1
 8001b16:	613b      	str	r3, [r7, #16]
 8001b18:	e010      	b.n	8001b3c <RCC_SetFlashLatencyFromMSIRange+0x8c>
        latency = FLASH_LATENCY_1; /* 1WS */
      }
      /* else MSI < 8Mhz default FLASH_LATENCY_0 0WS */
    }
#else
    if(msirange > RCC_MSIRANGE_8)
 8001b1a:	687b      	ldr	r3, [r7, #4]
 8001b1c:	2b80      	cmp	r3, #128	; 0x80
 8001b1e:	d902      	bls.n	8001b26 <RCC_SetFlashLatencyFromMSIRange+0x76>
    {
      /* MSI > 16Mhz */
      latency = FLASH_LATENCY_3; /* 3WS */
 8001b20:	2303      	movs	r3, #3
 8001b22:	613b      	str	r3, [r7, #16]
 8001b24:	e00a      	b.n	8001b3c <RCC_SetFlashLatencyFromMSIRange+0x8c>
    }
    else
    {
      if(msirange == RCC_MSIRANGE_8)
 8001b26:	687b      	ldr	r3, [r7, #4]
 8001b28:	2b80      	cmp	r3, #128	; 0x80
 8001b2a:	d102      	bne.n	8001b32 <RCC_SetFlashLatencyFromMSIRange+0x82>
      {
        /* MSI 16Mhz */
        latency = FLASH_LATENCY_2; /* 2WS */
 8001b2c:	2302      	movs	r3, #2
 8001b2e:	613b      	str	r3, [r7, #16]
 8001b30:	e004      	b.n	8001b3c <RCC_SetFlashLatencyFromMSIRange+0x8c>
      }
      else if(msirange == RCC_MSIRANGE_7)
 8001b32:	687b      	ldr	r3, [r7, #4]
 8001b34:	2b70      	cmp	r3, #112	; 0x70
 8001b36:	d101      	bne.n	8001b3c <RCC_SetFlashLatencyFromMSIRange+0x8c>
      {
        /* MSI 8Mhz */
        latency = FLASH_LATENCY_1; /* 1WS */
 8001b38:	2301      	movs	r3, #1
 8001b3a:	613b      	str	r3, [r7, #16]
      /* else MSI < 8Mhz default FLASH_LATENCY_0 0WS */
    }
#endif
  }

  __HAL_FLASH_SET_LATENCY(latency);
 8001b3c:	4b0b      	ldr	r3, [pc, #44]	; (8001b6c <RCC_SetFlashLatencyFromMSIRange+0xbc>)
 8001b3e:	681b      	ldr	r3, [r3, #0]
 8001b40:	f023 0207 	bic.w	r2, r3, #7
 8001b44:	4909      	ldr	r1, [pc, #36]	; (8001b6c <RCC_SetFlashLatencyFromMSIRange+0xbc>)
 8001b46:	693b      	ldr	r3, [r7, #16]
 8001b48:	4313      	orrs	r3, r2
 8001b4a:	600b      	str	r3, [r1, #0]

  /* Check that the new number of wait states is taken into account to access the Flash
     memory by reading the FLASH_ACR register */
  if(__HAL_FLASH_GET_LATENCY() != latency)
 8001b4c:	4b07      	ldr	r3, [pc, #28]	; (8001b6c <RCC_SetFlashLatencyFromMSIRange+0xbc>)
 8001b4e:	681b      	ldr	r3, [r3, #0]
 8001b50:	f003 0307 	and.w	r3, r3, #7
 8001b54:	693a      	ldr	r2, [r7, #16]
 8001b56:	429a      	cmp	r2, r3
 8001b58:	d001      	beq.n	8001b5e <RCC_SetFlashLatencyFromMSIRange+0xae>
  {
    return HAL_ERROR;
 8001b5a:	2301      	movs	r3, #1
 8001b5c:	e000      	b.n	8001b60 <RCC_SetFlashLatencyFromMSIRange+0xb0>
  }

  return HAL_OK;
 8001b5e:	2300      	movs	r3, #0
}
 8001b60:	4618      	mov	r0, r3
 8001b62:	3718      	adds	r7, #24
 8001b64:	46bd      	mov	sp, r7
 8001b66:	bd80      	pop	{r7, pc}
 8001b68:	40021000 	.word	0x40021000
 8001b6c:	40022000 	.word	0x40022000

08001b70 <HAL_RCCEx_PeriphCLKConfig>:
  *         the RTC clock source: in this case the access to Backup domain is enabled.
  *
  * @retval HAL status
  */
HAL_StatusTypeDef HAL_RCCEx_PeriphCLKConfig(RCC_PeriphCLKInitTypeDef  *PeriphClkInit)
{
 8001b70:	b580      	push	{r7, lr}
 8001b72:	b086      	sub	sp, #24
 8001b74:	af00      	add	r7, sp, #0
 8001b76:	6078      	str	r0, [r7, #4]
  uint32_t tmpregister, tickstart;     /* no init needed */
  HAL_StatusTypeDef ret = HAL_OK;      /* Intermediate status */
 8001b78:	2300      	movs	r3, #0
 8001b7a:	74fb      	strb	r3, [r7, #19]
  HAL_StatusTypeDef status = HAL_OK;   /* Final status */
 8001b7c:	2300      	movs	r3, #0
 8001b7e:	74bb      	strb	r3, [r7, #18]
  assert_param(IS_RCC_PERIPHCLOCK(PeriphClkInit->PeriphClockSelection));

#if defined(SAI1)

  /*-------------------------- SAI1 clock source configuration ---------------------*/
  if((((PeriphClkInit->PeriphClockSelection) & RCC_PERIPHCLK_SAI1) == RCC_PERIPHCLK_SAI1))
 8001b80:	687b      	ldr	r3, [r7, #4]
 8001b82:	681b      	ldr	r3, [r3, #0]
 8001b84:	f403 6300 	and.w	r3, r3, #2048	; 0x800
 8001b88:	2b00      	cmp	r3, #0
 8001b8a:	d03f      	beq.n	8001c0c <HAL_RCCEx_PeriphCLKConfig+0x9c>
  {
    /* Check the parameters */
    assert_param(IS_RCC_SAI1CLK(PeriphClkInit->Sai1ClockSelection));

    switch(PeriphClkInit->Sai1ClockSelection)
 8001b8c:	687b      	ldr	r3, [r7, #4]
 8001b8e:	6e5b      	ldr	r3, [r3, #100]	; 0x64
 8001b90:	f5b3 0f80 	cmp.w	r3, #4194304	; 0x400000
 8001b94:	d01c      	beq.n	8001bd0 <HAL_RCCEx_PeriphCLKConfig+0x60>
 8001b96:	f5b3 0f80 	cmp.w	r3, #4194304	; 0x400000
 8001b9a:	d802      	bhi.n	8001ba2 <HAL_RCCEx_PeriphCLKConfig+0x32>
 8001b9c:	2b00      	cmp	r3, #0
 8001b9e:	d00e      	beq.n	8001bbe <HAL_RCCEx_PeriphCLKConfig+0x4e>
 8001ba0:	e01f      	b.n	8001be2 <HAL_RCCEx_PeriphCLKConfig+0x72>
 8001ba2:	f5b3 0f00 	cmp.w	r3, #8388608	; 0x800000
 8001ba6:	d003      	beq.n	8001bb0 <HAL_RCCEx_PeriphCLKConfig+0x40>
 8001ba8:	f5b3 0f40 	cmp.w	r3, #12582912	; 0xc00000
 8001bac:	d01c      	beq.n	8001be8 <HAL_RCCEx_PeriphCLKConfig+0x78>
 8001bae:	e018      	b.n	8001be2 <HAL_RCCEx_PeriphCLKConfig+0x72>
    {
    case RCC_SAI1CLKSOURCE_PLL:      /* PLL is used as clock source for SAI1*/
      /* Enable SAI Clock output generated from System PLL . */
#if defined(RCC_PLLSAI2_SUPPORT)
      __HAL_RCC_PLLCLKOUT_ENABLE(RCC_PLL_SAI3CLK);
 8001bb0:	4b85      	ldr	r3, [pc, #532]	; (8001dc8 <HAL_RCCEx_PeriphCLKConfig+0x258>)
 8001bb2:	68db      	ldr	r3, [r3, #12]
 8001bb4:	4a84      	ldr	r2, [pc, #528]	; (8001dc8 <HAL_RCCEx_PeriphCLKConfig+0x258>)
 8001bb6:	f443 3380 	orr.w	r3, r3, #65536	; 0x10000
 8001bba:	60d3      	str	r3, [r2, #12]
#else
      __HAL_RCC_PLLCLKOUT_ENABLE(RCC_PLL_SAI2CLK);
#endif /* RCC_PLLSAI2_SUPPORT */
      /* SAI1 clock source config set later after clock selection check */
      break;
 8001bbc:	e015      	b.n	8001bea <HAL_RCCEx_PeriphCLKConfig+0x7a>

    case RCC_SAI1CLKSOURCE_PLLSAI1:  /* PLLSAI1 is used as clock source for SAI1*/
      /* PLLSAI1 input clock, parameters M, N & P configuration and clock output (PLLSAI1ClockOut) */
      ret = RCCEx_PLLSAI1_Config(&(PeriphClkInit->PLLSAI1), DIVIDER_P_UPDATE);
 8001bbe:	687b      	ldr	r3, [r7, #4]
 8001bc0:	3304      	adds	r3, #4
 8001bc2:	2100      	movs	r1, #0
 8001bc4:	4618      	mov	r0, r3
 8001bc6:	f000 fab9 	bl	800213c <RCCEx_PLLSAI1_Config>
 8001bca:	4603      	mov	r3, r0
 8001bcc:	74fb      	strb	r3, [r7, #19]
      /* SAI1 clock source config set later after clock selection check */
      break;
 8001bce:	e00c      	b.n	8001bea <HAL_RCCEx_PeriphCLKConfig+0x7a>

#if defined(RCC_PLLSAI2_SUPPORT)

    case RCC_SAI1CLKSOURCE_PLLSAI2:  /* PLLSAI2 is used as clock source for SAI1*/
      /* PLLSAI2 input clock, parameters M, N & P configuration clock output (PLLSAI2ClockOut) */
      ret = RCCEx_PLLSAI2_Config(&(PeriphClkInit->PLLSAI2), DIVIDER_P_UPDATE);
 8001bd0:	687b      	ldr	r3, [r7, #4]
 8001bd2:	3320      	adds	r3, #32
 8001bd4:	2100      	movs	r1, #0
 8001bd6:	4618      	mov	r0, r3
 8001bd8:	f000 fba0 	bl	800231c <RCCEx_PLLSAI2_Config>
 8001bdc:	4603      	mov	r3, r0
 8001bde:	74fb      	strb	r3, [r7, #19]
      /* SAI1 clock source config set later after clock selection check */
      break;
 8001be0:	e003      	b.n	8001bea <HAL_RCCEx_PeriphCLKConfig+0x7a>
#endif /* STM32L4P5xx || STM32L4Q5xx || STM32L4R5xx || STM32L4R7xx || STM32L4R9xx || STM32L4S5xx || STM32L4S7xx || STM32L4S9xx */
      /* SAI1 clock source config set later after clock selection check */
      break;

    default:
      ret = HAL_ERROR;
 8001be2:	2301      	movs	r3, #1
 8001be4:	74fb      	strb	r3, [r7, #19]
      break;
 8001be6:	e000      	b.n	8001bea <HAL_RCCEx_PeriphCLKConfig+0x7a>
      break;
 8001be8:	bf00      	nop
    }

    if(ret == HAL_OK)
 8001bea:	7cfb      	ldrb	r3, [r7, #19]
 8001bec:	2b00      	cmp	r3, #0
 8001bee:	d10b      	bne.n	8001c08 <HAL_RCCEx_PeriphCLKConfig+0x98>
    {
      /* Set the source of SAI1 clock*/
      __HAL_RCC_SAI1_CONFIG(PeriphClkInit->Sai1ClockSelection);
 8001bf0:	4b75      	ldr	r3, [pc, #468]	; (8001dc8 <HAL_RCCEx_PeriphCLKConfig+0x258>)
 8001bf2:	f8d3 3088 	ldr.w	r3, [r3, #136]	; 0x88
 8001bf6:	f423 0240 	bic.w	r2, r3, #12582912	; 0xc00000
 8001bfa:	687b      	ldr	r3, [r7, #4]
 8001bfc:	6e5b      	ldr	r3, [r3, #100]	; 0x64
 8001bfe:	4972      	ldr	r1, [pc, #456]	; (8001dc8 <HAL_RCCEx_PeriphCLKConfig+0x258>)
 8001c00:	4313      	orrs	r3, r2
 8001c02:	f8c1 3088 	str.w	r3, [r1, #136]	; 0x88
 8001c06:	e001      	b.n	8001c0c <HAL_RCCEx_PeriphCLKConfig+0x9c>
    }
    else
    {
      /* set overall return value */
      status = ret;
 8001c08:	7cfb      	ldrb	r3, [r7, #19]
 8001c0a:	74bb      	strb	r3, [r7, #18]
#endif /* SAI1 */

#if defined(SAI2)

  /*-------------------------- SAI2 clock source configuration ---------------------*/
  if((((PeriphClkInit->PeriphClockSelection) & RCC_PERIPHCLK_SAI2) == RCC_PERIPHCLK_SAI2))
 8001c0c:	687b      	ldr	r3, [r7, #4]
 8001c0e:	681b      	ldr	r3, [r3, #0]
 8001c10:	f403 5380 	and.w	r3, r3, #4096	; 0x1000
 8001c14:	2b00      	cmp	r3, #0
 8001c16:	d03f      	beq.n	8001c98 <HAL_RCCEx_PeriphCLKConfig+0x128>
  {
    /* Check the parameters */
    assert_param(IS_RCC_SAI2CLK(PeriphClkInit->Sai2ClockSelection));

    switch(PeriphClkInit->Sai2ClockSelection)
 8001c18:	687b      	ldr	r3, [r7, #4]
 8001c1a:	6e9b      	ldr	r3, [r3, #104]	; 0x68
 8001c1c:	f1b3 7f80 	cmp.w	r3, #16777216	; 0x1000000
 8001c20:	d01c      	beq.n	8001c5c <HAL_RCCEx_PeriphCLKConfig+0xec>
 8001c22:	f1b3 7f80 	cmp.w	r3, #16777216	; 0x1000000
 8001c26:	d802      	bhi.n	8001c2e <HAL_RCCEx_PeriphCLKConfig+0xbe>
 8001c28:	2b00      	cmp	r3, #0
 8001c2a:	d00e      	beq.n	8001c4a <HAL_RCCEx_PeriphCLKConfig+0xda>
 8001c2c:	e01f      	b.n	8001c6e <HAL_RCCEx_PeriphCLKConfig+0xfe>
 8001c2e:	f1b3 7f00 	cmp.w	r3, #33554432	; 0x2000000
 8001c32:	d003      	beq.n	8001c3c <HAL_RCCEx_PeriphCLKConfig+0xcc>
 8001c34:	f1b3 7f40 	cmp.w	r3, #50331648	; 0x3000000
 8001c38:	d01c      	beq.n	8001c74 <HAL_RCCEx_PeriphCLKConfig+0x104>
 8001c3a:	e018      	b.n	8001c6e <HAL_RCCEx_PeriphCLKConfig+0xfe>
    {
    case RCC_SAI2CLKSOURCE_PLL:      /* PLL is used as clock source for SAI2*/
      /* Enable SAI Clock output generated from System PLL . */
      __HAL_RCC_PLLCLKOUT_ENABLE(RCC_PLL_SAI3CLK);
 8001c3c:	4b62      	ldr	r3, [pc, #392]	; (8001dc8 <HAL_RCCEx_PeriphCLKConfig+0x258>)
 8001c3e:	68db      	ldr	r3, [r3, #12]
 8001c40:	4a61      	ldr	r2, [pc, #388]	; (8001dc8 <HAL_RCCEx_PeriphCLKConfig+0x258>)
 8001c42:	f443 3380 	orr.w	r3, r3, #65536	; 0x10000
 8001c46:	60d3      	str	r3, [r2, #12]
      /* SAI2 clock source config set later after clock selection check */
      break;
 8001c48:	e015      	b.n	8001c76 <HAL_RCCEx_PeriphCLKConfig+0x106>

    case RCC_SAI2CLKSOURCE_PLLSAI1: /* PLLSAI1 is used as clock source for SAI2*/
      /* PLLSAI1 input clock, parameters M, N & P configuration and clock output (PLLSAI1ClockOut) */
      ret = RCCEx_PLLSAI1_Config(&(PeriphClkInit->PLLSAI1), DIVIDER_P_UPDATE);
 8001c4a:	687b      	ldr	r3, [r7, #4]
 8001c4c:	3304      	adds	r3, #4
 8001c4e:	2100      	movs	r1, #0
 8001c50:	4618      	mov	r0, r3
 8001c52:	f000 fa73 	bl	800213c <RCCEx_PLLSAI1_Config>
 8001c56:	4603      	mov	r3, r0
 8001c58:	74fb      	strb	r3, [r7, #19]
      /* SAI2 clock source config set later after clock selection check */
      break;
 8001c5a:	e00c      	b.n	8001c76 <HAL_RCCEx_PeriphCLKConfig+0x106>

    case RCC_SAI2CLKSOURCE_PLLSAI2:  /* PLLSAI2 is used as clock source for SAI2*/
      /* PLLSAI2 input clock, parameters M, N & P configuration and clock output (PLLSAI2ClockOut) */
      ret = RCCEx_PLLSAI2_Config(&(PeriphClkInit->PLLSAI2), DIVIDER_P_UPDATE);
 8001c5c:	687b      	ldr	r3, [r7, #4]
 8001c5e:	3320      	adds	r3, #32
 8001c60:	2100      	movs	r1, #0
 8001c62:	4618      	mov	r0, r3
 8001c64:	f000 fb5a 	bl	800231c <RCCEx_PLLSAI2_Config>
 8001c68:	4603      	mov	r3, r0
 8001c6a:	74fb      	strb	r3, [r7, #19]
      /* SAI2 clock source config set later after clock selection check */
      break;
 8001c6c:	e003      	b.n	8001c76 <HAL_RCCEx_PeriphCLKConfig+0x106>
#endif /* STM32L4P5xx || STM32L4Q5xx || STM32L4R5xx || STM32L4R7xx || STM32L4R9xx || STM32L4S5xx || STM32L4S7xx || STM32L4S9xx */
      /* SAI2 clock source config set later after clock selection check */
      break;

    default:
      ret = HAL_ERROR;
 8001c6e:	2301      	movs	r3, #1
 8001c70:	74fb      	strb	r3, [r7, #19]
      break;
 8001c72:	e000      	b.n	8001c76 <HAL_RCCEx_PeriphCLKConfig+0x106>
      break;
 8001c74:	bf00      	nop
    }

    if(ret == HAL_OK)
 8001c76:	7cfb      	ldrb	r3, [r7, #19]
 8001c78:	2b00      	cmp	r3, #0
 8001c7a:	d10b      	bne.n	8001c94 <HAL_RCCEx_PeriphCLKConfig+0x124>
    {
      /* Set the source of SAI2 clock*/
      __HAL_RCC_SAI2_CONFIG(PeriphClkInit->Sai2ClockSelection);
 8001c7c:	4b52      	ldr	r3, [pc, #328]	; (8001dc8 <HAL_RCCEx_PeriphCLKConfig+0x258>)
 8001c7e:	f8d3 3088 	ldr.w	r3, [r3, #136]	; 0x88
 8001c82:	f023 7240 	bic.w	r2, r3, #50331648	; 0x3000000
 8001c86:	687b      	ldr	r3, [r7, #4]
 8001c88:	6e9b      	ldr	r3, [r3, #104]	; 0x68
 8001c8a:	494f      	ldr	r1, [pc, #316]	; (8001dc8 <HAL_RCCEx_PeriphCLKConfig+0x258>)
 8001c8c:	4313      	orrs	r3, r2
 8001c8e:	f8c1 3088 	str.w	r3, [r1, #136]	; 0x88
 8001c92:	e001      	b.n	8001c98 <HAL_RCCEx_PeriphCLKConfig+0x128>
    }
    else
    {
      /* set overall return value */
      status = ret;
 8001c94:	7cfb      	ldrb	r3, [r7, #19]
 8001c96:	74bb      	strb	r3, [r7, #18]
    }
  }
#endif /* SAI2 */

  /*-------------------------- RTC clock source configuration ----------------------*/
  if((PeriphClkInit->PeriphClockSelection & RCC_PERIPHCLK_RTC) == RCC_PERIPHCLK_RTC)
 8001c98:	687b      	ldr	r3, [r7, #4]
 8001c9a:	681b      	ldr	r3, [r3, #0]
 8001c9c:	f403 3300 	and.w	r3, r3, #131072	; 0x20000
 8001ca0:	2b00      	cmp	r3, #0
 8001ca2:	f000 80a0 	beq.w	8001de6 <HAL_RCCEx_PeriphCLKConfig+0x276>
  {
    FlagStatus       pwrclkchanged = RESET;
 8001ca6:	2300      	movs	r3, #0
 8001ca8:	747b      	strb	r3, [r7, #17]

    /* Check for RTC Parameters used to output RTCCLK */
    assert_param(IS_RCC_RTCCLKSOURCE(PeriphClkInit->RTCClockSelection));

    /* Enable Power Clock */
    if(__HAL_RCC_PWR_IS_CLK_DISABLED() != 0U)
 8001caa:	4b47      	ldr	r3, [pc, #284]	; (8001dc8 <HAL_RCCEx_PeriphCLKConfig+0x258>)
 8001cac:	6d9b      	ldr	r3, [r3, #88]	; 0x58
 8001cae:	f003 5380 	and.w	r3, r3, #268435456	; 0x10000000
 8001cb2:	2b00      	cmp	r3, #0
 8001cb4:	d101      	bne.n	8001cba <HAL_RCCEx_PeriphCLKConfig+0x14a>
 8001cb6:	2301      	movs	r3, #1
 8001cb8:	e000      	b.n	8001cbc <HAL_RCCEx_PeriphCLKConfig+0x14c>
 8001cba:	2300      	movs	r3, #0
 8001cbc:	2b00      	cmp	r3, #0
 8001cbe:	d00d      	beq.n	8001cdc <HAL_RCCEx_PeriphCLKConfig+0x16c>
    {
      __HAL_RCC_PWR_CLK_ENABLE();
 8001cc0:	4b41      	ldr	r3, [pc, #260]	; (8001dc8 <HAL_RCCEx_PeriphCLKConfig+0x258>)
 8001cc2:	6d9b      	ldr	r3, [r3, #88]	; 0x58
 8001cc4:	4a40      	ldr	r2, [pc, #256]	; (8001dc8 <HAL_RCCEx_PeriphCLKConfig+0x258>)
 8001cc6:	f043 5380 	orr.w	r3, r3, #268435456	; 0x10000000
 8001cca:	6593      	str	r3, [r2, #88]	; 0x58
 8001ccc:	4b3e      	ldr	r3, [pc, #248]	; (8001dc8 <HAL_RCCEx_PeriphCLKConfig+0x258>)
 8001cce:	6d9b      	ldr	r3, [r3, #88]	; 0x58
 8001cd0:	f003 5380 	and.w	r3, r3, #268435456	; 0x10000000
 8001cd4:	60bb      	str	r3, [r7, #8]
 8001cd6:	68bb      	ldr	r3, [r7, #8]
      pwrclkchanged = SET;
 8001cd8:	2301      	movs	r3, #1
 8001cda:	747b      	strb	r3, [r7, #17]
    }

    /* Enable write access to Backup domain */
    SET_BIT(PWR->CR1, PWR_CR1_DBP);
 8001cdc:	4b3b      	ldr	r3, [pc, #236]	; (8001dcc <HAL_RCCEx_PeriphCLKConfig+0x25c>)
 8001cde:	681b      	ldr	r3, [r3, #0]
 8001ce0:	4a3a      	ldr	r2, [pc, #232]	; (8001dcc <HAL_RCCEx_PeriphCLKConfig+0x25c>)
 8001ce2:	f443 7380 	orr.w	r3, r3, #256	; 0x100
 8001ce6:	6013      	str	r3, [r2, #0]

    /* Wait for Backup domain Write protection disable */
    tickstart = HAL_GetTick();
 8001ce8:	f7fe fe42 	bl	8000970 <HAL_GetTick>
 8001cec:	60f8      	str	r0, [r7, #12]

    while(READ_BIT(PWR->CR1, PWR_CR1_DBP) == 0U)
 8001cee:	e009      	b.n	8001d04 <HAL_RCCEx_PeriphCLKConfig+0x194>
    {
      if((HAL_GetTick() - tickstart) > RCC_DBP_TIMEOUT_VALUE)
 8001cf0:	f7fe fe3e 	bl	8000970 <HAL_GetTick>
 8001cf4:	4602      	mov	r2, r0
 8001cf6:	68fb      	ldr	r3, [r7, #12]
 8001cf8:	1ad3      	subs	r3, r2, r3
 8001cfa:	2b02      	cmp	r3, #2
 8001cfc:	d902      	bls.n	8001d04 <HAL_RCCEx_PeriphCLKConfig+0x194>
      {
        ret = HAL_TIMEOUT;
 8001cfe:	2303      	movs	r3, #3
 8001d00:	74fb      	strb	r3, [r7, #19]
        break;
 8001d02:	e005      	b.n	8001d10 <HAL_RCCEx_PeriphCLKConfig+0x1a0>
    while(READ_BIT(PWR->CR1, PWR_CR1_DBP) == 0U)
 8001d04:	4b31      	ldr	r3, [pc, #196]	; (8001dcc <HAL_RCCEx_PeriphCLKConfig+0x25c>)
 8001d06:	681b      	ldr	r3, [r3, #0]
 8001d08:	f403 7380 	and.w	r3, r3, #256	; 0x100
 8001d0c:	2b00      	cmp	r3, #0
 8001d0e:	d0ef      	beq.n	8001cf0 <HAL_RCCEx_PeriphCLKConfig+0x180>
      }
    }

    if(ret == HAL_OK)
 8001d10:	7cfb      	ldrb	r3, [r7, #19]
 8001d12:	2b00      	cmp	r3, #0
 8001d14:	d15c      	bne.n	8001dd0 <HAL_RCCEx_PeriphCLKConfig+0x260>
    {
      /* Reset the Backup domain only if the RTC Clock source selection is modified from default */
      tmpregister = READ_BIT(RCC->BDCR, RCC_BDCR_RTCSEL);
 8001d16:	4b2c      	ldr	r3, [pc, #176]	; (8001dc8 <HAL_RCCEx_PeriphCLKConfig+0x258>)
 8001d18:	f8d3 3090 	ldr.w	r3, [r3, #144]	; 0x90
 8001d1c:	f403 7340 	and.w	r3, r3, #768	; 0x300
 8001d20:	617b      	str	r3, [r7, #20]

      if((tmpregister != RCC_RTCCLKSOURCE_NONE) && (tmpregister != PeriphClkInit->RTCClockSelection))
 8001d22:	697b      	ldr	r3, [r7, #20]
 8001d24:	2b00      	cmp	r3, #0
 8001d26:	d01f      	beq.n	8001d68 <HAL_RCCEx_PeriphCLKConfig+0x1f8>
 8001d28:	687b      	ldr	r3, [r7, #4]
 8001d2a:	f8d3 3084 	ldr.w	r3, [r3, #132]	; 0x84
 8001d2e:	697a      	ldr	r2, [r7, #20]
 8001d30:	429a      	cmp	r2, r3
 8001d32:	d019      	beq.n	8001d68 <HAL_RCCEx_PeriphCLKConfig+0x1f8>
      {
        /* Store the content of BDCR register before the reset of Backup Domain */
        tmpregister = READ_BIT(RCC->BDCR, ~(RCC_BDCR_RTCSEL));
 8001d34:	4b24      	ldr	r3, [pc, #144]	; (8001dc8 <HAL_RCCEx_PeriphCLKConfig+0x258>)
 8001d36:	f8d3 3090 	ldr.w	r3, [r3, #144]	; 0x90
 8001d3a:	f423 7340 	bic.w	r3, r3, #768	; 0x300
 8001d3e:	617b      	str	r3, [r7, #20]
        /* RTC Clock selection can be changed only if the Backup Domain is reset */
        __HAL_RCC_BACKUPRESET_FORCE();
 8001d40:	4b21      	ldr	r3, [pc, #132]	; (8001dc8 <HAL_RCCEx_PeriphCLKConfig+0x258>)
 8001d42:	f8d3 3090 	ldr.w	r3, [r3, #144]	; 0x90
 8001d46:	4a20      	ldr	r2, [pc, #128]	; (8001dc8 <HAL_RCCEx_PeriphCLKConfig+0x258>)
 8001d48:	f443 3380 	orr.w	r3, r3, #65536	; 0x10000
 8001d4c:	f8c2 3090 	str.w	r3, [r2, #144]	; 0x90
        __HAL_RCC_BACKUPRESET_RELEASE();
 8001d50:	4b1d      	ldr	r3, [pc, #116]	; (8001dc8 <HAL_RCCEx_PeriphCLKConfig+0x258>)
 8001d52:	f8d3 3090 	ldr.w	r3, [r3, #144]	; 0x90
 8001d56:	4a1c      	ldr	r2, [pc, #112]	; (8001dc8 <HAL_RCCEx_PeriphCLKConfig+0x258>)
 8001d58:	f423 3380 	bic.w	r3, r3, #65536	; 0x10000
 8001d5c:	f8c2 3090 	str.w	r3, [r2, #144]	; 0x90
        /* Restore the Content of BDCR register */
        RCC->BDCR = tmpregister;
 8001d60:	4a19      	ldr	r2, [pc, #100]	; (8001dc8 <HAL_RCCEx_PeriphCLKConfig+0x258>)
 8001d62:	697b      	ldr	r3, [r7, #20]
 8001d64:	f8c2 3090 	str.w	r3, [r2, #144]	; 0x90
      }

      /* Wait for LSE reactivation if LSE was enable prior to Backup Domain reset */
      if (HAL_IS_BIT_SET(tmpregister, RCC_BDCR_LSEON))
 8001d68:	697b      	ldr	r3, [r7, #20]
 8001d6a:	f003 0301 	and.w	r3, r3, #1
 8001d6e:	2b00      	cmp	r3, #0
 8001d70:	d016      	beq.n	8001da0 <HAL_RCCEx_PeriphCLKConfig+0x230>
      {
        /* Get Start Tick*/
        tickstart = HAL_GetTick();
 8001d72:	f7fe fdfd 	bl	8000970 <HAL_GetTick>
 8001d76:	60f8      	str	r0, [r7, #12]

        /* Wait till LSE is ready */
        while(READ_BIT(RCC->BDCR, RCC_BDCR_LSERDY) == 0U)
 8001d78:	e00b      	b.n	8001d92 <HAL_RCCEx_PeriphCLKConfig+0x222>
        {
          if((HAL_GetTick() - tickstart) > RCC_LSE_TIMEOUT_VALUE)
 8001d7a:	f7fe fdf9 	bl	8000970 <HAL_GetTick>
 8001d7e:	4602      	mov	r2, r0
 8001d80:	68fb      	ldr	r3, [r7, #12]
 8001d82:	1ad3      	subs	r3, r2, r3
 8001d84:	f241 3288 	movw	r2, #5000	; 0x1388
 8001d88:	4293      	cmp	r3, r2
 8001d8a:	d902      	bls.n	8001d92 <HAL_RCCEx_PeriphCLKConfig+0x222>
          {
            ret = HAL_TIMEOUT;
 8001d8c:	2303      	movs	r3, #3
 8001d8e:	74fb      	strb	r3, [r7, #19]
            break;
 8001d90:	e006      	b.n	8001da0 <HAL_RCCEx_PeriphCLKConfig+0x230>
        while(READ_BIT(RCC->BDCR, RCC_BDCR_LSERDY) == 0U)
 8001d92:	4b0d      	ldr	r3, [pc, #52]	; (8001dc8 <HAL_RCCEx_PeriphCLKConfig+0x258>)
 8001d94:	f8d3 3090 	ldr.w	r3, [r3, #144]	; 0x90
 8001d98:	f003 0302 	and.w	r3, r3, #2
 8001d9c:	2b00      	cmp	r3, #0
 8001d9e:	d0ec      	beq.n	8001d7a <HAL_RCCEx_PeriphCLKConfig+0x20a>
          }
        }
      }

      if(ret == HAL_OK)
 8001da0:	7cfb      	ldrb	r3, [r7, #19]
 8001da2:	2b00      	cmp	r3, #0
 8001da4:	d10c      	bne.n	8001dc0 <HAL_RCCEx_PeriphCLKConfig+0x250>
      {
        /* Apply new RTC clock source selection */
        __HAL_RCC_RTC_CONFIG(PeriphClkInit->RTCClockSelection);
 8001da6:	4b08      	ldr	r3, [pc, #32]	; (8001dc8 <HAL_RCCEx_PeriphCLKConfig+0x258>)
 8001da8:	f8d3 3090 	ldr.w	r3, [r3, #144]	; 0x90
 8001dac:	f423 7240 	bic.w	r2, r3, #768	; 0x300
 8001db0:	687b      	ldr	r3, [r7, #4]
 8001db2:	f8d3 3084 	ldr.w	r3, [r3, #132]	; 0x84
 8001db6:	4904      	ldr	r1, [pc, #16]	; (8001dc8 <HAL_RCCEx_PeriphCLKConfig+0x258>)
 8001db8:	4313      	orrs	r3, r2
 8001dba:	f8c1 3090 	str.w	r3, [r1, #144]	; 0x90
 8001dbe:	e009      	b.n	8001dd4 <HAL_RCCEx_PeriphCLKConfig+0x264>
      }
      else
      {
        /* set overall return value */
        status = ret;
 8001dc0:	7cfb      	ldrb	r3, [r7, #19]
 8001dc2:	74bb      	strb	r3, [r7, #18]
 8001dc4:	e006      	b.n	8001dd4 <HAL_RCCEx_PeriphCLKConfig+0x264>
 8001dc6:	bf00      	nop
 8001dc8:	40021000 	.word	0x40021000
 8001dcc:	40007000 	.word	0x40007000
      }
    }
    else
    {
      /* set overall return value */
      status = ret;
 8001dd0:	7cfb      	ldrb	r3, [r7, #19]
 8001dd2:	74bb      	strb	r3, [r7, #18]
    }

    /* Restore clock configuration if changed */
    if(pwrclkchanged == SET)
 8001dd4:	7c7b      	ldrb	r3, [r7, #17]
 8001dd6:	2b01      	cmp	r3, #1
 8001dd8:	d105      	bne.n	8001de6 <HAL_RCCEx_PeriphCLKConfig+0x276>
    {
      __HAL_RCC_PWR_CLK_DISABLE();
 8001dda:	4b9e      	ldr	r3, [pc, #632]	; (8002054 <HAL_RCCEx_PeriphCLKConfig+0x4e4>)
 8001ddc:	6d9b      	ldr	r3, [r3, #88]	; 0x58
 8001dde:	4a9d      	ldr	r2, [pc, #628]	; (8002054 <HAL_RCCEx_PeriphCLKConfig+0x4e4>)
 8001de0:	f023 5380 	bic.w	r3, r3, #268435456	; 0x10000000
 8001de4:	6593      	str	r3, [r2, #88]	; 0x58
    }
  }

  /*-------------------------- USART1 clock source configuration -------------------*/
  if(((PeriphClkInit->PeriphClockSelection) & RCC_PERIPHCLK_USART1) == RCC_PERIPHCLK_USART1)
 8001de6:	687b      	ldr	r3, [r7, #4]
 8001de8:	681b      	ldr	r3, [r3, #0]
 8001dea:	f003 0301 	and.w	r3, r3, #1
 8001dee:	2b00      	cmp	r3, #0
 8001df0:	d00a      	beq.n	8001e08 <HAL_RCCEx_PeriphCLKConfig+0x298>
  {
    /* Check the parameters */
    assert_param(IS_RCC_USART1CLKSOURCE(PeriphClkInit->Usart1ClockSelection));

    /* Configure the USART1 clock source */
    __HAL_RCC_USART1_CONFIG(PeriphClkInit->Usart1ClockSelection);
 8001df2:	4b98      	ldr	r3, [pc, #608]	; (8002054 <HAL_RCCEx_PeriphCLKConfig+0x4e4>)
 8001df4:	f8d3 3088 	ldr.w	r3, [r3, #136]	; 0x88
 8001df8:	f023 0203 	bic.w	r2, r3, #3
 8001dfc:	687b      	ldr	r3, [r7, #4]
 8001dfe:	6b9b      	ldr	r3, [r3, #56]	; 0x38
 8001e00:	4994      	ldr	r1, [pc, #592]	; (8002054 <HAL_RCCEx_PeriphCLKConfig+0x4e4>)
 8001e02:	4313      	orrs	r3, r2
 8001e04:	f8c1 3088 	str.w	r3, [r1, #136]	; 0x88
  }

  /*-------------------------- USART2 clock source configuration -------------------*/
  if(((PeriphClkInit->PeriphClockSelection) & RCC_PERIPHCLK_USART2) == RCC_PERIPHCLK_USART2)
 8001e08:	687b      	ldr	r3, [r7, #4]
 8001e0a:	681b      	ldr	r3, [r3, #0]
 8001e0c:	f003 0302 	and.w	r3, r3, #2
 8001e10:	2b00      	cmp	r3, #0
 8001e12:	d00a      	beq.n	8001e2a <HAL_RCCEx_PeriphCLKConfig+0x2ba>
  {
    /* Check the parameters */
    assert_param(IS_RCC_USART2CLKSOURCE(PeriphClkInit->Usart2ClockSelection));

    /* Configure the USART2 clock source */
    __HAL_RCC_USART2_CONFIG(PeriphClkInit->Usart2ClockSelection);
 8001e14:	4b8f      	ldr	r3, [pc, #572]	; (8002054 <HAL_RCCEx_PeriphCLKConfig+0x4e4>)
 8001e16:	f8d3 3088 	ldr.w	r3, [r3, #136]	; 0x88
 8001e1a:	f023 020c 	bic.w	r2, r3, #12
 8001e1e:	687b      	ldr	r3, [r7, #4]
 8001e20:	6bdb      	ldr	r3, [r3, #60]	; 0x3c
 8001e22:	498c      	ldr	r1, [pc, #560]	; (8002054 <HAL_RCCEx_PeriphCLKConfig+0x4e4>)
 8001e24:	4313      	orrs	r3, r2
 8001e26:	f8c1 3088 	str.w	r3, [r1, #136]	; 0x88
  }

#if defined(USART3)

  /*-------------------------- USART3 clock source configuration -------------------*/
  if(((PeriphClkInit->PeriphClockSelection) & RCC_PERIPHCLK_USART3) == RCC_PERIPHCLK_USART3)
 8001e2a:	687b      	ldr	r3, [r7, #4]
 8001e2c:	681b      	ldr	r3, [r3, #0]
 8001e2e:	f003 0304 	and.w	r3, r3, #4
 8001e32:	2b00      	cmp	r3, #0
 8001e34:	d00a      	beq.n	8001e4c <HAL_RCCEx_PeriphCLKConfig+0x2dc>
  {
    /* Check the parameters */
    assert_param(IS_RCC_USART3CLKSOURCE(PeriphClkInit->Usart3ClockSelection));

    /* Configure the USART3 clock source */
    __HAL_RCC_USART3_CONFIG(PeriphClkInit->Usart3ClockSelection);
 8001e36:	4b87      	ldr	r3, [pc, #540]	; (8002054 <HAL_RCCEx_PeriphCLKConfig+0x4e4>)
 8001e38:	f8d3 3088 	ldr.w	r3, [r3, #136]	; 0x88
 8001e3c:	f023 0230 	bic.w	r2, r3, #48	; 0x30
 8001e40:	687b      	ldr	r3, [r7, #4]
 8001e42:	6c1b      	ldr	r3, [r3, #64]	; 0x40
 8001e44:	4983      	ldr	r1, [pc, #524]	; (8002054 <HAL_RCCEx_PeriphCLKConfig+0x4e4>)
 8001e46:	4313      	orrs	r3, r2
 8001e48:	f8c1 3088 	str.w	r3, [r1, #136]	; 0x88
#endif /* USART3 */

#if defined(UART4)

  /*-------------------------- UART4 clock source configuration --------------------*/
  if(((PeriphClkInit->PeriphClockSelection) & RCC_PERIPHCLK_UART4) == RCC_PERIPHCLK_UART4)
 8001e4c:	687b      	ldr	r3, [r7, #4]
 8001e4e:	681b      	ldr	r3, [r3, #0]
 8001e50:	f003 0308 	and.w	r3, r3, #8
 8001e54:	2b00      	cmp	r3, #0
 8001e56:	d00a      	beq.n	8001e6e <HAL_RCCEx_PeriphCLKConfig+0x2fe>
  {
    /* Check the parameters */
    assert_param(IS_RCC_UART4CLKSOURCE(PeriphClkInit->Uart4ClockSelection));

    /* Configure the UART4 clock source */
    __HAL_RCC_UART4_CONFIG(PeriphClkInit->Uart4ClockSelection);
 8001e58:	4b7e      	ldr	r3, [pc, #504]	; (8002054 <HAL_RCCEx_PeriphCLKConfig+0x4e4>)
 8001e5a:	f8d3 3088 	ldr.w	r3, [r3, #136]	; 0x88
 8001e5e:	f023 02c0 	bic.w	r2, r3, #192	; 0xc0
 8001e62:	687b      	ldr	r3, [r7, #4]
 8001e64:	6c5b      	ldr	r3, [r3, #68]	; 0x44
 8001e66:	497b      	ldr	r1, [pc, #492]	; (8002054 <HAL_RCCEx_PeriphCLKConfig+0x4e4>)
 8001e68:	4313      	orrs	r3, r2
 8001e6a:	f8c1 3088 	str.w	r3, [r1, #136]	; 0x88
#endif /* UART4 */

#if defined(UART5)

  /*-------------------------- UART5 clock source configuration --------------------*/
  if(((PeriphClkInit->PeriphClockSelection) & RCC_PERIPHCLK_UART5) == RCC_PERIPHCLK_UART5)
 8001e6e:	687b      	ldr	r3, [r7, #4]
 8001e70:	681b      	ldr	r3, [r3, #0]
 8001e72:	f003 0310 	and.w	r3, r3, #16
 8001e76:	2b00      	cmp	r3, #0
 8001e78:	d00a      	beq.n	8001e90 <HAL_RCCEx_PeriphCLKConfig+0x320>
  {
    /* Check the parameters */
    assert_param(IS_RCC_UART5CLKSOURCE(PeriphClkInit->Uart5ClockSelection));

    /* Configure the UART5 clock source */
    __HAL_RCC_UART5_CONFIG(PeriphClkInit->Uart5ClockSelection);
 8001e7a:	4b76      	ldr	r3, [pc, #472]	; (8002054 <HAL_RCCEx_PeriphCLKConfig+0x4e4>)
 8001e7c:	f8d3 3088 	ldr.w	r3, [r3, #136]	; 0x88
 8001e80:	f423 7240 	bic.w	r2, r3, #768	; 0x300
 8001e84:	687b      	ldr	r3, [r7, #4]
 8001e86:	6c9b      	ldr	r3, [r3, #72]	; 0x48
 8001e88:	4972      	ldr	r1, [pc, #456]	; (8002054 <HAL_RCCEx_PeriphCLKConfig+0x4e4>)
 8001e8a:	4313      	orrs	r3, r2
 8001e8c:	f8c1 3088 	str.w	r3, [r1, #136]	; 0x88
  }

#endif /* UART5 */

  /*-------------------------- LPUART1 clock source configuration ------------------*/
  if(((PeriphClkInit->PeriphClockSelection) & RCC_PERIPHCLK_LPUART1) == RCC_PERIPHCLK_LPUART1)
 8001e90:	687b      	ldr	r3, [r7, #4]
 8001e92:	681b      	ldr	r3, [r3, #0]
 8001e94:	f003 0320 	and.w	r3, r3, #32
 8001e98:	2b00      	cmp	r3, #0
 8001e9a:	d00a      	beq.n	8001eb2 <HAL_RCCEx_PeriphCLKConfig+0x342>
  {
    /* Check the parameters */
    assert_param(IS_RCC_LPUART1CLKSOURCE(PeriphClkInit->Lpuart1ClockSelection));

    /* Configure the LPUART1 clock source */
    __HAL_RCC_LPUART1_CONFIG(PeriphClkInit->Lpuart1ClockSelection);
 8001e9c:	4b6d      	ldr	r3, [pc, #436]	; (8002054 <HAL_RCCEx_PeriphCLKConfig+0x4e4>)
 8001e9e:	f8d3 3088 	ldr.w	r3, [r3, #136]	; 0x88
 8001ea2:	f423 6240 	bic.w	r2, r3, #3072	; 0xc00
 8001ea6:	687b      	ldr	r3, [r7, #4]
 8001ea8:	6cdb      	ldr	r3, [r3, #76]	; 0x4c
 8001eaa:	496a      	ldr	r1, [pc, #424]	; (8002054 <HAL_RCCEx_PeriphCLKConfig+0x4e4>)
 8001eac:	4313      	orrs	r3, r2
 8001eae:	f8c1 3088 	str.w	r3, [r1, #136]	; 0x88
  }

  /*-------------------------- LPTIM1 clock source configuration -------------------*/
  if(((PeriphClkInit->PeriphClockSelection) & RCC_PERIPHCLK_LPTIM1) == (RCC_PERIPHCLK_LPTIM1))
 8001eb2:	687b      	ldr	r3, [r7, #4]
 8001eb4:	681b      	ldr	r3, [r3, #0]
 8001eb6:	f403 7300 	and.w	r3, r3, #512	; 0x200
 8001eba:	2b00      	cmp	r3, #0
 8001ebc:	d00a      	beq.n	8001ed4 <HAL_RCCEx_PeriphCLKConfig+0x364>
  {
    assert_param(IS_RCC_LPTIM1CLK(PeriphClkInit->Lptim1ClockSelection));
    __HAL_RCC_LPTIM1_CONFIG(PeriphClkInit->Lptim1ClockSelection);
 8001ebe:	4b65      	ldr	r3, [pc, #404]	; (8002054 <HAL_RCCEx_PeriphCLKConfig+0x4e4>)
 8001ec0:	f8d3 3088 	ldr.w	r3, [r3, #136]	; 0x88
 8001ec4:	f423 2240 	bic.w	r2, r3, #786432	; 0xc0000
 8001ec8:	687b      	ldr	r3, [r7, #4]
 8001eca:	6ddb      	ldr	r3, [r3, #92]	; 0x5c
 8001ecc:	4961      	ldr	r1, [pc, #388]	; (8002054 <HAL_RCCEx_PeriphCLKConfig+0x4e4>)
 8001ece:	4313      	orrs	r3, r2
 8001ed0:	f8c1 3088 	str.w	r3, [r1, #136]	; 0x88
  }

  /*-------------------------- LPTIM2 clock source configuration -------------------*/
  if(((PeriphClkInit->PeriphClockSelection) & RCC_PERIPHCLK_LPTIM2) == (RCC_PERIPHCLK_LPTIM2))
 8001ed4:	687b      	ldr	r3, [r7, #4]
 8001ed6:	681b      	ldr	r3, [r3, #0]
 8001ed8:	f403 6380 	and.w	r3, r3, #1024	; 0x400
 8001edc:	2b00      	cmp	r3, #0
 8001ede:	d00a      	beq.n	8001ef6 <HAL_RCCEx_PeriphCLKConfig+0x386>
  {
    assert_param(IS_RCC_LPTIM2CLK(PeriphClkInit->Lptim2ClockSelection));
    __HAL_RCC_LPTIM2_CONFIG(PeriphClkInit->Lptim2ClockSelection);
 8001ee0:	4b5c      	ldr	r3, [pc, #368]	; (8002054 <HAL_RCCEx_PeriphCLKConfig+0x4e4>)
 8001ee2:	f8d3 3088 	ldr.w	r3, [r3, #136]	; 0x88
 8001ee6:	f423 1240 	bic.w	r2, r3, #3145728	; 0x300000
 8001eea:	687b      	ldr	r3, [r7, #4]
 8001eec:	6e1b      	ldr	r3, [r3, #96]	; 0x60
 8001eee:	4959      	ldr	r1, [pc, #356]	; (8002054 <HAL_RCCEx_PeriphCLKConfig+0x4e4>)
 8001ef0:	4313      	orrs	r3, r2
 8001ef2:	f8c1 3088 	str.w	r3, [r1, #136]	; 0x88
  }

  /*-------------------------- I2C1 clock source configuration ---------------------*/
  if(((PeriphClkInit->PeriphClockSelection) & RCC_PERIPHCLK_I2C1) == RCC_PERIPHCLK_I2C1)
 8001ef6:	687b      	ldr	r3, [r7, #4]
 8001ef8:	681b      	ldr	r3, [r3, #0]
 8001efa:	f003 0340 	and.w	r3, r3, #64	; 0x40
 8001efe:	2b00      	cmp	r3, #0
 8001f00:	d00a      	beq.n	8001f18 <HAL_RCCEx_PeriphCLKConfig+0x3a8>
  {
    /* Check the parameters */
    assert_param(IS_RCC_I2C1CLKSOURCE(PeriphClkInit->I2c1ClockSelection));

    /* Configure the I2C1 clock source */
    __HAL_RCC_I2C1_CONFIG(PeriphClkInit->I2c1ClockSelection);
 8001f02:	4b54      	ldr	r3, [pc, #336]	; (8002054 <HAL_RCCEx_PeriphCLKConfig+0x4e4>)
 8001f04:	f8d3 3088 	ldr.w	r3, [r3, #136]	; 0x88
 8001f08:	f423 5240 	bic.w	r2, r3, #12288	; 0x3000
 8001f0c:	687b      	ldr	r3, [r7, #4]
 8001f0e:	6d1b      	ldr	r3, [r3, #80]	; 0x50
 8001f10:	4950      	ldr	r1, [pc, #320]	; (8002054 <HAL_RCCEx_PeriphCLKConfig+0x4e4>)
 8001f12:	4313      	orrs	r3, r2
 8001f14:	f8c1 3088 	str.w	r3, [r1, #136]	; 0x88
  }

#if defined(I2C2)

  /*-------------------------- I2C2 clock source configuration ---------------------*/
  if(((PeriphClkInit->PeriphClockSelection) & RCC_PERIPHCLK_I2C2) == RCC_PERIPHCLK_I2C2)
 8001f18:	687b      	ldr	r3, [r7, #4]
 8001f1a:	681b      	ldr	r3, [r3, #0]
 8001f1c:	f003 0380 	and.w	r3, r3, #128	; 0x80
 8001f20:	2b00      	cmp	r3, #0
 8001f22:	d00a      	beq.n	8001f3a <HAL_RCCEx_PeriphCLKConfig+0x3ca>
  {
    /* Check the parameters */
    assert_param(IS_RCC_I2C2CLKSOURCE(PeriphClkInit->I2c2ClockSelection));

    /* Configure the I2C2 clock source */
    __HAL_RCC_I2C2_CONFIG(PeriphClkInit->I2c2ClockSelection);
 8001f24:	4b4b      	ldr	r3, [pc, #300]	; (8002054 <HAL_RCCEx_PeriphCLKConfig+0x4e4>)
 8001f26:	f8d3 3088 	ldr.w	r3, [r3, #136]	; 0x88
 8001f2a:	f423 4240 	bic.w	r2, r3, #49152	; 0xc000
 8001f2e:	687b      	ldr	r3, [r7, #4]
 8001f30:	6d5b      	ldr	r3, [r3, #84]	; 0x54
 8001f32:	4948      	ldr	r1, [pc, #288]	; (8002054 <HAL_RCCEx_PeriphCLKConfig+0x4e4>)
 8001f34:	4313      	orrs	r3, r2
 8001f36:	f8c1 3088 	str.w	r3, [r1, #136]	; 0x88
  }

#endif /* I2C2 */

  /*-------------------------- I2C3 clock source configuration ---------------------*/
  if(((PeriphClkInit->PeriphClockSelection) & RCC_PERIPHCLK_I2C3) == RCC_PERIPHCLK_I2C3)
 8001f3a:	687b      	ldr	r3, [r7, #4]
 8001f3c:	681b      	ldr	r3, [r3, #0]
 8001f3e:	f403 7380 	and.w	r3, r3, #256	; 0x100
 8001f42:	2b00      	cmp	r3, #0
 8001f44:	d00a      	beq.n	8001f5c <HAL_RCCEx_PeriphCLKConfig+0x3ec>
  {
    /* Check the parameters */
    assert_param(IS_RCC_I2C3CLKSOURCE(PeriphClkInit->I2c3ClockSelection));

    /* Configure the I2C3 clock source */
    __HAL_RCC_I2C3_CONFIG(PeriphClkInit->I2c3ClockSelection);
 8001f46:	4b43      	ldr	r3, [pc, #268]	; (8002054 <HAL_RCCEx_PeriphCLKConfig+0x4e4>)
 8001f48:	f8d3 3088 	ldr.w	r3, [r3, #136]	; 0x88
 8001f4c:	f423 3240 	bic.w	r2, r3, #196608	; 0x30000
 8001f50:	687b      	ldr	r3, [r7, #4]
 8001f52:	6d9b      	ldr	r3, [r3, #88]	; 0x58
 8001f54:	493f      	ldr	r1, [pc, #252]	; (8002054 <HAL_RCCEx_PeriphCLKConfig+0x4e4>)
 8001f56:	4313      	orrs	r3, r2
 8001f58:	f8c1 3088 	str.w	r3, [r1, #136]	; 0x88
#endif /* I2C4 */

#if defined(USB_OTG_FS) || defined(USB)

  /*-------------------------- USB clock source configuration ----------------------*/
  if(((PeriphClkInit->PeriphClockSelection) & RCC_PERIPHCLK_USB) == (RCC_PERIPHCLK_USB))
 8001f5c:	687b      	ldr	r3, [r7, #4]
 8001f5e:	681b      	ldr	r3, [r3, #0]
 8001f60:	f403 5300 	and.w	r3, r3, #8192	; 0x2000
 8001f64:	2b00      	cmp	r3, #0
 8001f66:	d028      	beq.n	8001fba <HAL_RCCEx_PeriphCLKConfig+0x44a>
  {
    assert_param(IS_RCC_USBCLKSOURCE(PeriphClkInit->UsbClockSelection));
    __HAL_RCC_USB_CONFIG(PeriphClkInit->UsbClockSelection);
 8001f68:	4b3a      	ldr	r3, [pc, #232]	; (8002054 <HAL_RCCEx_PeriphCLKConfig+0x4e4>)
 8001f6a:	f8d3 3088 	ldr.w	r3, [r3, #136]	; 0x88
 8001f6e:	f023 6240 	bic.w	r2, r3, #201326592	; 0xc000000
 8001f72:	687b      	ldr	r3, [r7, #4]
 8001f74:	6edb      	ldr	r3, [r3, #108]	; 0x6c
 8001f76:	4937      	ldr	r1, [pc, #220]	; (8002054 <HAL_RCCEx_PeriphCLKConfig+0x4e4>)
 8001f78:	4313      	orrs	r3, r2
 8001f7a:	f8c1 3088 	str.w	r3, [r1, #136]	; 0x88

    if(PeriphClkInit->UsbClockSelection == RCC_USBCLKSOURCE_PLL)
 8001f7e:	687b      	ldr	r3, [r7, #4]
 8001f80:	6edb      	ldr	r3, [r3, #108]	; 0x6c
 8001f82:	f1b3 6f00 	cmp.w	r3, #134217728	; 0x8000000
 8001f86:	d106      	bne.n	8001f96 <HAL_RCCEx_PeriphCLKConfig+0x426>
    {
      /* Enable PLL48M1CLK output clock */
      __HAL_RCC_PLLCLKOUT_ENABLE(RCC_PLL_48M1CLK);
 8001f88:	4b32      	ldr	r3, [pc, #200]	; (8002054 <HAL_RCCEx_PeriphCLKConfig+0x4e4>)
 8001f8a:	68db      	ldr	r3, [r3, #12]
 8001f8c:	4a31      	ldr	r2, [pc, #196]	; (8002054 <HAL_RCCEx_PeriphCLKConfig+0x4e4>)
 8001f8e:	f443 1380 	orr.w	r3, r3, #1048576	; 0x100000
 8001f92:	60d3      	str	r3, [r2, #12]
 8001f94:	e011      	b.n	8001fba <HAL_RCCEx_PeriphCLKConfig+0x44a>
    }
    else
    {
#if defined(RCC_PLLSAI1_SUPPORT)
      if(PeriphClkInit->UsbClockSelection == RCC_USBCLKSOURCE_PLLSAI1)
 8001f96:	687b      	ldr	r3, [r7, #4]
 8001f98:	6edb      	ldr	r3, [r3, #108]	; 0x6c
 8001f9a:	f1b3 6f80 	cmp.w	r3, #67108864	; 0x4000000
 8001f9e:	d10c      	bne.n	8001fba <HAL_RCCEx_PeriphCLKConfig+0x44a>
      {
        /* PLLSAI1 input clock, parameters M, N & Q configuration and clock output (PLLSAI1ClockOut) */
        ret = RCCEx_PLLSAI1_Config(&(PeriphClkInit->PLLSAI1), DIVIDER_Q_UPDATE);
 8001fa0:	687b      	ldr	r3, [r7, #4]
 8001fa2:	3304      	adds	r3, #4
 8001fa4:	2101      	movs	r1, #1
 8001fa6:	4618      	mov	r0, r3
 8001fa8:	f000 f8c8 	bl	800213c <RCCEx_PLLSAI1_Config>
 8001fac:	4603      	mov	r3, r0
 8001fae:	74fb      	strb	r3, [r7, #19]

        if(ret != HAL_OK)
 8001fb0:	7cfb      	ldrb	r3, [r7, #19]
 8001fb2:	2b00      	cmp	r3, #0
 8001fb4:	d001      	beq.n	8001fba <HAL_RCCEx_PeriphCLKConfig+0x44a>
        {
          /* set overall return value */
          status = ret;
 8001fb6:	7cfb      	ldrb	r3, [r7, #19]
 8001fb8:	74bb      	strb	r3, [r7, #18]
#endif /* USB_OTG_FS || USB */

#if defined(SDMMC1)

  /*-------------------------- SDMMC1 clock source configuration -------------------*/
  if(((PeriphClkInit->PeriphClockSelection) & RCC_PERIPHCLK_SDMMC1) == (RCC_PERIPHCLK_SDMMC1))
 8001fba:	687b      	ldr	r3, [r7, #4]
 8001fbc:	681b      	ldr	r3, [r3, #0]
 8001fbe:	f403 2300 	and.w	r3, r3, #524288	; 0x80000
 8001fc2:	2b00      	cmp	r3, #0
 8001fc4:	d028      	beq.n	8002018 <HAL_RCCEx_PeriphCLKConfig+0x4a8>
  {
    assert_param(IS_RCC_SDMMC1CLKSOURCE(PeriphClkInit->Sdmmc1ClockSelection));
    __HAL_RCC_SDMMC1_CONFIG(PeriphClkInit->Sdmmc1ClockSelection);
 8001fc6:	4b23      	ldr	r3, [pc, #140]	; (8002054 <HAL_RCCEx_PeriphCLKConfig+0x4e4>)
 8001fc8:	f8d3 3088 	ldr.w	r3, [r3, #136]	; 0x88
 8001fcc:	f023 6240 	bic.w	r2, r3, #201326592	; 0xc000000
 8001fd0:	687b      	ldr	r3, [r7, #4]
 8001fd2:	6f1b      	ldr	r3, [r3, #112]	; 0x70
 8001fd4:	491f      	ldr	r1, [pc, #124]	; (8002054 <HAL_RCCEx_PeriphCLKConfig+0x4e4>)
 8001fd6:	4313      	orrs	r3, r2
 8001fd8:	f8c1 3088 	str.w	r3, [r1, #136]	; 0x88

    if(PeriphClkInit->Sdmmc1ClockSelection == RCC_SDMMC1CLKSOURCE_PLL)   /* PLL "Q" ? */
 8001fdc:	687b      	ldr	r3, [r7, #4]
 8001fde:	6f1b      	ldr	r3, [r3, #112]	; 0x70
 8001fe0:	f1b3 6f00 	cmp.w	r3, #134217728	; 0x8000000
 8001fe4:	d106      	bne.n	8001ff4 <HAL_RCCEx_PeriphCLKConfig+0x484>
    {
      /* Enable PLL48M1CLK output clock */
      __HAL_RCC_PLLCLKOUT_ENABLE(RCC_PLL_48M1CLK);
 8001fe6:	4b1b      	ldr	r3, [pc, #108]	; (8002054 <HAL_RCCEx_PeriphCLKConfig+0x4e4>)
 8001fe8:	68db      	ldr	r3, [r3, #12]
 8001fea:	4a1a      	ldr	r2, [pc, #104]	; (8002054 <HAL_RCCEx_PeriphCLKConfig+0x4e4>)
 8001fec:	f443 1380 	orr.w	r3, r3, #1048576	; 0x100000
 8001ff0:	60d3      	str	r3, [r2, #12]
 8001ff2:	e011      	b.n	8002018 <HAL_RCCEx_PeriphCLKConfig+0x4a8>
    {
      /* Enable PLLSAI3CLK output */
      __HAL_RCC_PLLCLKOUT_ENABLE(RCC_PLL_SAI3CLK);
    }
#endif
    else if(PeriphClkInit->Sdmmc1ClockSelection == RCC_SDMMC1CLKSOURCE_PLLSAI1)
 8001ff4:	687b      	ldr	r3, [r7, #4]
 8001ff6:	6f1b      	ldr	r3, [r3, #112]	; 0x70
 8001ff8:	f1b3 6f80 	cmp.w	r3, #67108864	; 0x4000000
 8001ffc:	d10c      	bne.n	8002018 <HAL_RCCEx_PeriphCLKConfig+0x4a8>
    {
      /* PLLSAI1 input clock, parameters M, N & Q configuration and clock output (PLLSAI1ClockOut) */
      ret = RCCEx_PLLSAI1_Config(&(PeriphClkInit->PLLSAI1), DIVIDER_Q_UPDATE);
 8001ffe:	687b      	ldr	r3, [r7, #4]
 8002000:	3304      	adds	r3, #4
 8002002:	2101      	movs	r1, #1
 8002004:	4618      	mov	r0, r3
 8002006:	f000 f899 	bl	800213c <RCCEx_PLLSAI1_Config>
 800200a:	4603      	mov	r3, r0
 800200c:	74fb      	strb	r3, [r7, #19]

      if(ret != HAL_OK)
 800200e:	7cfb      	ldrb	r3, [r7, #19]
 8002010:	2b00      	cmp	r3, #0
 8002012:	d001      	beq.n	8002018 <HAL_RCCEx_PeriphCLKConfig+0x4a8>
      {
        /* set overall return value */
        status = ret;
 8002014:	7cfb      	ldrb	r3, [r7, #19]
 8002016:	74bb      	strb	r3, [r7, #18]
  }

#endif /* SDMMC1 */

  /*-------------------------- RNG clock source configuration ----------------------*/
  if(((PeriphClkInit->PeriphClockSelection) & RCC_PERIPHCLK_RNG) == (RCC_PERIPHCLK_RNG))
 8002018:	687b      	ldr	r3, [r7, #4]
 800201a:	681b      	ldr	r3, [r3, #0]
 800201c:	f403 2380 	and.w	r3, r3, #262144	; 0x40000
 8002020:	2b00      	cmp	r3, #0
 8002022:	d02b      	beq.n	800207c <HAL_RCCEx_PeriphCLKConfig+0x50c>
  {
    assert_param(IS_RCC_RNGCLKSOURCE(PeriphClkInit->RngClockSelection));
    __HAL_RCC_RNG_CONFIG(PeriphClkInit->RngClockSelection);
 8002024:	4b0b      	ldr	r3, [pc, #44]	; (8002054 <HAL_RCCEx_PeriphCLKConfig+0x4e4>)
 8002026:	f8d3 3088 	ldr.w	r3, [r3, #136]	; 0x88
 800202a:	f023 6240 	bic.w	r2, r3, #201326592	; 0xc000000
 800202e:	687b      	ldr	r3, [r7, #4]
 8002030:	6f5b      	ldr	r3, [r3, #116]	; 0x74
 8002032:	4908      	ldr	r1, [pc, #32]	; (8002054 <HAL_RCCEx_PeriphCLKConfig+0x4e4>)
 8002034:	4313      	orrs	r3, r2
 8002036:	f8c1 3088 	str.w	r3, [r1, #136]	; 0x88

    if(PeriphClkInit->RngClockSelection == RCC_RNGCLKSOURCE_PLL)
 800203a:	687b      	ldr	r3, [r7, #4]
 800203c:	6f5b      	ldr	r3, [r3, #116]	; 0x74
 800203e:	f1b3 6f00 	cmp.w	r3, #134217728	; 0x8000000
 8002042:	d109      	bne.n	8002058 <HAL_RCCEx_PeriphCLKConfig+0x4e8>
    {
      /* Enable PLL48M1CLK output clock */
      __HAL_RCC_PLLCLKOUT_ENABLE(RCC_PLL_48M1CLK);
 8002044:	4b03      	ldr	r3, [pc, #12]	; (8002054 <HAL_RCCEx_PeriphCLKConfig+0x4e4>)
 8002046:	68db      	ldr	r3, [r3, #12]
 8002048:	4a02      	ldr	r2, [pc, #8]	; (8002054 <HAL_RCCEx_PeriphCLKConfig+0x4e4>)
 800204a:	f443 1380 	orr.w	r3, r3, #1048576	; 0x100000
 800204e:	60d3      	str	r3, [r2, #12]
 8002050:	e014      	b.n	800207c <HAL_RCCEx_PeriphCLKConfig+0x50c>
 8002052:	bf00      	nop
 8002054:	40021000 	.word	0x40021000
    }
#if defined(RCC_PLLSAI1_SUPPORT)
    else if(PeriphClkInit->RngClockSelection == RCC_RNGCLKSOURCE_PLLSAI1)
 8002058:	687b      	ldr	r3, [r7, #4]
 800205a:	6f5b      	ldr	r3, [r3, #116]	; 0x74
 800205c:	f1b3 6f80 	cmp.w	r3, #67108864	; 0x4000000
 8002060:	d10c      	bne.n	800207c <HAL_RCCEx_PeriphCLKConfig+0x50c>
    {
      /* PLLSAI1 input clock, parameters M, N & Q configuration and clock output (PLLSAI1ClockOut) */
      ret = RCCEx_PLLSAI1_Config(&(PeriphClkInit->PLLSAI1), DIVIDER_Q_UPDATE);
 8002062:	687b      	ldr	r3, [r7, #4]
 8002064:	3304      	adds	r3, #4
 8002066:	2101      	movs	r1, #1
 8002068:	4618      	mov	r0, r3
 800206a:	f000 f867 	bl	800213c <RCCEx_PLLSAI1_Config>
 800206e:	4603      	mov	r3, r0
 8002070:	74fb      	strb	r3, [r7, #19]

      if(ret != HAL_OK)
 8002072:	7cfb      	ldrb	r3, [r7, #19]
 8002074:	2b00      	cmp	r3, #0
 8002076:	d001      	beq.n	800207c <HAL_RCCEx_PeriphCLKConfig+0x50c>
      {
        /* set overall return value */
        status = ret;
 8002078:	7cfb      	ldrb	r3, [r7, #19]
 800207a:	74bb      	strb	r3, [r7, #18]
    }
  }

  /*-------------------------- ADC clock source configuration ----------------------*/
#if !defined(STM32L412xx) && !defined(STM32L422xx)
  if(((PeriphClkInit->PeriphClockSelection) & RCC_PERIPHCLK_ADC) == RCC_PERIPHCLK_ADC)
 800207c:	687b      	ldr	r3, [r7, #4]
 800207e:	681b      	ldr	r3, [r3, #0]
 8002080:	f403 4380 	and.w	r3, r3, #16384	; 0x4000
 8002084:	2b00      	cmp	r3, #0
 8002086:	d02f      	beq.n	80020e8 <HAL_RCCEx_PeriphCLKConfig+0x578>
  {
    /* Check the parameters */
    assert_param(IS_RCC_ADCCLKSOURCE(PeriphClkInit->AdcClockSelection));

    /* Configure the ADC interface clock source */
    __HAL_RCC_ADC_CONFIG(PeriphClkInit->AdcClockSelection);
 8002088:	4b2b      	ldr	r3, [pc, #172]	; (8002138 <HAL_RCCEx_PeriphCLKConfig+0x5c8>)
 800208a:	f8d3 3088 	ldr.w	r3, [r3, #136]	; 0x88
 800208e:	f023 5240 	bic.w	r2, r3, #805306368	; 0x30000000
 8002092:	687b      	ldr	r3, [r7, #4]
 8002094:	6f9b      	ldr	r3, [r3, #120]	; 0x78
 8002096:	4928      	ldr	r1, [pc, #160]	; (8002138 <HAL_RCCEx_PeriphCLKConfig+0x5c8>)
 8002098:	4313      	orrs	r3, r2
 800209a:	f8c1 3088 	str.w	r3, [r1, #136]	; 0x88

#if defined(RCC_PLLSAI1_SUPPORT)
    if(PeriphClkInit->AdcClockSelection == RCC_ADCCLKSOURCE_PLLSAI1)
 800209e:	687b      	ldr	r3, [r7, #4]
 80020a0:	6f9b      	ldr	r3, [r3, #120]	; 0x78
 80020a2:	f1b3 5f80 	cmp.w	r3, #268435456	; 0x10000000
 80020a6:	d10d      	bne.n	80020c4 <HAL_RCCEx_PeriphCLKConfig+0x554>
    {
      /* PLLSAI1 input clock, parameters M, N & R configuration and clock output (PLLSAI1ClockOut) */
      ret = RCCEx_PLLSAI1_Config(&(PeriphClkInit->PLLSAI1), DIVIDER_R_UPDATE);
 80020a8:	687b      	ldr	r3, [r7, #4]
 80020aa:	3304      	adds	r3, #4
 80020ac:	2102      	movs	r1, #2
 80020ae:	4618      	mov	r0, r3
 80020b0:	f000 f844 	bl	800213c <RCCEx_PLLSAI1_Config>
 80020b4:	4603      	mov	r3, r0
 80020b6:	74fb      	strb	r3, [r7, #19]

      if(ret != HAL_OK)
 80020b8:	7cfb      	ldrb	r3, [r7, #19]
 80020ba:	2b00      	cmp	r3, #0
 80020bc:	d014      	beq.n	80020e8 <HAL_RCCEx_PeriphCLKConfig+0x578>
      {
        /* set overall return value */
        status = ret;
 80020be:	7cfb      	ldrb	r3, [r7, #19]
 80020c0:	74bb      	strb	r3, [r7, #18]
 80020c2:	e011      	b.n	80020e8 <HAL_RCCEx_PeriphCLKConfig+0x578>
    }
#endif /* RCC_PLLSAI1_SUPPORT */

#if defined(STM32L471xx) || defined(STM32L475xx) || defined(STM32L476xx) || defined(STM32L485xx) || defined(STM32L486xx) || defined(STM32L496xx) || defined(STM32L4A6xx)

    else if(PeriphClkInit->AdcClockSelection == RCC_ADCCLKSOURCE_PLLSAI2)
 80020c4:	687b      	ldr	r3, [r7, #4]
 80020c6:	6f9b      	ldr	r3, [r3, #120]	; 0x78
 80020c8:	f1b3 5f00 	cmp.w	r3, #536870912	; 0x20000000
 80020cc:	d10c      	bne.n	80020e8 <HAL_RCCEx_PeriphCLKConfig+0x578>
    {
      /* PLLSAI2 input clock, parameters M, N & R configuration and clock output (PLLSAI2ClockOut) */
      ret = RCCEx_PLLSAI2_Config(&(PeriphClkInit->PLLSAI2), DIVIDER_R_UPDATE);
 80020ce:	687b      	ldr	r3, [r7, #4]
 80020d0:	3320      	adds	r3, #32
 80020d2:	2102      	movs	r1, #2
 80020d4:	4618      	mov	r0, r3
 80020d6:	f000 f921 	bl	800231c <RCCEx_PLLSAI2_Config>
 80020da:	4603      	mov	r3, r0
 80020dc:	74fb      	strb	r3, [r7, #19]

      if(ret != HAL_OK)
 80020de:	7cfb      	ldrb	r3, [r7, #19]
 80020e0:	2b00      	cmp	r3, #0
 80020e2:	d001      	beq.n	80020e8 <HAL_RCCEx_PeriphCLKConfig+0x578>
      {
        /* set overall return value */
        status = ret;
 80020e4:	7cfb      	ldrb	r3, [r7, #19]
 80020e6:	74bb      	strb	r3, [r7, #18]
#endif /* !STM32L412xx && !STM32L422xx */

#if defined(SWPMI1)

  /*-------------------------- SWPMI1 clock source configuration -------------------*/
  if(((PeriphClkInit->PeriphClockSelection) & RCC_PERIPHCLK_SWPMI1) == RCC_PERIPHCLK_SWPMI1)
 80020e8:	687b      	ldr	r3, [r7, #4]
 80020ea:	681b      	ldr	r3, [r3, #0]
 80020ec:	f403 4300 	and.w	r3, r3, #32768	; 0x8000
 80020f0:	2b00      	cmp	r3, #0
 80020f2:	d00a      	beq.n	800210a <HAL_RCCEx_PeriphCLKConfig+0x59a>
  {
    /* Check the parameters */
    assert_param(IS_RCC_SWPMI1CLKSOURCE(PeriphClkInit->Swpmi1ClockSelection));

    /* Configure the SWPMI1 clock source */
    __HAL_RCC_SWPMI1_CONFIG(PeriphClkInit->Swpmi1ClockSelection);
 80020f4:	4b10      	ldr	r3, [pc, #64]	; (8002138 <HAL_RCCEx_PeriphCLKConfig+0x5c8>)
 80020f6:	f8d3 3088 	ldr.w	r3, [r3, #136]	; 0x88
 80020fa:	f023 4280 	bic.w	r2, r3, #1073741824	; 0x40000000
 80020fe:	687b      	ldr	r3, [r7, #4]
 8002100:	6fdb      	ldr	r3, [r3, #124]	; 0x7c
 8002102:	490d      	ldr	r1, [pc, #52]	; (8002138 <HAL_RCCEx_PeriphCLKConfig+0x5c8>)
 8002104:	4313      	orrs	r3, r2
 8002106:	f8c1 3088 	str.w	r3, [r1, #136]	; 0x88
#endif /* SWPMI1 */

#if defined(DFSDM1_Filter0)

  /*-------------------------- DFSDM1 clock source configuration -------------------*/
  if(((PeriphClkInit->PeriphClockSelection) & RCC_PERIPHCLK_DFSDM1) == RCC_PERIPHCLK_DFSDM1)
 800210a:	687b      	ldr	r3, [r7, #4]
 800210c:	681b      	ldr	r3, [r3, #0]
 800210e:	f403 3380 	and.w	r3, r3, #65536	; 0x10000
 8002112:	2b00      	cmp	r3, #0
 8002114:	d00b      	beq.n	800212e <HAL_RCCEx_PeriphCLKConfig+0x5be>
  {
    /* Check the parameters */
    assert_param(IS_RCC_DFSDM1CLKSOURCE(PeriphClkInit->Dfsdm1ClockSelection));

    /* Configure the DFSDM1 interface clock source */
    __HAL_RCC_DFSDM1_CONFIG(PeriphClkInit->Dfsdm1ClockSelection);
 8002116:	4b08      	ldr	r3, [pc, #32]	; (8002138 <HAL_RCCEx_PeriphCLKConfig+0x5c8>)
 8002118:	f8d3 3088 	ldr.w	r3, [r3, #136]	; 0x88
 800211c:	f023 4200 	bic.w	r2, r3, #2147483648	; 0x80000000
 8002120:	687b      	ldr	r3, [r7, #4]
 8002122:	f8d3 3080 	ldr.w	r3, [r3, #128]	; 0x80
 8002126:	4904      	ldr	r1, [pc, #16]	; (8002138 <HAL_RCCEx_PeriphCLKConfig+0x5c8>)
 8002128:	4313      	orrs	r3, r2
 800212a:	f8c1 3088 	str.w	r3, [r1, #136]	; 0x88
    }
  }

#endif /* OCTOSPI1 || OCTOSPI2 */

  return status;
 800212e:	7cbb      	ldrb	r3, [r7, #18]
}
 8002130:	4618      	mov	r0, r3
 8002132:	3718      	adds	r7, #24
 8002134:	46bd      	mov	sp, r7
 8002136:	bd80      	pop	{r7, pc}
 8002138:	40021000 	.word	0x40021000

0800213c <RCCEx_PLLSAI1_Config>:
  * @note   PLLSAI1 is temporary disable to apply new parameters
  *
  * @retval HAL status
  */
static HAL_StatusTypeDef RCCEx_PLLSAI1_Config(RCC_PLLSAI1InitTypeDef *PllSai1, uint32_t Divider)
{
 800213c:	b580      	push	{r7, lr}
 800213e:	b084      	sub	sp, #16
 8002140:	af00      	add	r7, sp, #0
 8002142:	6078      	str	r0, [r7, #4]
 8002144:	6039      	str	r1, [r7, #0]
  uint32_t tickstart;
  HAL_StatusTypeDef status = HAL_OK;
 8002146:	2300      	movs	r3, #0
 8002148:	73fb      	strb	r3, [r7, #15]
  assert_param(IS_RCC_PLLSAI1M_VALUE(PllSai1->PLLSAI1M));
  assert_param(IS_RCC_PLLSAI1N_VALUE(PllSai1->PLLSAI1N));
  assert_param(IS_RCC_PLLSAI1CLOCKOUT_VALUE(PllSai1->PLLSAI1ClockOut));

  /* Check that PLLSAI1 clock source and divider M can be applied */
  if(__HAL_RCC_GET_PLL_OSCSOURCE() != RCC_PLLSOURCE_NONE)
 800214a:	4b73      	ldr	r3, [pc, #460]	; (8002318 <RCCEx_PLLSAI1_Config+0x1dc>)
 800214c:	68db      	ldr	r3, [r3, #12]
 800214e:	f003 0303 	and.w	r3, r3, #3
 8002152:	2b00      	cmp	r3, #0
 8002154:	d018      	beq.n	8002188 <RCCEx_PLLSAI1_Config+0x4c>
  {
    /* PLL clock source and divider M already set, check that no request for change  */
    if((__HAL_RCC_GET_PLL_OSCSOURCE() != PllSai1->PLLSAI1Source)
 8002156:	4b70      	ldr	r3, [pc, #448]	; (8002318 <RCCEx_PLLSAI1_Config+0x1dc>)
 8002158:	68db      	ldr	r3, [r3, #12]
 800215a:	f003 0203 	and.w	r2, r3, #3
 800215e:	687b      	ldr	r3, [r7, #4]
 8002160:	681b      	ldr	r3, [r3, #0]
 8002162:	429a      	cmp	r2, r3
 8002164:	d10d      	bne.n	8002182 <RCCEx_PLLSAI1_Config+0x46>
       ||
       (PllSai1->PLLSAI1Source == RCC_PLLSOURCE_NONE)
 8002166:	687b      	ldr	r3, [r7, #4]
 8002168:	681b      	ldr	r3, [r3, #0]
       ||
 800216a:	2b00      	cmp	r3, #0
 800216c:	d009      	beq.n	8002182 <RCCEx_PLLSAI1_Config+0x46>
#if !defined(RCC_PLLSAI1M_DIV_1_16_SUPPORT)
       ||
       (((READ_BIT(RCC->PLLCFGR, RCC_PLLCFGR_PLLM) >> RCC_PLLCFGR_PLLM_Pos) + 1U) != PllSai1->PLLSAI1M)
 800216e:	4b6a      	ldr	r3, [pc, #424]	; (8002318 <RCCEx_PLLSAI1_Config+0x1dc>)
 8002170:	68db      	ldr	r3, [r3, #12]
 8002172:	091b      	lsrs	r3, r3, #4
 8002174:	f003 0307 	and.w	r3, r3, #7
 8002178:	1c5a      	adds	r2, r3, #1
 800217a:	687b      	ldr	r3, [r7, #4]
 800217c:	685b      	ldr	r3, [r3, #4]
       ||
 800217e:	429a      	cmp	r2, r3
 8002180:	d044      	beq.n	800220c <RCCEx_PLLSAI1_Config+0xd0>
#endif
      )
    {
      status = HAL_ERROR;
 8002182:	2301      	movs	r3, #1
 8002184:	73fb      	strb	r3, [r7, #15]
 8002186:	e041      	b.n	800220c <RCCEx_PLLSAI1_Config+0xd0>
    }
  }
  else
  {
    /* Check PLLSAI1 clock source availability */
    switch(PllSai1->PLLSAI1Source)
 8002188:	687b      	ldr	r3, [r7, #4]
 800218a:	681b      	ldr	r3, [r3, #0]
 800218c:	2b02      	cmp	r3, #2
 800218e:	d00c      	beq.n	80021aa <RCCEx_PLLSAI1_Config+0x6e>
 8002190:	2b03      	cmp	r3, #3
 8002192:	d013      	beq.n	80021bc <RCCEx_PLLSAI1_Config+0x80>
 8002194:	2b01      	cmp	r3, #1
 8002196:	d120      	bne.n	80021da <RCCEx_PLLSAI1_Config+0x9e>
    {
    case RCC_PLLSOURCE_MSI:
      if(HAL_IS_BIT_CLR(RCC->CR, RCC_CR_MSIRDY))
 8002198:	4b5f      	ldr	r3, [pc, #380]	; (8002318 <RCCEx_PLLSAI1_Config+0x1dc>)
 800219a:	681b      	ldr	r3, [r3, #0]
 800219c:	f003 0302 	and.w	r3, r3, #2
 80021a0:	2b00      	cmp	r3, #0
 80021a2:	d11d      	bne.n	80021e0 <RCCEx_PLLSAI1_Config+0xa4>
      {
        status = HAL_ERROR;
 80021a4:	2301      	movs	r3, #1
 80021a6:	73fb      	strb	r3, [r7, #15]
      }
      break;
 80021a8:	e01a      	b.n	80021e0 <RCCEx_PLLSAI1_Config+0xa4>
    case RCC_PLLSOURCE_HSI:
      if(HAL_IS_BIT_CLR(RCC->CR, RCC_CR_HSIRDY))
 80021aa:	4b5b      	ldr	r3, [pc, #364]	; (8002318 <RCCEx_PLLSAI1_Config+0x1dc>)
 80021ac:	681b      	ldr	r3, [r3, #0]
 80021ae:	f403 6380 	and.w	r3, r3, #1024	; 0x400
 80021b2:	2b00      	cmp	r3, #0
 80021b4:	d116      	bne.n	80021e4 <RCCEx_PLLSAI1_Config+0xa8>
      {
        status = HAL_ERROR;
 80021b6:	2301      	movs	r3, #1
 80021b8:	73fb      	strb	r3, [r7, #15]
      }
      break;
 80021ba:	e013      	b.n	80021e4 <RCCEx_PLLSAI1_Config+0xa8>
    case RCC_PLLSOURCE_HSE:
      if(HAL_IS_BIT_CLR(RCC->CR, RCC_CR_HSERDY))
 80021bc:	4b56      	ldr	r3, [pc, #344]	; (8002318 <RCCEx_PLLSAI1_Config+0x1dc>)
 80021be:	681b      	ldr	r3, [r3, #0]
 80021c0:	f403 3300 	and.w	r3, r3, #131072	; 0x20000
 80021c4:	2b00      	cmp	r3, #0
 80021c6:	d10f      	bne.n	80021e8 <RCCEx_PLLSAI1_Config+0xac>
      {
        if(HAL_IS_BIT_CLR(RCC->CR, RCC_CR_HSEBYP))
 80021c8:	4b53      	ldr	r3, [pc, #332]	; (8002318 <RCCEx_PLLSAI1_Config+0x1dc>)
 80021ca:	681b      	ldr	r3, [r3, #0]
 80021cc:	f403 2380 	and.w	r3, r3, #262144	; 0x40000
 80021d0:	2b00      	cmp	r3, #0
 80021d2:	d109      	bne.n	80021e8 <RCCEx_PLLSAI1_Config+0xac>
        {
          status = HAL_ERROR;
 80021d4:	2301      	movs	r3, #1
 80021d6:	73fb      	strb	r3, [r7, #15]
        }
      }
      break;
 80021d8:	e006      	b.n	80021e8 <RCCEx_PLLSAI1_Config+0xac>
    default:
      status = HAL_ERROR;
 80021da:	2301      	movs	r3, #1
 80021dc:	73fb      	strb	r3, [r7, #15]
      break;
 80021de:	e004      	b.n	80021ea <RCCEx_PLLSAI1_Config+0xae>
      break;
 80021e0:	bf00      	nop
 80021e2:	e002      	b.n	80021ea <RCCEx_PLLSAI1_Config+0xae>
      break;
 80021e4:	bf00      	nop
 80021e6:	e000      	b.n	80021ea <RCCEx_PLLSAI1_Config+0xae>
      break;
 80021e8:	bf00      	nop
    }

    if(status == HAL_OK)
 80021ea:	7bfb      	ldrb	r3, [r7, #15]
 80021ec:	2b00      	cmp	r3, #0
 80021ee:	d10d      	bne.n	800220c <RCCEx_PLLSAI1_Config+0xd0>
#if defined(RCC_PLLSAI1M_DIV_1_16_SUPPORT)
      /* Set PLLSAI1 clock source */
      MODIFY_REG(RCC->PLLCFGR, RCC_PLLCFGR_PLLSRC, PllSai1->PLLSAI1Source);
#else
      /* Set PLLSAI1 clock source and divider M */
      MODIFY_REG(RCC->PLLCFGR, RCC_PLLCFGR_PLLSRC | RCC_PLLCFGR_PLLM, PllSai1->PLLSAI1Source | (PllSai1->PLLSAI1M - 1U) << RCC_PLLCFGR_PLLM_Pos);
 80021f0:	4b49      	ldr	r3, [pc, #292]	; (8002318 <RCCEx_PLLSAI1_Config+0x1dc>)
 80021f2:	68db      	ldr	r3, [r3, #12]
 80021f4:	f023 0273 	bic.w	r2, r3, #115	; 0x73
 80021f8:	687b      	ldr	r3, [r7, #4]
 80021fa:	6819      	ldr	r1, [r3, #0]
 80021fc:	687b      	ldr	r3, [r7, #4]
 80021fe:	685b      	ldr	r3, [r3, #4]
 8002200:	3b01      	subs	r3, #1
 8002202:	011b      	lsls	r3, r3, #4
 8002204:	430b      	orrs	r3, r1
 8002206:	4944      	ldr	r1, [pc, #272]	; (8002318 <RCCEx_PLLSAI1_Config+0x1dc>)
 8002208:	4313      	orrs	r3, r2
 800220a:	60cb      	str	r3, [r1, #12]
#endif
    }
  }

  if(status == HAL_OK)
 800220c:	7bfb      	ldrb	r3, [r7, #15]
 800220e:	2b00      	cmp	r3, #0
 8002210:	d17d      	bne.n	800230e <RCCEx_PLLSAI1_Config+0x1d2>
  {
    /* Disable the PLLSAI1 */
    __HAL_RCC_PLLSAI1_DISABLE();
 8002212:	4b41      	ldr	r3, [pc, #260]	; (8002318 <RCCEx_PLLSAI1_Config+0x1dc>)
 8002214:	681b      	ldr	r3, [r3, #0]
 8002216:	4a40      	ldr	r2, [pc, #256]	; (8002318 <RCCEx_PLLSAI1_Config+0x1dc>)
 8002218:	f023 6380 	bic.w	r3, r3, #67108864	; 0x4000000
 800221c:	6013      	str	r3, [r2, #0]

    /* Get Start Tick*/
    tickstart = HAL_GetTick();
 800221e:	f7fe fba7 	bl	8000970 <HAL_GetTick>
 8002222:	60b8      	str	r0, [r7, #8]

    /* Wait till PLLSAI1 is ready to be updated */
    while(READ_BIT(RCC->CR, RCC_CR_PLLSAI1RDY) != 0U)
 8002224:	e009      	b.n	800223a <RCCEx_PLLSAI1_Config+0xfe>
    {
      if((HAL_GetTick() - tickstart) > PLLSAI1_TIMEOUT_VALUE)
 8002226:	f7fe fba3 	bl	8000970 <HAL_GetTick>
 800222a:	4602      	mov	r2, r0
 800222c:	68bb      	ldr	r3, [r7, #8]
 800222e:	1ad3      	subs	r3, r2, r3
 8002230:	2b02      	cmp	r3, #2
 8002232:	d902      	bls.n	800223a <RCCEx_PLLSAI1_Config+0xfe>
      {
        status = HAL_TIMEOUT;
 8002234:	2303      	movs	r3, #3
 8002236:	73fb      	strb	r3, [r7, #15]
        break;
 8002238:	e005      	b.n	8002246 <RCCEx_PLLSAI1_Config+0x10a>
    while(READ_BIT(RCC->CR, RCC_CR_PLLSAI1RDY) != 0U)
 800223a:	4b37      	ldr	r3, [pc, #220]	; (8002318 <RCCEx_PLLSAI1_Config+0x1dc>)
 800223c:	681b      	ldr	r3, [r3, #0]
 800223e:	f003 6300 	and.w	r3, r3, #134217728	; 0x8000000
 8002242:	2b00      	cmp	r3, #0
 8002244:	d1ef      	bne.n	8002226 <RCCEx_PLLSAI1_Config+0xea>
      }
    }

    if(status == HAL_OK)
 8002246:	7bfb      	ldrb	r3, [r7, #15]
 8002248:	2b00      	cmp	r3, #0
 800224a:	d160      	bne.n	800230e <RCCEx_PLLSAI1_Config+0x1d2>
    {
      if(Divider == DIVIDER_P_UPDATE)
 800224c:	683b      	ldr	r3, [r7, #0]
 800224e:	2b00      	cmp	r3, #0
 8002250:	d111      	bne.n	8002276 <RCCEx_PLLSAI1_Config+0x13a>
        MODIFY_REG(RCC->PLLSAI1CFGR,
                   RCC_PLLSAI1CFGR_PLLSAI1N | RCC_PLLSAI1CFGR_PLLSAI1PDIV,
                   (PllSai1->PLLSAI1N << RCC_PLLSAI1CFGR_PLLSAI1N_Pos) |
                   (PllSai1->PLLSAI1P << RCC_PLLSAI1CFGR_PLLSAI1PDIV_Pos));
#else
        MODIFY_REG(RCC->PLLSAI1CFGR,
 8002252:	4b31      	ldr	r3, [pc, #196]	; (8002318 <RCCEx_PLLSAI1_Config+0x1dc>)
 8002254:	691b      	ldr	r3, [r3, #16]
 8002256:	f423 331f 	bic.w	r3, r3, #162816	; 0x27c00
 800225a:	f423 7340 	bic.w	r3, r3, #768	; 0x300
 800225e:	687a      	ldr	r2, [r7, #4]
 8002260:	6892      	ldr	r2, [r2, #8]
 8002262:	0211      	lsls	r1, r2, #8
 8002264:	687a      	ldr	r2, [r7, #4]
 8002266:	68d2      	ldr	r2, [r2, #12]
 8002268:	0912      	lsrs	r2, r2, #4
 800226a:	0452      	lsls	r2, r2, #17
 800226c:	430a      	orrs	r2, r1
 800226e:	492a      	ldr	r1, [pc, #168]	; (8002318 <RCCEx_PLLSAI1_Config+0x1dc>)
 8002270:	4313      	orrs	r3, r2
 8002272:	610b      	str	r3, [r1, #16]
 8002274:	e027      	b.n	80022c6 <RCCEx_PLLSAI1_Config+0x18a>
                   ((PllSai1->PLLSAI1P >> 4U) << RCC_PLLSAI1CFGR_PLLSAI1P_Pos));
#endif /* RCC_PLLSAI1P_DIV_2_31_SUPPORT */

#endif /* RCC_PLLSAI1M_DIV_1_16_SUPPORT */
      }
      else if(Divider == DIVIDER_Q_UPDATE)
 8002276:	683b      	ldr	r3, [r7, #0]
 8002278:	2b01      	cmp	r3, #1
 800227a:	d112      	bne.n	80022a2 <RCCEx_PLLSAI1_Config+0x166>
                   (PllSai1->PLLSAI1N << RCC_PLLSAI1CFGR_PLLSAI1N_Pos) |
                   (((PllSai1->PLLSAI1Q >> 1U) - 1U) << RCC_PLLSAI1CFGR_PLLSAI1Q_Pos) |
                   ((PllSai1->PLLSAI1M - 1U) << RCC_PLLSAI1CFGR_PLLSAI1M_Pos));
#else
        /* Configure the PLLSAI1 Division factor Q and Multiplication factor N*/
        MODIFY_REG(RCC->PLLSAI1CFGR,
 800227c:	4b26      	ldr	r3, [pc, #152]	; (8002318 <RCCEx_PLLSAI1_Config+0x1dc>)
 800227e:	691b      	ldr	r3, [r3, #16]
 8002280:	f423 03c0 	bic.w	r3, r3, #6291456	; 0x600000
 8002284:	f423 43fe 	bic.w	r3, r3, #32512	; 0x7f00
 8002288:	687a      	ldr	r2, [r7, #4]
 800228a:	6892      	ldr	r2, [r2, #8]
 800228c:	0211      	lsls	r1, r2, #8
 800228e:	687a      	ldr	r2, [r7, #4]
 8002290:	6912      	ldr	r2, [r2, #16]
 8002292:	0852      	lsrs	r2, r2, #1
 8002294:	3a01      	subs	r2, #1
 8002296:	0552      	lsls	r2, r2, #21
 8002298:	430a      	orrs	r2, r1
 800229a:	491f      	ldr	r1, [pc, #124]	; (8002318 <RCCEx_PLLSAI1_Config+0x1dc>)
 800229c:	4313      	orrs	r3, r2
 800229e:	610b      	str	r3, [r1, #16]
 80022a0:	e011      	b.n	80022c6 <RCCEx_PLLSAI1_Config+0x18a>
                   (PllSai1->PLLSAI1N << RCC_PLLSAI1CFGR_PLLSAI1N_Pos) |
                   (((PllSai1->PLLSAI1R >> 1U) - 1U) << RCC_PLLSAI1CFGR_PLLSAI1R_Pos) |
                   ((PllSai1->PLLSAI1M - 1U) << RCC_PLLSAI1CFGR_PLLSAI1M_Pos));
#else
        /* Configure the PLLSAI1 Division factor R and Multiplication factor N*/
        MODIFY_REG(RCC->PLLSAI1CFGR,
 80022a2:	4b1d      	ldr	r3, [pc, #116]	; (8002318 <RCCEx_PLLSAI1_Config+0x1dc>)
 80022a4:	691b      	ldr	r3, [r3, #16]
 80022a6:	f023 63c0 	bic.w	r3, r3, #100663296	; 0x6000000
 80022aa:	f423 43fe 	bic.w	r3, r3, #32512	; 0x7f00
 80022ae:	687a      	ldr	r2, [r7, #4]
 80022b0:	6892      	ldr	r2, [r2, #8]
 80022b2:	0211      	lsls	r1, r2, #8
 80022b4:	687a      	ldr	r2, [r7, #4]
 80022b6:	6952      	ldr	r2, [r2, #20]
 80022b8:	0852      	lsrs	r2, r2, #1
 80022ba:	3a01      	subs	r2, #1
 80022bc:	0652      	lsls	r2, r2, #25
 80022be:	430a      	orrs	r2, r1
 80022c0:	4915      	ldr	r1, [pc, #84]	; (8002318 <RCCEx_PLLSAI1_Config+0x1dc>)
 80022c2:	4313      	orrs	r3, r2
 80022c4:	610b      	str	r3, [r1, #16]
                   (((PllSai1->PLLSAI1R >> 1U) - 1U) << RCC_PLLSAI1CFGR_PLLSAI1R_Pos));
#endif /* RCC_PLLSAI1M_DIV_1_16_SUPPORT */
      }

      /* Enable the PLLSAI1 again by setting PLLSAI1ON to 1*/
      __HAL_RCC_PLLSAI1_ENABLE();
 80022c6:	4b14      	ldr	r3, [pc, #80]	; (8002318 <RCCEx_PLLSAI1_Config+0x1dc>)
 80022c8:	681b      	ldr	r3, [r3, #0]
 80022ca:	4a13      	ldr	r2, [pc, #76]	; (8002318 <RCCEx_PLLSAI1_Config+0x1dc>)
 80022cc:	f043 6380 	orr.w	r3, r3, #67108864	; 0x4000000
 80022d0:	6013      	str	r3, [r2, #0]

      /* Get Start Tick*/
      tickstart = HAL_GetTick();
 80022d2:	f7fe fb4d 	bl	8000970 <HAL_GetTick>
 80022d6:	60b8      	str	r0, [r7, #8]

      /* Wait till PLLSAI1 is ready */
      while(READ_BIT(RCC->CR, RCC_CR_PLLSAI1RDY) == 0U)
 80022d8:	e009      	b.n	80022ee <RCCEx_PLLSAI1_Config+0x1b2>
      {
        if((HAL_GetTick() - tickstart) > PLLSAI1_TIMEOUT_VALUE)
 80022da:	f7fe fb49 	bl	8000970 <HAL_GetTick>
 80022de:	4602      	mov	r2, r0
 80022e0:	68bb      	ldr	r3, [r7, #8]
 80022e2:	1ad3      	subs	r3, r2, r3
 80022e4:	2b02      	cmp	r3, #2
 80022e6:	d902      	bls.n	80022ee <RCCEx_PLLSAI1_Config+0x1b2>
        {
          status = HAL_TIMEOUT;
 80022e8:	2303      	movs	r3, #3
 80022ea:	73fb      	strb	r3, [r7, #15]
          break;
 80022ec:	e005      	b.n	80022fa <RCCEx_PLLSAI1_Config+0x1be>
      while(READ_BIT(RCC->CR, RCC_CR_PLLSAI1RDY) == 0U)
 80022ee:	4b0a      	ldr	r3, [pc, #40]	; (8002318 <RCCEx_PLLSAI1_Config+0x1dc>)
 80022f0:	681b      	ldr	r3, [r3, #0]
 80022f2:	f003 6300 	and.w	r3, r3, #134217728	; 0x8000000
 80022f6:	2b00      	cmp	r3, #0
 80022f8:	d0ef      	beq.n	80022da <RCCEx_PLLSAI1_Config+0x19e>
        }
      }

      if(status == HAL_OK)
 80022fa:	7bfb      	ldrb	r3, [r7, #15]
 80022fc:	2b00      	cmp	r3, #0
 80022fe:	d106      	bne.n	800230e <RCCEx_PLLSAI1_Config+0x1d2>
      {
        /* Configure the PLLSAI1 Clock output(s) */
        __HAL_RCC_PLLSAI1CLKOUT_ENABLE(PllSai1->PLLSAI1ClockOut);
 8002300:	4b05      	ldr	r3, [pc, #20]	; (8002318 <RCCEx_PLLSAI1_Config+0x1dc>)
 8002302:	691a      	ldr	r2, [r3, #16]
 8002304:	687b      	ldr	r3, [r7, #4]
 8002306:	699b      	ldr	r3, [r3, #24]
 8002308:	4903      	ldr	r1, [pc, #12]	; (8002318 <RCCEx_PLLSAI1_Config+0x1dc>)
 800230a:	4313      	orrs	r3, r2
 800230c:	610b      	str	r3, [r1, #16]
      }
    }
  }

  return status;
 800230e:	7bfb      	ldrb	r3, [r7, #15]
}
 8002310:	4618      	mov	r0, r3
 8002312:	3710      	adds	r7, #16
 8002314:	46bd      	mov	sp, r7
 8002316:	bd80      	pop	{r7, pc}
 8002318:	40021000 	.word	0x40021000

0800231c <RCCEx_PLLSAI2_Config>:
  * @note   PLLSAI2 is temporary disable to apply new parameters
  *
  * @retval HAL status
  */
static HAL_StatusTypeDef RCCEx_PLLSAI2_Config(RCC_PLLSAI2InitTypeDef *PllSai2, uint32_t Divider)
{
 800231c:	b580      	push	{r7, lr}
 800231e:	b084      	sub	sp, #16
 8002320:	af00      	add	r7, sp, #0
 8002322:	6078      	str	r0, [r7, #4]
 8002324:	6039      	str	r1, [r7, #0]
  uint32_t tickstart;
  HAL_StatusTypeDef status = HAL_OK;
 8002326:	2300      	movs	r3, #0
 8002328:	73fb      	strb	r3, [r7, #15]
  assert_param(IS_RCC_PLLSAI2M_VALUE(PllSai2->PLLSAI2M));
  assert_param(IS_RCC_PLLSAI2N_VALUE(PllSai2->PLLSAI2N));
  assert_param(IS_RCC_PLLSAI2CLOCKOUT_VALUE(PllSai2->PLLSAI2ClockOut));

  /* Check that PLLSAI2 clock source and divider M can be applied */
  if(__HAL_RCC_GET_PLL_OSCSOURCE() != RCC_PLLSOURCE_NONE)
 800232a:	4b68      	ldr	r3, [pc, #416]	; (80024cc <RCCEx_PLLSAI2_Config+0x1b0>)
 800232c:	68db      	ldr	r3, [r3, #12]
 800232e:	f003 0303 	and.w	r3, r3, #3
 8002332:	2b00      	cmp	r3, #0
 8002334:	d018      	beq.n	8002368 <RCCEx_PLLSAI2_Config+0x4c>
  {
    /* PLL clock source and divider M already set, check that no request for change  */
    if((__HAL_RCC_GET_PLL_OSCSOURCE() != PllSai2->PLLSAI2Source)
 8002336:	4b65      	ldr	r3, [pc, #404]	; (80024cc <RCCEx_PLLSAI2_Config+0x1b0>)
 8002338:	68db      	ldr	r3, [r3, #12]
 800233a:	f003 0203 	and.w	r2, r3, #3
 800233e:	687b      	ldr	r3, [r7, #4]
 8002340:	681b      	ldr	r3, [r3, #0]
 8002342:	429a      	cmp	r2, r3
 8002344:	d10d      	bne.n	8002362 <RCCEx_PLLSAI2_Config+0x46>
       ||
       (PllSai2->PLLSAI2Source == RCC_PLLSOURCE_NONE)
 8002346:	687b      	ldr	r3, [r7, #4]
 8002348:	681b      	ldr	r3, [r3, #0]
       ||
 800234a:	2b00      	cmp	r3, #0
 800234c:	d009      	beq.n	8002362 <RCCEx_PLLSAI2_Config+0x46>
#if !defined(RCC_PLLSAI2M_DIV_1_16_SUPPORT)
       ||
       (((READ_BIT(RCC->PLLCFGR, RCC_PLLCFGR_PLLM) >> RCC_PLLCFGR_PLLM_Pos) + 1U) != PllSai2->PLLSAI2M)
 800234e:	4b5f      	ldr	r3, [pc, #380]	; (80024cc <RCCEx_PLLSAI2_Config+0x1b0>)
 8002350:	68db      	ldr	r3, [r3, #12]
 8002352:	091b      	lsrs	r3, r3, #4
 8002354:	f003 0307 	and.w	r3, r3, #7
 8002358:	1c5a      	adds	r2, r3, #1
 800235a:	687b      	ldr	r3, [r7, #4]
 800235c:	685b      	ldr	r3, [r3, #4]
       ||
 800235e:	429a      	cmp	r2, r3
 8002360:	d044      	beq.n	80023ec <RCCEx_PLLSAI2_Config+0xd0>
#endif
      )
    {
      status = HAL_ERROR;
 8002362:	2301      	movs	r3, #1
 8002364:	73fb      	strb	r3, [r7, #15]
 8002366:	e041      	b.n	80023ec <RCCEx_PLLSAI2_Config+0xd0>
    }
  }
  else
  {
    /* Check PLLSAI2 clock source availability */
    switch(PllSai2->PLLSAI2Source)
 8002368:	687b      	ldr	r3, [r7, #4]
 800236a:	681b      	ldr	r3, [r3, #0]
 800236c:	2b02      	cmp	r3, #2
 800236e:	d00c      	beq.n	800238a <RCCEx_PLLSAI2_Config+0x6e>
 8002370:	2b03      	cmp	r3, #3
 8002372:	d013      	beq.n	800239c <RCCEx_PLLSAI2_Config+0x80>
 8002374:	2b01      	cmp	r3, #1
 8002376:	d120      	bne.n	80023ba <RCCEx_PLLSAI2_Config+0x9e>
    {
    case RCC_PLLSOURCE_MSI:
      if(HAL_IS_BIT_CLR(RCC->CR, RCC_CR_MSIRDY))
 8002378:	4b54      	ldr	r3, [pc, #336]	; (80024cc <RCCEx_PLLSAI2_Config+0x1b0>)
 800237a:	681b      	ldr	r3, [r3, #0]
 800237c:	f003 0302 	and.w	r3, r3, #2
 8002380:	2b00      	cmp	r3, #0
 8002382:	d11d      	bne.n	80023c0 <RCCEx_PLLSAI2_Config+0xa4>
      {
        status = HAL_ERROR;
 8002384:	2301      	movs	r3, #1
 8002386:	73fb      	strb	r3, [r7, #15]
      }
      break;
 8002388:	e01a      	b.n	80023c0 <RCCEx_PLLSAI2_Config+0xa4>
    case RCC_PLLSOURCE_HSI:
      if(HAL_IS_BIT_CLR(RCC->CR, RCC_CR_HSIRDY))
 800238a:	4b50      	ldr	r3, [pc, #320]	; (80024cc <RCCEx_PLLSAI2_Config+0x1b0>)
 800238c:	681b      	ldr	r3, [r3, #0]
 800238e:	f403 6380 	and.w	r3, r3, #1024	; 0x400
 8002392:	2b00      	cmp	r3, #0
 8002394:	d116      	bne.n	80023c4 <RCCEx_PLLSAI2_Config+0xa8>
      {
        status = HAL_ERROR;
 8002396:	2301      	movs	r3, #1
 8002398:	73fb      	strb	r3, [r7, #15]
      }
      break;
 800239a:	e013      	b.n	80023c4 <RCCEx_PLLSAI2_Config+0xa8>
    case RCC_PLLSOURCE_HSE:
      if(HAL_IS_BIT_CLR(RCC->CR, RCC_CR_HSERDY))
 800239c:	4b4b      	ldr	r3, [pc, #300]	; (80024cc <RCCEx_PLLSAI2_Config+0x1b0>)
 800239e:	681b      	ldr	r3, [r3, #0]
 80023a0:	f403 3300 	and.w	r3, r3, #131072	; 0x20000
 80023a4:	2b00      	cmp	r3, #0
 80023a6:	d10f      	bne.n	80023c8 <RCCEx_PLLSAI2_Config+0xac>
      {
        if(HAL_IS_BIT_CLR(RCC->CR, RCC_CR_HSEBYP))
 80023a8:	4b48      	ldr	r3, [pc, #288]	; (80024cc <RCCEx_PLLSAI2_Config+0x1b0>)
 80023aa:	681b      	ldr	r3, [r3, #0]
 80023ac:	f403 2380 	and.w	r3, r3, #262144	; 0x40000
 80023b0:	2b00      	cmp	r3, #0
 80023b2:	d109      	bne.n	80023c8 <RCCEx_PLLSAI2_Config+0xac>
        {
          status = HAL_ERROR;
 80023b4:	2301      	movs	r3, #1
 80023b6:	73fb      	strb	r3, [r7, #15]
        }
      }
      break;
 80023b8:	e006      	b.n	80023c8 <RCCEx_PLLSAI2_Config+0xac>
    default:
      status = HAL_ERROR;
 80023ba:	2301      	movs	r3, #1
 80023bc:	73fb      	strb	r3, [r7, #15]
      break;
 80023be:	e004      	b.n	80023ca <RCCEx_PLLSAI2_Config+0xae>
      break;
 80023c0:	bf00      	nop
 80023c2:	e002      	b.n	80023ca <RCCEx_PLLSAI2_Config+0xae>
      break;
 80023c4:	bf00      	nop
 80023c6:	e000      	b.n	80023ca <RCCEx_PLLSAI2_Config+0xae>
      break;
 80023c8:	bf00      	nop
    }

    if(status == HAL_OK)
 80023ca:	7bfb      	ldrb	r3, [r7, #15]
 80023cc:	2b00      	cmp	r3, #0
 80023ce:	d10d      	bne.n	80023ec <RCCEx_PLLSAI2_Config+0xd0>
#if defined(RCC_PLLSAI2M_DIV_1_16_SUPPORT)
      /* Set PLLSAI2 clock source */
      MODIFY_REG(RCC->PLLCFGR, RCC_PLLCFGR_PLLSRC, PllSai2->PLLSAI2Source);
#else
      /* Set PLLSAI2 clock source and divider M */
      MODIFY_REG(RCC->PLLCFGR, RCC_PLLCFGR_PLLSRC | RCC_PLLCFGR_PLLM, PllSai2->PLLSAI2Source | (PllSai2->PLLSAI2M - 1U) << RCC_PLLCFGR_PLLM_Pos);
 80023d0:	4b3e      	ldr	r3, [pc, #248]	; (80024cc <RCCEx_PLLSAI2_Config+0x1b0>)
 80023d2:	68db      	ldr	r3, [r3, #12]
 80023d4:	f023 0273 	bic.w	r2, r3, #115	; 0x73
 80023d8:	687b      	ldr	r3, [r7, #4]
 80023da:	6819      	ldr	r1, [r3, #0]
 80023dc:	687b      	ldr	r3, [r7, #4]
 80023de:	685b      	ldr	r3, [r3, #4]
 80023e0:	3b01      	subs	r3, #1
 80023e2:	011b      	lsls	r3, r3, #4
 80023e4:	430b      	orrs	r3, r1
 80023e6:	4939      	ldr	r1, [pc, #228]	; (80024cc <RCCEx_PLLSAI2_Config+0x1b0>)
 80023e8:	4313      	orrs	r3, r2
 80023ea:	60cb      	str	r3, [r1, #12]
#endif
    }
  }

  if(status == HAL_OK)
 80023ec:	7bfb      	ldrb	r3, [r7, #15]
 80023ee:	2b00      	cmp	r3, #0
 80023f0:	d167      	bne.n	80024c2 <RCCEx_PLLSAI2_Config+0x1a6>
  {
    /* Disable the PLLSAI2 */
    __HAL_RCC_PLLSAI2_DISABLE();
 80023f2:	4b36      	ldr	r3, [pc, #216]	; (80024cc <RCCEx_PLLSAI2_Config+0x1b0>)
 80023f4:	681b      	ldr	r3, [r3, #0]
 80023f6:	4a35      	ldr	r2, [pc, #212]	; (80024cc <RCCEx_PLLSAI2_Config+0x1b0>)
 80023f8:	f023 5380 	bic.w	r3, r3, #268435456	; 0x10000000
 80023fc:	6013      	str	r3, [r2, #0]

    /* Get Start Tick*/
    tickstart = HAL_GetTick();
 80023fe:	f7fe fab7 	bl	8000970 <HAL_GetTick>
 8002402:	60b8      	str	r0, [r7, #8]

    /* Wait till PLLSAI2 is ready to be updated */
    while(READ_BIT(RCC->CR, RCC_CR_PLLSAI2RDY) != 0U)
 8002404:	e009      	b.n	800241a <RCCEx_PLLSAI2_Config+0xfe>
    {
      if((HAL_GetTick() - tickstart) > PLLSAI2_TIMEOUT_VALUE)
 8002406:	f7fe fab3 	bl	8000970 <HAL_GetTick>
 800240a:	4602      	mov	r2, r0
 800240c:	68bb      	ldr	r3, [r7, #8]
 800240e:	1ad3      	subs	r3, r2, r3
 8002410:	2b02      	cmp	r3, #2
 8002412:	d902      	bls.n	800241a <RCCEx_PLLSAI2_Config+0xfe>
      {
        status = HAL_TIMEOUT;
 8002414:	2303      	movs	r3, #3
 8002416:	73fb      	strb	r3, [r7, #15]
        break;
 8002418:	e005      	b.n	8002426 <RCCEx_PLLSAI2_Config+0x10a>
    while(READ_BIT(RCC->CR, RCC_CR_PLLSAI2RDY) != 0U)
 800241a:	4b2c      	ldr	r3, [pc, #176]	; (80024cc <RCCEx_PLLSAI2_Config+0x1b0>)
 800241c:	681b      	ldr	r3, [r3, #0]
 800241e:	f003 5300 	and.w	r3, r3, #536870912	; 0x20000000
 8002422:	2b00      	cmp	r3, #0
 8002424:	d1ef      	bne.n	8002406 <RCCEx_PLLSAI2_Config+0xea>
      }
    }

    if(status == HAL_OK)
 8002426:	7bfb      	ldrb	r3, [r7, #15]
 8002428:	2b00      	cmp	r3, #0
 800242a:	d14a      	bne.n	80024c2 <RCCEx_PLLSAI2_Config+0x1a6>
    {
      if(Divider == DIVIDER_P_UPDATE)
 800242c:	683b      	ldr	r3, [r7, #0]
 800242e:	2b00      	cmp	r3, #0
 8002430:	d111      	bne.n	8002456 <RCCEx_PLLSAI2_Config+0x13a>
        MODIFY_REG(RCC->PLLSAI2CFGR,
                   RCC_PLLSAI2CFGR_PLLSAI2N | RCC_PLLSAI2CFGR_PLLSAI2PDIV,
                   (PllSai2->PLLSAI2N << RCC_PLLSAI2CFGR_PLLSAI2N_Pos) |
                   (PllSai2->PLLSAI2P << RCC_PLLSAI2CFGR_PLLSAI2PDIV_Pos));
#else
        MODIFY_REG(RCC->PLLSAI2CFGR,
 8002432:	4b26      	ldr	r3, [pc, #152]	; (80024cc <RCCEx_PLLSAI2_Config+0x1b0>)
 8002434:	695b      	ldr	r3, [r3, #20]
 8002436:	f423 331f 	bic.w	r3, r3, #162816	; 0x27c00
 800243a:	f423 7340 	bic.w	r3, r3, #768	; 0x300
 800243e:	687a      	ldr	r2, [r7, #4]
 8002440:	6892      	ldr	r2, [r2, #8]
 8002442:	0211      	lsls	r1, r2, #8
 8002444:	687a      	ldr	r2, [r7, #4]
 8002446:	68d2      	ldr	r2, [r2, #12]
 8002448:	0912      	lsrs	r2, r2, #4
 800244a:	0452      	lsls	r2, r2, #17
 800244c:	430a      	orrs	r2, r1
 800244e:	491f      	ldr	r1, [pc, #124]	; (80024cc <RCCEx_PLLSAI2_Config+0x1b0>)
 8002450:	4313      	orrs	r3, r2
 8002452:	614b      	str	r3, [r1, #20]
 8002454:	e011      	b.n	800247a <RCCEx_PLLSAI2_Config+0x15e>
                   (PllSai2->PLLSAI2N << RCC_PLLSAI2CFGR_PLLSAI2N_Pos) |
                   (((PllSai2->PLLSAI2R >> 1U) - 1U) << RCC_PLLSAI2CFGR_PLLSAI2R_Pos) |
                   ((PllSai2->PLLSAI2M - 1U) << RCC_PLLSAI2CFGR_PLLSAI2M_Pos));
#else
        /* Configure the PLLSAI2 Division factor R and Multiplication factor N*/
        MODIFY_REG(RCC->PLLSAI2CFGR,
 8002456:	4b1d      	ldr	r3, [pc, #116]	; (80024cc <RCCEx_PLLSAI2_Config+0x1b0>)
 8002458:	695b      	ldr	r3, [r3, #20]
 800245a:	f023 63c0 	bic.w	r3, r3, #100663296	; 0x6000000
 800245e:	f423 43fe 	bic.w	r3, r3, #32512	; 0x7f00
 8002462:	687a      	ldr	r2, [r7, #4]
 8002464:	6892      	ldr	r2, [r2, #8]
 8002466:	0211      	lsls	r1, r2, #8
 8002468:	687a      	ldr	r2, [r7, #4]
 800246a:	6912      	ldr	r2, [r2, #16]
 800246c:	0852      	lsrs	r2, r2, #1
 800246e:	3a01      	subs	r2, #1
 8002470:	0652      	lsls	r2, r2, #25
 8002472:	430a      	orrs	r2, r1
 8002474:	4915      	ldr	r1, [pc, #84]	; (80024cc <RCCEx_PLLSAI2_Config+0x1b0>)
 8002476:	4313      	orrs	r3, r2
 8002478:	614b      	str	r3, [r1, #20]
                   (((PllSai2->PLLSAI2R >> 1U) - 1U) << RCC_PLLSAI2CFGR_PLLSAI2R_Pos));
#endif /* RCC_PLLSAI2M_DIV_1_16_SUPPORT */
      }

      /* Enable the PLLSAI2 again by setting PLLSAI2ON to 1*/
      __HAL_RCC_PLLSAI2_ENABLE();
 800247a:	4b14      	ldr	r3, [pc, #80]	; (80024cc <RCCEx_PLLSAI2_Config+0x1b0>)
 800247c:	681b      	ldr	r3, [r3, #0]
 800247e:	4a13      	ldr	r2, [pc, #76]	; (80024cc <RCCEx_PLLSAI2_Config+0x1b0>)
 8002480:	f043 5380 	orr.w	r3, r3, #268435456	; 0x10000000
 8002484:	6013      	str	r3, [r2, #0]

      /* Get Start Tick*/
      tickstart = HAL_GetTick();
 8002486:	f7fe fa73 	bl	8000970 <HAL_GetTick>
 800248a:	60b8      	str	r0, [r7, #8]

      /* Wait till PLLSAI2 is ready */
      while(READ_BIT(RCC->CR, RCC_CR_PLLSAI2RDY) == 0U)
 800248c:	e009      	b.n	80024a2 <RCCEx_PLLSAI2_Config+0x186>
      {
        if((HAL_GetTick() - tickstart) > PLLSAI2_TIMEOUT_VALUE)
 800248e:	f7fe fa6f 	bl	8000970 <HAL_GetTick>
 8002492:	4602      	mov	r2, r0
 8002494:	68bb      	ldr	r3, [r7, #8]
 8002496:	1ad3      	subs	r3, r2, r3
 8002498:	2b02      	cmp	r3, #2
 800249a:	d902      	bls.n	80024a2 <RCCEx_PLLSAI2_Config+0x186>
        {
          status = HAL_TIMEOUT;
 800249c:	2303      	movs	r3, #3
 800249e:	73fb      	strb	r3, [r7, #15]
          break;
 80024a0:	e005      	b.n	80024ae <RCCEx_PLLSAI2_Config+0x192>
      while(READ_BIT(RCC->CR, RCC_CR_PLLSAI2RDY) == 0U)
 80024a2:	4b0a      	ldr	r3, [pc, #40]	; (80024cc <RCCEx_PLLSAI2_Config+0x1b0>)
 80024a4:	681b      	ldr	r3, [r3, #0]
 80024a6:	f003 5300 	and.w	r3, r3, #536870912	; 0x20000000
 80024aa:	2b00      	cmp	r3, #0
 80024ac:	d0ef      	beq.n	800248e <RCCEx_PLLSAI2_Config+0x172>
        }
      }

      if(status == HAL_OK)
 80024ae:	7bfb      	ldrb	r3, [r7, #15]
 80024b0:	2b00      	cmp	r3, #0
 80024b2:	d106      	bne.n	80024c2 <RCCEx_PLLSAI2_Config+0x1a6>
      {
        /* Configure the PLLSAI2 Clock output(s) */
        __HAL_RCC_PLLSAI2CLKOUT_ENABLE(PllSai2->PLLSAI2ClockOut);
 80024b4:	4b05      	ldr	r3, [pc, #20]	; (80024cc <RCCEx_PLLSAI2_Config+0x1b0>)
 80024b6:	695a      	ldr	r2, [r3, #20]
 80024b8:	687b      	ldr	r3, [r7, #4]
 80024ba:	695b      	ldr	r3, [r3, #20]
 80024bc:	4903      	ldr	r1, [pc, #12]	; (80024cc <RCCEx_PLLSAI2_Config+0x1b0>)
 80024be:	4313      	orrs	r3, r2
 80024c0:	614b      	str	r3, [r1, #20]
      }
    }
  }

  return status;
 80024c2:	7bfb      	ldrb	r3, [r7, #15]
}
 80024c4:	4618      	mov	r0, r3
 80024c6:	3710      	adds	r7, #16
 80024c8:	46bd      	mov	sp, r7
 80024ca:	bd80      	pop	{r7, pc}
 80024cc:	40021000 	.word	0x40021000

080024d0 <HAL_UART_Init>:
  *        parameters in the UART_InitTypeDef and initialize the associated handle.
  * @param huart UART handle.
  * @retval HAL status
  */
HAL_StatusTypeDef HAL_UART_Init(UART_HandleTypeDef *huart)
{
 80024d0:	b580      	push	{r7, lr}
 80024d2:	b082      	sub	sp, #8
 80024d4:	af00      	add	r7, sp, #0
 80024d6:	6078      	str	r0, [r7, #4]
  /* Check the UART handle allocation */
  if (huart == NULL)
 80024d8:	687b      	ldr	r3, [r7, #4]
 80024da:	2b00      	cmp	r3, #0
 80024dc:	d101      	bne.n	80024e2 <HAL_UART_Init+0x12>
  {
    return HAL_ERROR;
 80024de:	2301      	movs	r3, #1
 80024e0:	e040      	b.n	8002564 <HAL_UART_Init+0x94>
  {
    /* Check the parameters */
    assert_param((IS_UART_INSTANCE(huart->Instance)) || (IS_LPUART_INSTANCE(huart->Instance)));
  }

  if (huart->gState == HAL_UART_STATE_RESET)
 80024e2:	687b      	ldr	r3, [r7, #4]
 80024e4:	6f5b      	ldr	r3, [r3, #116]	; 0x74
 80024e6:	2b00      	cmp	r3, #0
 80024e8:	d106      	bne.n	80024f8 <HAL_UART_Init+0x28>
  {
    /* Allocate lock resource and initialize it */
    huart->Lock = HAL_UNLOCKED;
 80024ea:	687b      	ldr	r3, [r7, #4]
 80024ec:	2200      	movs	r2, #0
 80024ee:	f883 2070 	strb.w	r2, [r3, #112]	; 0x70

    /* Init the low level hardware */
    huart->MspInitCallback(huart);
#else
    /* Init the low level hardware : GPIO, CLOCK */
    HAL_UART_MspInit(huart);
 80024f2:	6878      	ldr	r0, [r7, #4]
 80024f4:	f7fe f902 	bl	80006fc <HAL_UART_MspInit>
#endif /* (USE_HAL_UART_REGISTER_CALLBACKS) */
  }

  huart->gState = HAL_UART_STATE_BUSY;
 80024f8:	687b      	ldr	r3, [r7, #4]
 80024fa:	2224      	movs	r2, #36	; 0x24
 80024fc:	675a      	str	r2, [r3, #116]	; 0x74

  __HAL_UART_DISABLE(huart);
 80024fe:	687b      	ldr	r3, [r7, #4]
 8002500:	681b      	ldr	r3, [r3, #0]
 8002502:	681a      	ldr	r2, [r3, #0]
 8002504:	687b      	ldr	r3, [r7, #4]
 8002506:	681b      	ldr	r3, [r3, #0]
 8002508:	f022 0201 	bic.w	r2, r2, #1
 800250c:	601a      	str	r2, [r3, #0]

  /* Set the UART Communication parameters */
  if (UART_SetConfig(huart) == HAL_ERROR)
 800250e:	6878      	ldr	r0, [r7, #4]
 8002510:	f000 f82c 	bl	800256c <UART_SetConfig>
 8002514:	4603      	mov	r3, r0
 8002516:	2b01      	cmp	r3, #1
 8002518:	d101      	bne.n	800251e <HAL_UART_Init+0x4e>
  {
    return HAL_ERROR;
 800251a:	2301      	movs	r3, #1
 800251c:	e022      	b.n	8002564 <HAL_UART_Init+0x94>
  }

  if (huart->AdvancedInit.AdvFeatureInit != UART_ADVFEATURE_NO_INIT)
 800251e:	687b      	ldr	r3, [r7, #4]
 8002520:	6a5b      	ldr	r3, [r3, #36]	; 0x24
 8002522:	2b00      	cmp	r3, #0
 8002524:	d002      	beq.n	800252c <HAL_UART_Init+0x5c>
  {
    UART_AdvFeatureConfig(huart);
 8002526:	6878      	ldr	r0, [r7, #4]
 8002528:	f000 faaa 	bl	8002a80 <UART_AdvFeatureConfig>
  }

  /* In asynchronous mode, the following bits must be kept cleared:
  - LINEN and CLKEN bits in the USART_CR2 register,
  - SCEN, HDSEL and IREN  bits in the USART_CR3 register.*/
  CLEAR_BIT(huart->Instance->CR2, (USART_CR2_LINEN | USART_CR2_CLKEN));
 800252c:	687b      	ldr	r3, [r7, #4]
 800252e:	681b      	ldr	r3, [r3, #0]
 8002530:	685a      	ldr	r2, [r3, #4]
 8002532:	687b      	ldr	r3, [r7, #4]
 8002534:	681b      	ldr	r3, [r3, #0]
 8002536:	f422 4290 	bic.w	r2, r2, #18432	; 0x4800
 800253a:	605a      	str	r2, [r3, #4]
  CLEAR_BIT(huart->Instance->CR3, (USART_CR3_SCEN | USART_CR3_HDSEL | USART_CR3_IREN));
 800253c:	687b      	ldr	r3, [r7, #4]
 800253e:	681b      	ldr	r3, [r3, #0]
 8002540:	689a      	ldr	r2, [r3, #8]
 8002542:	687b      	ldr	r3, [r7, #4]
 8002544:	681b      	ldr	r3, [r3, #0]
 8002546:	f022 022a 	bic.w	r2, r2, #42	; 0x2a
 800254a:	609a      	str	r2, [r3, #8]

  __HAL_UART_ENABLE(huart);
 800254c:	687b      	ldr	r3, [r7, #4]
 800254e:	681b      	ldr	r3, [r3, #0]
 8002550:	681a      	ldr	r2, [r3, #0]
 8002552:	687b      	ldr	r3, [r7, #4]
 8002554:	681b      	ldr	r3, [r3, #0]
 8002556:	f042 0201 	orr.w	r2, r2, #1
 800255a:	601a      	str	r2, [r3, #0]

  /* TEACK and/or REACK to check before moving huart->gState and huart->RxState to Ready */
  return (UART_CheckIdleState(huart));
 800255c:	6878      	ldr	r0, [r7, #4]
 800255e:	f000 fb31 	bl	8002bc4 <UART_CheckIdleState>
 8002562:	4603      	mov	r3, r0
}
 8002564:	4618      	mov	r0, r3
 8002566:	3708      	adds	r7, #8
 8002568:	46bd      	mov	sp, r7
 800256a:	bd80      	pop	{r7, pc}

0800256c <UART_SetConfig>:
  * @brief Configure the UART peripheral.
  * @param huart UART handle.
  * @retval HAL status
  */
HAL_StatusTypeDef UART_SetConfig(UART_HandleTypeDef *huart)
{
 800256c:	e92d 4890 	stmdb	sp!, {r4, r7, fp, lr}
 8002570:	b088      	sub	sp, #32
 8002572:	af00      	add	r7, sp, #0
 8002574:	6078      	str	r0, [r7, #4]
  uint32_t tmpreg;
  uint16_t brrtemp;
  UART_ClockSourceTypeDef clocksource;
  uint32_t usartdiv;
  HAL_StatusTypeDef ret               = HAL_OK;
 8002576:	2300      	movs	r3, #0
 8002578:	76bb      	strb	r3, [r7, #26]
  *  the UART Word Length, Parity, Mode and oversampling:
  *  set the M bits according to huart->Init.WordLength value
  *  set PCE and PS bits according to huart->Init.Parity value
  *  set TE and RE bits according to huart->Init.Mode value
  *  set OVER8 bit according to huart->Init.OverSampling value */
  tmpreg = (uint32_t)huart->Init.WordLength | huart->Init.Parity | huart->Init.Mode | huart->Init.OverSampling ;
 800257a:	687b      	ldr	r3, [r7, #4]
 800257c:	689a      	ldr	r2, [r3, #8]
 800257e:	687b      	ldr	r3, [r7, #4]
 8002580:	691b      	ldr	r3, [r3, #16]
 8002582:	431a      	orrs	r2, r3
 8002584:	687b      	ldr	r3, [r7, #4]
 8002586:	695b      	ldr	r3, [r3, #20]
 8002588:	431a      	orrs	r2, r3
 800258a:	687b      	ldr	r3, [r7, #4]
 800258c:	69db      	ldr	r3, [r3, #28]
 800258e:	4313      	orrs	r3, r2
 8002590:	61fb      	str	r3, [r7, #28]
#if defined(USART_CR1_FIFOEN)
  tmpreg |= (uint32_t)huart->FifoMode;
#endif /* USART_CR1_FIFOEN */
  MODIFY_REG(huart->Instance->CR1, USART_CR1_FIELDS, tmpreg);
 8002592:	687b      	ldr	r3, [r7, #4]
 8002594:	681b      	ldr	r3, [r3, #0]
 8002596:	681a      	ldr	r2, [r3, #0]
 8002598:	4bac      	ldr	r3, [pc, #688]	; (800284c <UART_SetConfig+0x2e0>)
 800259a:	4013      	ands	r3, r2
 800259c:	687a      	ldr	r2, [r7, #4]
 800259e:	6812      	ldr	r2, [r2, #0]
 80025a0:	69f9      	ldr	r1, [r7, #28]
 80025a2:	430b      	orrs	r3, r1
 80025a4:	6013      	str	r3, [r2, #0]

  /*-------------------------- USART CR2 Configuration -----------------------*/
  /* Configure the UART Stop Bits: Set STOP[13:12] bits according
  * to huart->Init.StopBits value */
  MODIFY_REG(huart->Instance->CR2, USART_CR2_STOP, huart->Init.StopBits);
 80025a6:	687b      	ldr	r3, [r7, #4]
 80025a8:	681b      	ldr	r3, [r3, #0]
 80025aa:	685b      	ldr	r3, [r3, #4]
 80025ac:	f423 5140 	bic.w	r1, r3, #12288	; 0x3000
 80025b0:	687b      	ldr	r3, [r7, #4]
 80025b2:	68da      	ldr	r2, [r3, #12]
 80025b4:	687b      	ldr	r3, [r7, #4]
 80025b6:	681b      	ldr	r3, [r3, #0]
 80025b8:	430a      	orrs	r2, r1
 80025ba:	605a      	str	r2, [r3, #4]
  /* Configure
  * - UART HardWare Flow Control: set CTSE and RTSE bits according
  *   to huart->Init.HwFlowCtl value
  * - one-bit sampling method versus three samples' majority rule according
  *   to huart->Init.OneBitSampling (not applicable to LPUART) */
  tmpreg = (uint32_t)huart->Init.HwFlowCtl;
 80025bc:	687b      	ldr	r3, [r7, #4]
 80025be:	699b      	ldr	r3, [r3, #24]
 80025c0:	61fb      	str	r3, [r7, #28]

  if (!(UART_INSTANCE_LOWPOWER(huart)))
 80025c2:	687b      	ldr	r3, [r7, #4]
 80025c4:	681b      	ldr	r3, [r3, #0]
 80025c6:	4aa2      	ldr	r2, [pc, #648]	; (8002850 <UART_SetConfig+0x2e4>)
 80025c8:	4293      	cmp	r3, r2
 80025ca:	d004      	beq.n	80025d6 <UART_SetConfig+0x6a>
  {
    tmpreg |= huart->Init.OneBitSampling;
 80025cc:	687b      	ldr	r3, [r7, #4]
 80025ce:	6a1b      	ldr	r3, [r3, #32]
 80025d0:	69fa      	ldr	r2, [r7, #28]
 80025d2:	4313      	orrs	r3, r2
 80025d4:	61fb      	str	r3, [r7, #28]
  }
  MODIFY_REG(huart->Instance->CR3, USART_CR3_FIELDS, tmpreg);
 80025d6:	687b      	ldr	r3, [r7, #4]
 80025d8:	681b      	ldr	r3, [r3, #0]
 80025da:	689b      	ldr	r3, [r3, #8]
 80025dc:	f423 6130 	bic.w	r1, r3, #2816	; 0xb00
 80025e0:	687b      	ldr	r3, [r7, #4]
 80025e2:	681b      	ldr	r3, [r3, #0]
 80025e4:	69fa      	ldr	r2, [r7, #28]
 80025e6:	430a      	orrs	r2, r1
 80025e8:	609a      	str	r2, [r3, #8]
  * - UART Clock Prescaler : set PRESCALER according to huart->Init.ClockPrescaler value */
  MODIFY_REG(huart->Instance->PRESC, USART_PRESC_PRESCALER, huart->Init.ClockPrescaler);
#endif /* USART_PRESC_PRESCALER */

  /*-------------------------- USART BRR Configuration -----------------------*/
  UART_GETCLOCKSOURCE(huart, clocksource);
 80025ea:	687b      	ldr	r3, [r7, #4]
 80025ec:	681b      	ldr	r3, [r3, #0]
 80025ee:	4a99      	ldr	r2, [pc, #612]	; (8002854 <UART_SetConfig+0x2e8>)
 80025f0:	4293      	cmp	r3, r2
 80025f2:	d121      	bne.n	8002638 <UART_SetConfig+0xcc>
 80025f4:	4b98      	ldr	r3, [pc, #608]	; (8002858 <UART_SetConfig+0x2ec>)
 80025f6:	f8d3 3088 	ldr.w	r3, [r3, #136]	; 0x88
 80025fa:	f003 0303 	and.w	r3, r3, #3
 80025fe:	2b03      	cmp	r3, #3
 8002600:	d816      	bhi.n	8002630 <UART_SetConfig+0xc4>
 8002602:	a201      	add	r2, pc, #4	; (adr r2, 8002608 <UART_SetConfig+0x9c>)
 8002604:	f852 f023 	ldr.w	pc, [r2, r3, lsl #2]
 8002608:	08002619 	.word	0x08002619
 800260c:	08002625 	.word	0x08002625
 8002610:	0800261f 	.word	0x0800261f
 8002614:	0800262b 	.word	0x0800262b
 8002618:	2301      	movs	r3, #1
 800261a:	76fb      	strb	r3, [r7, #27]
 800261c:	e0e8      	b.n	80027f0 <UART_SetConfig+0x284>
 800261e:	2302      	movs	r3, #2
 8002620:	76fb      	strb	r3, [r7, #27]
 8002622:	e0e5      	b.n	80027f0 <UART_SetConfig+0x284>
 8002624:	2304      	movs	r3, #4
 8002626:	76fb      	strb	r3, [r7, #27]
 8002628:	e0e2      	b.n	80027f0 <UART_SetConfig+0x284>
 800262a:	2308      	movs	r3, #8
 800262c:	76fb      	strb	r3, [r7, #27]
 800262e:	e0df      	b.n	80027f0 <UART_SetConfig+0x284>
 8002630:	2310      	movs	r3, #16
 8002632:	76fb      	strb	r3, [r7, #27]
 8002634:	bf00      	nop
 8002636:	e0db      	b.n	80027f0 <UART_SetConfig+0x284>
 8002638:	687b      	ldr	r3, [r7, #4]
 800263a:	681b      	ldr	r3, [r3, #0]
 800263c:	4a87      	ldr	r2, [pc, #540]	; (800285c <UART_SetConfig+0x2f0>)
 800263e:	4293      	cmp	r3, r2
 8002640:	d134      	bne.n	80026ac <UART_SetConfig+0x140>
 8002642:	4b85      	ldr	r3, [pc, #532]	; (8002858 <UART_SetConfig+0x2ec>)
 8002644:	f8d3 3088 	ldr.w	r3, [r3, #136]	; 0x88
 8002648:	f003 030c 	and.w	r3, r3, #12
 800264c:	2b0c      	cmp	r3, #12
 800264e:	d829      	bhi.n	80026a4 <UART_SetConfig+0x138>
 8002650:	a201      	add	r2, pc, #4	; (adr r2, 8002658 <UART_SetConfig+0xec>)
 8002652:	f852 f023 	ldr.w	pc, [r2, r3, lsl #2]
 8002656:	bf00      	nop
 8002658:	0800268d 	.word	0x0800268d
 800265c:	080026a5 	.word	0x080026a5
 8002660:	080026a5 	.word	0x080026a5
 8002664:	080026a5 	.word	0x080026a5
 8002668:	08002699 	.word	0x08002699
 800266c:	080026a5 	.word	0x080026a5
 8002670:	080026a5 	.word	0x080026a5
 8002674:	080026a5 	.word	0x080026a5
 8002678:	08002693 	.word	0x08002693
 800267c:	080026a5 	.word	0x080026a5
 8002680:	080026a5 	.word	0x080026a5
 8002684:	080026a5 	.word	0x080026a5
 8002688:	0800269f 	.word	0x0800269f
 800268c:	2300      	movs	r3, #0
 800268e:	76fb      	strb	r3, [r7, #27]
 8002690:	e0ae      	b.n	80027f0 <UART_SetConfig+0x284>
 8002692:	2302      	movs	r3, #2
 8002694:	76fb      	strb	r3, [r7, #27]
 8002696:	e0ab      	b.n	80027f0 <UART_SetConfig+0x284>
 8002698:	2304      	movs	r3, #4
 800269a:	76fb      	strb	r3, [r7, #27]
 800269c:	e0a8      	b.n	80027f0 <UART_SetConfig+0x284>
 800269e:	2308      	movs	r3, #8
 80026a0:	76fb      	strb	r3, [r7, #27]
 80026a2:	e0a5      	b.n	80027f0 <UART_SetConfig+0x284>
 80026a4:	2310      	movs	r3, #16
 80026a6:	76fb      	strb	r3, [r7, #27]
 80026a8:	bf00      	nop
 80026aa:	e0a1      	b.n	80027f0 <UART_SetConfig+0x284>
 80026ac:	687b      	ldr	r3, [r7, #4]
 80026ae:	681b      	ldr	r3, [r3, #0]
 80026b0:	4a6b      	ldr	r2, [pc, #428]	; (8002860 <UART_SetConfig+0x2f4>)
 80026b2:	4293      	cmp	r3, r2
 80026b4:	d120      	bne.n	80026f8 <UART_SetConfig+0x18c>
 80026b6:	4b68      	ldr	r3, [pc, #416]	; (8002858 <UART_SetConfig+0x2ec>)
 80026b8:	f8d3 3088 	ldr.w	r3, [r3, #136]	; 0x88
 80026bc:	f003 0330 	and.w	r3, r3, #48	; 0x30
 80026c0:	2b10      	cmp	r3, #16
 80026c2:	d00f      	beq.n	80026e4 <UART_SetConfig+0x178>
 80026c4:	2b10      	cmp	r3, #16
 80026c6:	d802      	bhi.n	80026ce <UART_SetConfig+0x162>
 80026c8:	2b00      	cmp	r3, #0
 80026ca:	d005      	beq.n	80026d8 <UART_SetConfig+0x16c>
 80026cc:	e010      	b.n	80026f0 <UART_SetConfig+0x184>
 80026ce:	2b20      	cmp	r3, #32
 80026d0:	d005      	beq.n	80026de <UART_SetConfig+0x172>
 80026d2:	2b30      	cmp	r3, #48	; 0x30
 80026d4:	d009      	beq.n	80026ea <UART_SetConfig+0x17e>
 80026d6:	e00b      	b.n	80026f0 <UART_SetConfig+0x184>
 80026d8:	2300      	movs	r3, #0
 80026da:	76fb      	strb	r3, [r7, #27]
 80026dc:	e088      	b.n	80027f0 <UART_SetConfig+0x284>
 80026de:	2302      	movs	r3, #2
 80026e0:	76fb      	strb	r3, [r7, #27]
 80026e2:	e085      	b.n	80027f0 <UART_SetConfig+0x284>
 80026e4:	2304      	movs	r3, #4
 80026e6:	76fb      	strb	r3, [r7, #27]
 80026e8:	e082      	b.n	80027f0 <UART_SetConfig+0x284>
 80026ea:	2308      	movs	r3, #8
 80026ec:	76fb      	strb	r3, [r7, #27]
 80026ee:	e07f      	b.n	80027f0 <UART_SetConfig+0x284>
 80026f0:	2310      	movs	r3, #16
 80026f2:	76fb      	strb	r3, [r7, #27]
 80026f4:	bf00      	nop
 80026f6:	e07b      	b.n	80027f0 <UART_SetConfig+0x284>
 80026f8:	687b      	ldr	r3, [r7, #4]
 80026fa:	681b      	ldr	r3, [r3, #0]
 80026fc:	4a59      	ldr	r2, [pc, #356]	; (8002864 <UART_SetConfig+0x2f8>)
 80026fe:	4293      	cmp	r3, r2
 8002700:	d120      	bne.n	8002744 <UART_SetConfig+0x1d8>
 8002702:	4b55      	ldr	r3, [pc, #340]	; (8002858 <UART_SetConfig+0x2ec>)
 8002704:	f8d3 3088 	ldr.w	r3, [r3, #136]	; 0x88
 8002708:	f003 03c0 	and.w	r3, r3, #192	; 0xc0
 800270c:	2b40      	cmp	r3, #64	; 0x40
 800270e:	d00f      	beq.n	8002730 <UART_SetConfig+0x1c4>
 8002710:	2b40      	cmp	r3, #64	; 0x40
 8002712:	d802      	bhi.n	800271a <UART_SetConfig+0x1ae>
 8002714:	2b00      	cmp	r3, #0
 8002716:	d005      	beq.n	8002724 <UART_SetConfig+0x1b8>
 8002718:	e010      	b.n	800273c <UART_SetConfig+0x1d0>
 800271a:	2b80      	cmp	r3, #128	; 0x80
 800271c:	d005      	beq.n	800272a <UART_SetConfig+0x1be>
 800271e:	2bc0      	cmp	r3, #192	; 0xc0
 8002720:	d009      	beq.n	8002736 <UART_SetConfig+0x1ca>
 8002722:	e00b      	b.n	800273c <UART_SetConfig+0x1d0>
 8002724:	2300      	movs	r3, #0
 8002726:	76fb      	strb	r3, [r7, #27]
 8002728:	e062      	b.n	80027f0 <UART_SetConfig+0x284>
 800272a:	2302      	movs	r3, #2
 800272c:	76fb      	strb	r3, [r7, #27]
 800272e:	e05f      	b.n	80027f0 <UART_SetConfig+0x284>
 8002730:	2304      	movs	r3, #4
 8002732:	76fb      	strb	r3, [r7, #27]
 8002734:	e05c      	b.n	80027f0 <UART_SetConfig+0x284>
 8002736:	2308      	movs	r3, #8
 8002738:	76fb      	strb	r3, [r7, #27]
 800273a:	e059      	b.n	80027f0 <UART_SetConfig+0x284>
 800273c:	2310      	movs	r3, #16
 800273e:	76fb      	strb	r3, [r7, #27]
 8002740:	bf00      	nop
 8002742:	e055      	b.n	80027f0 <UART_SetConfig+0x284>
 8002744:	687b      	ldr	r3, [r7, #4]
 8002746:	681b      	ldr	r3, [r3, #0]
 8002748:	4a47      	ldr	r2, [pc, #284]	; (8002868 <UART_SetConfig+0x2fc>)
 800274a:	4293      	cmp	r3, r2
 800274c:	d124      	bne.n	8002798 <UART_SetConfig+0x22c>
 800274e:	4b42      	ldr	r3, [pc, #264]	; (8002858 <UART_SetConfig+0x2ec>)
 8002750:	f8d3 3088 	ldr.w	r3, [r3, #136]	; 0x88
 8002754:	f403 7340 	and.w	r3, r3, #768	; 0x300
 8002758:	f5b3 7f80 	cmp.w	r3, #256	; 0x100
 800275c:	d012      	beq.n	8002784 <UART_SetConfig+0x218>
 800275e:	f5b3 7f80 	cmp.w	r3, #256	; 0x100
 8002762:	d802      	bhi.n	800276a <UART_SetConfig+0x1fe>
 8002764:	2b00      	cmp	r3, #0
 8002766:	d007      	beq.n	8002778 <UART_SetConfig+0x20c>
 8002768:	e012      	b.n	8002790 <UART_SetConfig+0x224>
 800276a:	f5b3 7f00 	cmp.w	r3, #512	; 0x200
 800276e:	d006      	beq.n	800277e <UART_SetConfig+0x212>
 8002770:	f5b3 7f40 	cmp.w	r3, #768	; 0x300
 8002774:	d009      	beq.n	800278a <UART_SetConfig+0x21e>
 8002776:	e00b      	b.n	8002790 <UART_SetConfig+0x224>
 8002778:	2300      	movs	r3, #0
 800277a:	76fb      	strb	r3, [r7, #27]
 800277c:	e038      	b.n	80027f0 <UART_SetConfig+0x284>
 800277e:	2302      	movs	r3, #2
 8002780:	76fb      	strb	r3, [r7, #27]
 8002782:	e035      	b.n	80027f0 <UART_SetConfig+0x284>
 8002784:	2304      	movs	r3, #4
 8002786:	76fb      	strb	r3, [r7, #27]
 8002788:	e032      	b.n	80027f0 <UART_SetConfig+0x284>
 800278a:	2308      	movs	r3, #8
 800278c:	76fb      	strb	r3, [r7, #27]
 800278e:	e02f      	b.n	80027f0 <UART_SetConfig+0x284>
 8002790:	2310      	movs	r3, #16
 8002792:	76fb      	strb	r3, [r7, #27]
 8002794:	bf00      	nop
 8002796:	e02b      	b.n	80027f0 <UART_SetConfig+0x284>
 8002798:	687b      	ldr	r3, [r7, #4]
 800279a:	681b      	ldr	r3, [r3, #0]
 800279c:	4a2c      	ldr	r2, [pc, #176]	; (8002850 <UART_SetConfig+0x2e4>)
 800279e:	4293      	cmp	r3, r2
 80027a0:	d124      	bne.n	80027ec <UART_SetConfig+0x280>
 80027a2:	4b2d      	ldr	r3, [pc, #180]	; (8002858 <UART_SetConfig+0x2ec>)
 80027a4:	f8d3 3088 	ldr.w	r3, [r3, #136]	; 0x88
 80027a8:	f403 6340 	and.w	r3, r3, #3072	; 0xc00
 80027ac:	f5b3 6f80 	cmp.w	r3, #1024	; 0x400
 80027b0:	d012      	beq.n	80027d8 <UART_SetConfig+0x26c>
 80027b2:	f5b3 6f80 	cmp.w	r3, #1024	; 0x400
 80027b6:	d802      	bhi.n	80027be <UART_SetConfig+0x252>
 80027b8:	2b00      	cmp	r3, #0
 80027ba:	d007      	beq.n	80027cc <UART_SetConfig+0x260>
 80027bc:	e012      	b.n	80027e4 <UART_SetConfig+0x278>
 80027be:	f5b3 6f00 	cmp.w	r3, #2048	; 0x800
 80027c2:	d006      	beq.n	80027d2 <UART_SetConfig+0x266>
 80027c4:	f5b3 6f40 	cmp.w	r3, #3072	; 0xc00
 80027c8:	d009      	beq.n	80027de <UART_SetConfig+0x272>
 80027ca:	e00b      	b.n	80027e4 <UART_SetConfig+0x278>
 80027cc:	2300      	movs	r3, #0
 80027ce:	76fb      	strb	r3, [r7, #27]
 80027d0:	e00e      	b.n	80027f0 <UART_SetConfig+0x284>
 80027d2:	2302      	movs	r3, #2
 80027d4:	76fb      	strb	r3, [r7, #27]
 80027d6:	e00b      	b.n	80027f0 <UART_SetConfig+0x284>
 80027d8:	2304      	movs	r3, #4
 80027da:	76fb      	strb	r3, [r7, #27]
 80027dc:	e008      	b.n	80027f0 <UART_SetConfig+0x284>
 80027de:	2308      	movs	r3, #8
 80027e0:	76fb      	strb	r3, [r7, #27]
 80027e2:	e005      	b.n	80027f0 <UART_SetConfig+0x284>
 80027e4:	2310      	movs	r3, #16
 80027e6:	76fb      	strb	r3, [r7, #27]
 80027e8:	bf00      	nop
 80027ea:	e001      	b.n	80027f0 <UART_SetConfig+0x284>
 80027ec:	2310      	movs	r3, #16
 80027ee:	76fb      	strb	r3, [r7, #27]

  /* Check LPUART instance */
  if (UART_INSTANCE_LOWPOWER(huart))
 80027f0:	687b      	ldr	r3, [r7, #4]
 80027f2:	681b      	ldr	r3, [r3, #0]
 80027f4:	4a16      	ldr	r2, [pc, #88]	; (8002850 <UART_SetConfig+0x2e4>)
 80027f6:	4293      	cmp	r3, r2
 80027f8:	f040 8087 	bne.w	800290a <UART_SetConfig+0x39e>
  {
    /* Retrieve frequency clock */
    switch (clocksource)
 80027fc:	7efb      	ldrb	r3, [r7, #27]
 80027fe:	2b08      	cmp	r3, #8
 8002800:	d836      	bhi.n	8002870 <UART_SetConfig+0x304>
 8002802:	a201      	add	r2, pc, #4	; (adr r2, 8002808 <UART_SetConfig+0x29c>)
 8002804:	f852 f023 	ldr.w	pc, [r2, r3, lsl #2]
 8002808:	0800282d 	.word	0x0800282d
 800280c:	08002871 	.word	0x08002871
 8002810:	08002835 	.word	0x08002835
 8002814:	08002871 	.word	0x08002871
 8002818:	0800283b 	.word	0x0800283b
 800281c:	08002871 	.word	0x08002871
 8002820:	08002871 	.word	0x08002871
 8002824:	08002871 	.word	0x08002871
 8002828:	08002843 	.word	0x08002843
    {
      case UART_CLOCKSOURCE_PCLK1:
        pclk = HAL_RCC_GetPCLK1Freq();
 800282c:	f7ff f914 	bl	8001a58 <HAL_RCC_GetPCLK1Freq>
 8002830:	6178      	str	r0, [r7, #20]
        break;
 8002832:	e022      	b.n	800287a <UART_SetConfig+0x30e>
      case UART_CLOCKSOURCE_HSI:
        pclk = (uint32_t) HSI_VALUE;
 8002834:	4b0d      	ldr	r3, [pc, #52]	; (800286c <UART_SetConfig+0x300>)
 8002836:	617b      	str	r3, [r7, #20]
        break;
 8002838:	e01f      	b.n	800287a <UART_SetConfig+0x30e>
      case UART_CLOCKSOURCE_SYSCLK:
        pclk = HAL_RCC_GetSysClockFreq();
 800283a:	f7ff f877 	bl	800192c <HAL_RCC_GetSysClockFreq>
 800283e:	6178      	str	r0, [r7, #20]
        break;
 8002840:	e01b      	b.n	800287a <UART_SetConfig+0x30e>
      case UART_CLOCKSOURCE_LSE:
        pclk = (uint32_t) LSE_VALUE;
 8002842:	f44f 4300 	mov.w	r3, #32768	; 0x8000
 8002846:	617b      	str	r3, [r7, #20]
        break;
 8002848:	e017      	b.n	800287a <UART_SetConfig+0x30e>
 800284a:	bf00      	nop
 800284c:	efff69f3 	.word	0xefff69f3
 8002850:	40008000 	.word	0x40008000
 8002854:	40013800 	.word	0x40013800
 8002858:	40021000 	.word	0x40021000
 800285c:	40004400 	.word	0x40004400
 8002860:	40004800 	.word	0x40004800
 8002864:	40004c00 	.word	0x40004c00
 8002868:	40005000 	.word	0x40005000
 800286c:	00f42400 	.word	0x00f42400
      default:
        pclk = 0U;
 8002870:	2300      	movs	r3, #0
 8002872:	617b      	str	r3, [r7, #20]
        ret = HAL_ERROR;
 8002874:	2301      	movs	r3, #1
 8002876:	76bb      	strb	r3, [r7, #26]
        break;
 8002878:	bf00      	nop
    }

    /* If proper clock source reported */
    if (pclk != 0U)
 800287a:	697b      	ldr	r3, [r7, #20]
 800287c:	2b00      	cmp	r3, #0
 800287e:	f000 80f1 	beq.w	8002a64 <UART_SetConfig+0x4f8>
        }
      } /* if ( (lpuart_ker_ck_pres < (3 * huart->Init.BaudRate) ) || (lpuart_ker_ck_pres > (4096 * huart->Init.BaudRate) )) */
#else
      /* No Prescaler applicable */
      /* Ensure that Frequency clock is in the range [3 * baudrate, 4096 * baudrate] */
      if ((pclk < (3U * huart->Init.BaudRate)) ||
 8002882:	687b      	ldr	r3, [r7, #4]
 8002884:	685a      	ldr	r2, [r3, #4]
 8002886:	4613      	mov	r3, r2
 8002888:	005b      	lsls	r3, r3, #1
 800288a:	4413      	add	r3, r2
 800288c:	697a      	ldr	r2, [r7, #20]
 800288e:	429a      	cmp	r2, r3
 8002890:	d305      	bcc.n	800289e <UART_SetConfig+0x332>
          (pclk > (4096U * huart->Init.BaudRate)))
 8002892:	687b      	ldr	r3, [r7, #4]
 8002894:	685b      	ldr	r3, [r3, #4]
 8002896:	031b      	lsls	r3, r3, #12
      if ((pclk < (3U * huart->Init.BaudRate)) ||
 8002898:	697a      	ldr	r2, [r7, #20]
 800289a:	429a      	cmp	r2, r3
 800289c:	d902      	bls.n	80028a4 <UART_SetConfig+0x338>
      {
        ret = HAL_ERROR;
 800289e:	2301      	movs	r3, #1
 80028a0:	76bb      	strb	r3, [r7, #26]
 80028a2:	e0df      	b.n	8002a64 <UART_SetConfig+0x4f8>
      }
      else
      {
        usartdiv = (uint32_t)(UART_DIV_LPUART(pclk, (uint64_t)huart->Init.BaudRate));
 80028a4:	697b      	ldr	r3, [r7, #20]
 80028a6:	4619      	mov	r1, r3
 80028a8:	f04f 0200 	mov.w	r2, #0
 80028ac:	f04f 0300 	mov.w	r3, #0
 80028b0:	f04f 0400 	mov.w	r4, #0
 80028b4:	0214      	lsls	r4, r2, #8
 80028b6:	ea44 6411 	orr.w	r4, r4, r1, lsr #24
 80028ba:	020b      	lsls	r3, r1, #8
 80028bc:	687a      	ldr	r2, [r7, #4]
 80028be:	6852      	ldr	r2, [r2, #4]
 80028c0:	0852      	lsrs	r2, r2, #1
 80028c2:	4611      	mov	r1, r2
 80028c4:	f04f 0200 	mov.w	r2, #0
 80028c8:	eb13 0b01 	adds.w	fp, r3, r1
 80028cc:	eb44 0c02 	adc.w	ip, r4, r2
 80028d0:	4658      	mov	r0, fp
 80028d2:	4661      	mov	r1, ip
 80028d4:	687b      	ldr	r3, [r7, #4]
 80028d6:	685b      	ldr	r3, [r3, #4]
 80028d8:	f04f 0400 	mov.w	r4, #0
 80028dc:	461a      	mov	r2, r3
 80028de:	4623      	mov	r3, r4
 80028e0:	f7fd fc72 	bl	80001c8 <__aeabi_uldivmod>
 80028e4:	4603      	mov	r3, r0
 80028e6:	460c      	mov	r4, r1
 80028e8:	613b      	str	r3, [r7, #16]
        if ((usartdiv >= LPUART_BRR_MIN) && (usartdiv <= LPUART_BRR_MAX))
 80028ea:	693b      	ldr	r3, [r7, #16]
 80028ec:	f5b3 7f40 	cmp.w	r3, #768	; 0x300
 80028f0:	d308      	bcc.n	8002904 <UART_SetConfig+0x398>
 80028f2:	693b      	ldr	r3, [r7, #16]
 80028f4:	f5b3 1f80 	cmp.w	r3, #1048576	; 0x100000
 80028f8:	d204      	bcs.n	8002904 <UART_SetConfig+0x398>
        {
          huart->Instance->BRR = usartdiv;
 80028fa:	687b      	ldr	r3, [r7, #4]
 80028fc:	681b      	ldr	r3, [r3, #0]
 80028fe:	693a      	ldr	r2, [r7, #16]
 8002900:	60da      	str	r2, [r3, #12]
 8002902:	e0af      	b.n	8002a64 <UART_SetConfig+0x4f8>
        }
        else
        {
          ret = HAL_ERROR;
 8002904:	2301      	movs	r3, #1
 8002906:	76bb      	strb	r3, [r7, #26]
 8002908:	e0ac      	b.n	8002a64 <UART_SetConfig+0x4f8>
      } /* if ( (pclk < (3 * huart->Init.BaudRate) ) || (pclk > (4096 * huart->Init.BaudRate) )) */
#endif /* USART_PRESC_PRESCALER */
    } /* if (pclk != 0) */
  }
  /* Check UART Over Sampling to set Baud Rate Register */
  else if (huart->Init.OverSampling == UART_OVERSAMPLING_8)
 800290a:	687b      	ldr	r3, [r7, #4]
 800290c:	69db      	ldr	r3, [r3, #28]
 800290e:	f5b3 4f00 	cmp.w	r3, #32768	; 0x8000
 8002912:	d15b      	bne.n	80029cc <UART_SetConfig+0x460>
  {
    switch (clocksource)
 8002914:	7efb      	ldrb	r3, [r7, #27]
 8002916:	2b08      	cmp	r3, #8
 8002918:	d827      	bhi.n	800296a <UART_SetConfig+0x3fe>
 800291a:	a201      	add	r2, pc, #4	; (adr r2, 8002920 <UART_SetConfig+0x3b4>)
 800291c:	f852 f023 	ldr.w	pc, [r2, r3, lsl #2]
 8002920:	08002945 	.word	0x08002945
 8002924:	0800294d 	.word	0x0800294d
 8002928:	08002955 	.word	0x08002955
 800292c:	0800296b 	.word	0x0800296b
 8002930:	0800295b 	.word	0x0800295b
 8002934:	0800296b 	.word	0x0800296b
 8002938:	0800296b 	.word	0x0800296b
 800293c:	0800296b 	.word	0x0800296b
 8002940:	08002963 	.word	0x08002963
    {
      case UART_CLOCKSOURCE_PCLK1:
        pclk = HAL_RCC_GetPCLK1Freq();
 8002944:	f7ff f888 	bl	8001a58 <HAL_RCC_GetPCLK1Freq>
 8002948:	6178      	str	r0, [r7, #20]
        break;
 800294a:	e013      	b.n	8002974 <UART_SetConfig+0x408>
      case UART_CLOCKSOURCE_PCLK2:
        pclk = HAL_RCC_GetPCLK2Freq();
 800294c:	f7ff f89a 	bl	8001a84 <HAL_RCC_GetPCLK2Freq>
 8002950:	6178      	str	r0, [r7, #20]
        break;
 8002952:	e00f      	b.n	8002974 <UART_SetConfig+0x408>
      case UART_CLOCKSOURCE_HSI:
        pclk = (uint32_t) HSI_VALUE;
 8002954:	4b49      	ldr	r3, [pc, #292]	; (8002a7c <UART_SetConfig+0x510>)
 8002956:	617b      	str	r3, [r7, #20]
        break;
 8002958:	e00c      	b.n	8002974 <UART_SetConfig+0x408>
      case UART_CLOCKSOURCE_SYSCLK:
        pclk = HAL_RCC_GetSysClockFreq();
 800295a:	f7fe ffe7 	bl	800192c <HAL_RCC_GetSysClockFreq>
 800295e:	6178      	str	r0, [r7, #20]
        break;
 8002960:	e008      	b.n	8002974 <UART_SetConfig+0x408>
      case UART_CLOCKSOURCE_LSE:
        pclk = (uint32_t) LSE_VALUE;
 8002962:	f44f 4300 	mov.w	r3, #32768	; 0x8000
 8002966:	617b      	str	r3, [r7, #20]
        break;
 8002968:	e004      	b.n	8002974 <UART_SetConfig+0x408>
      default:
        pclk = 0U;
 800296a:	2300      	movs	r3, #0
 800296c:	617b      	str	r3, [r7, #20]
        ret = HAL_ERROR;
 800296e:	2301      	movs	r3, #1
 8002970:	76bb      	strb	r3, [r7, #26]
        break;
 8002972:	bf00      	nop
    }

    /* USARTDIV must be greater than or equal to 0d16 */
    if (pclk != 0U)
 8002974:	697b      	ldr	r3, [r7, #20]
 8002976:	2b00      	cmp	r3, #0
 8002978:	d074      	beq.n	8002a64 <UART_SetConfig+0x4f8>
    {
#if defined(USART_PRESC_PRESCALER)
      usartdiv = (uint16_t)(UART_DIV_SAMPLING8(pclk, huart->Init.BaudRate, huart->Init.ClockPrescaler));
#else
      usartdiv = (uint16_t)(UART_DIV_SAMPLING8(pclk, huart->Init.BaudRate));
 800297a:	697b      	ldr	r3, [r7, #20]
 800297c:	005a      	lsls	r2, r3, #1
 800297e:	687b      	ldr	r3, [r7, #4]
 8002980:	685b      	ldr	r3, [r3, #4]
 8002982:	085b      	lsrs	r3, r3, #1
 8002984:	441a      	add	r2, r3
 8002986:	687b      	ldr	r3, [r7, #4]
 8002988:	685b      	ldr	r3, [r3, #4]
 800298a:	fbb2 f3f3 	udiv	r3, r2, r3
 800298e:	b29b      	uxth	r3, r3
 8002990:	613b      	str	r3, [r7, #16]
#endif /* USART_PRESC_PRESCALER */
      if ((usartdiv >= UART_BRR_MIN) && (usartdiv <= UART_BRR_MAX))
 8002992:	693b      	ldr	r3, [r7, #16]
 8002994:	2b0f      	cmp	r3, #15
 8002996:	d916      	bls.n	80029c6 <UART_SetConfig+0x45a>
 8002998:	693b      	ldr	r3, [r7, #16]
 800299a:	f5b3 3f80 	cmp.w	r3, #65536	; 0x10000
 800299e:	d212      	bcs.n	80029c6 <UART_SetConfig+0x45a>
      {
        brrtemp = (uint16_t)(usartdiv & 0xFFF0U);
 80029a0:	693b      	ldr	r3, [r7, #16]
 80029a2:	b29b      	uxth	r3, r3
 80029a4:	f023 030f 	bic.w	r3, r3, #15
 80029a8:	81fb      	strh	r3, [r7, #14]
        brrtemp |= (uint16_t)((usartdiv & (uint16_t)0x000FU) >> 1U);
 80029aa:	693b      	ldr	r3, [r7, #16]
 80029ac:	085b      	lsrs	r3, r3, #1
 80029ae:	b29b      	uxth	r3, r3
 80029b0:	f003 0307 	and.w	r3, r3, #7
 80029b4:	b29a      	uxth	r2, r3
 80029b6:	89fb      	ldrh	r3, [r7, #14]
 80029b8:	4313      	orrs	r3, r2
 80029ba:	81fb      	strh	r3, [r7, #14]
        huart->Instance->BRR = brrtemp;
 80029bc:	687b      	ldr	r3, [r7, #4]
 80029be:	681b      	ldr	r3, [r3, #0]
 80029c0:	89fa      	ldrh	r2, [r7, #14]
 80029c2:	60da      	str	r2, [r3, #12]
 80029c4:	e04e      	b.n	8002a64 <UART_SetConfig+0x4f8>
      }
      else
      {
        ret = HAL_ERROR;
 80029c6:	2301      	movs	r3, #1
 80029c8:	76bb      	strb	r3, [r7, #26]
 80029ca:	e04b      	b.n	8002a64 <UART_SetConfig+0x4f8>
      }
    }
  }
  else
  {
    switch (clocksource)
 80029cc:	7efb      	ldrb	r3, [r7, #27]
 80029ce:	2b08      	cmp	r3, #8
 80029d0:	d827      	bhi.n	8002a22 <UART_SetConfig+0x4b6>
 80029d2:	a201      	add	r2, pc, #4	; (adr r2, 80029d8 <UART_SetConfig+0x46c>)
 80029d4:	f852 f023 	ldr.w	pc, [r2, r3, lsl #2]
 80029d8:	080029fd 	.word	0x080029fd
 80029dc:	08002a05 	.word	0x08002a05
 80029e0:	08002a0d 	.word	0x08002a0d
 80029e4:	08002a23 	.word	0x08002a23
 80029e8:	08002a13 	.word	0x08002a13
 80029ec:	08002a23 	.word	0x08002a23
 80029f0:	08002a23 	.word	0x08002a23
 80029f4:	08002a23 	.word	0x08002a23
 80029f8:	08002a1b 	.word	0x08002a1b
    {
      case UART_CLOCKSOURCE_PCLK1:
        pclk = HAL_RCC_GetPCLK1Freq();
 80029fc:	f7ff f82c 	bl	8001a58 <HAL_RCC_GetPCLK1Freq>
 8002a00:	6178      	str	r0, [r7, #20]
        break;
 8002a02:	e013      	b.n	8002a2c <UART_SetConfig+0x4c0>
      case UART_CLOCKSOURCE_PCLK2:
        pclk = HAL_RCC_GetPCLK2Freq();
 8002a04:	f7ff f83e 	bl	8001a84 <HAL_RCC_GetPCLK2Freq>
 8002a08:	6178      	str	r0, [r7, #20]
        break;
 8002a0a:	e00f      	b.n	8002a2c <UART_SetConfig+0x4c0>
      case UART_CLOCKSOURCE_HSI:
        pclk = (uint32_t) HSI_VALUE;
 8002a0c:	4b1b      	ldr	r3, [pc, #108]	; (8002a7c <UART_SetConfig+0x510>)
 8002a0e:	617b      	str	r3, [r7, #20]
        break;
 8002a10:	e00c      	b.n	8002a2c <UART_SetConfig+0x4c0>
      case UART_CLOCKSOURCE_SYSCLK:
        pclk = HAL_RCC_GetSysClockFreq();
 8002a12:	f7fe ff8b 	bl	800192c <HAL_RCC_GetSysClockFreq>
 8002a16:	6178      	str	r0, [r7, #20]
        break;
 8002a18:	e008      	b.n	8002a2c <UART_SetConfig+0x4c0>
      case UART_CLOCKSOURCE_LSE:
        pclk = (uint32_t) LSE_VALUE;
 8002a1a:	f44f 4300 	mov.w	r3, #32768	; 0x8000
 8002a1e:	617b      	str	r3, [r7, #20]
        break;
 8002a20:	e004      	b.n	8002a2c <UART_SetConfig+0x4c0>
      default:
        pclk = 0U;
 8002a22:	2300      	movs	r3, #0
 8002a24:	617b      	str	r3, [r7, #20]
        ret = HAL_ERROR;
 8002a26:	2301      	movs	r3, #1
 8002a28:	76bb      	strb	r3, [r7, #26]
        break;
 8002a2a:	bf00      	nop
    }

    if (pclk != 0U)
 8002a2c:	697b      	ldr	r3, [r7, #20]
 8002a2e:	2b00      	cmp	r3, #0
 8002a30:	d018      	beq.n	8002a64 <UART_SetConfig+0x4f8>
    {
      /* USARTDIV must be greater than or equal to 0d16 */
#if defined(USART_PRESC_PRESCALER)
      usartdiv = (uint16_t)(UART_DIV_SAMPLING16(pclk, huart->Init.BaudRate, huart->Init.ClockPrescaler));
#else
      usartdiv = (uint16_t)(UART_DIV_SAMPLING16(pclk, huart->Init.BaudRate));
 8002a32:	687b      	ldr	r3, [r7, #4]
 8002a34:	685b      	ldr	r3, [r3, #4]
 8002a36:	085a      	lsrs	r2, r3, #1
 8002a38:	697b      	ldr	r3, [r7, #20]
 8002a3a:	441a      	add	r2, r3
 8002a3c:	687b      	ldr	r3, [r7, #4]
 8002a3e:	685b      	ldr	r3, [r3, #4]
 8002a40:	fbb2 f3f3 	udiv	r3, r2, r3
 8002a44:	b29b      	uxth	r3, r3
 8002a46:	613b      	str	r3, [r7, #16]
#endif /* USART_PRESC_PRESCALER */
      if ((usartdiv >= UART_BRR_MIN) && (usartdiv <= UART_BRR_MAX))
 8002a48:	693b      	ldr	r3, [r7, #16]
 8002a4a:	2b0f      	cmp	r3, #15
 8002a4c:	d908      	bls.n	8002a60 <UART_SetConfig+0x4f4>
 8002a4e:	693b      	ldr	r3, [r7, #16]
 8002a50:	f5b3 3f80 	cmp.w	r3, #65536	; 0x10000
 8002a54:	d204      	bcs.n	8002a60 <UART_SetConfig+0x4f4>
      {
        huart->Instance->BRR = usartdiv;
 8002a56:	687b      	ldr	r3, [r7, #4]
 8002a58:	681b      	ldr	r3, [r3, #0]
 8002a5a:	693a      	ldr	r2, [r7, #16]
 8002a5c:	60da      	str	r2, [r3, #12]
 8002a5e:	e001      	b.n	8002a64 <UART_SetConfig+0x4f8>
      }
      else
      {
        ret = HAL_ERROR;
 8002a60:	2301      	movs	r3, #1
 8002a62:	76bb      	strb	r3, [r7, #26]
  huart->NbTxDataToProcess = 1;
  huart->NbRxDataToProcess = 1;
#endif /* USART_CR1_FIFOEN */

  /* Clear ISR function pointers */
  huart->RxISR = NULL;
 8002a64:	687b      	ldr	r3, [r7, #4]
 8002a66:	2200      	movs	r2, #0
 8002a68:	661a      	str	r2, [r3, #96]	; 0x60
  huart->TxISR = NULL;
 8002a6a:	687b      	ldr	r3, [r7, #4]
 8002a6c:	2200      	movs	r2, #0
 8002a6e:	665a      	str	r2, [r3, #100]	; 0x64

  return ret;
 8002a70:	7ebb      	ldrb	r3, [r7, #26]
}
 8002a72:	4618      	mov	r0, r3
 8002a74:	3720      	adds	r7, #32
 8002a76:	46bd      	mov	sp, r7
 8002a78:	e8bd 8890 	ldmia.w	sp!, {r4, r7, fp, pc}
 8002a7c:	00f42400 	.word	0x00f42400

08002a80 <UART_AdvFeatureConfig>:
  * @brief Configure the UART peripheral advanced features.
  * @param huart UART handle.
  * @retval None
  */
void UART_AdvFeatureConfig(UART_HandleTypeDef *huart)
{
 8002a80:	b480      	push	{r7}
 8002a82:	b083      	sub	sp, #12
 8002a84:	af00      	add	r7, sp, #0
 8002a86:	6078      	str	r0, [r7, #4]
  /* Check whether the set of advanced features to configure is properly set */
  assert_param(IS_UART_ADVFEATURE_INIT(huart->AdvancedInit.AdvFeatureInit));

  /* if required, configure TX pin active level inversion */
  if (HAL_IS_BIT_SET(huart->AdvancedInit.AdvFeatureInit, UART_ADVFEATURE_TXINVERT_INIT))
 8002a88:	687b      	ldr	r3, [r7, #4]
 8002a8a:	6a5b      	ldr	r3, [r3, #36]	; 0x24
 8002a8c:	f003 0301 	and.w	r3, r3, #1
 8002a90:	2b00      	cmp	r3, #0
 8002a92:	d00a      	beq.n	8002aaa <UART_AdvFeatureConfig+0x2a>
  {
    assert_param(IS_UART_ADVFEATURE_TXINV(huart->AdvancedInit.TxPinLevelInvert));
    MODIFY_REG(huart->Instance->CR2, USART_CR2_TXINV, huart->AdvancedInit.TxPinLevelInvert);
 8002a94:	687b      	ldr	r3, [r7, #4]
 8002a96:	681b      	ldr	r3, [r3, #0]
 8002a98:	685b      	ldr	r3, [r3, #4]
 8002a9a:	f423 3100 	bic.w	r1, r3, #131072	; 0x20000
 8002a9e:	687b      	ldr	r3, [r7, #4]
 8002aa0:	6a9a      	ldr	r2, [r3, #40]	; 0x28
 8002aa2:	687b      	ldr	r3, [r7, #4]
 8002aa4:	681b      	ldr	r3, [r3, #0]
 8002aa6:	430a      	orrs	r2, r1
 8002aa8:	605a      	str	r2, [r3, #4]
  }

  /* if required, configure RX pin active level inversion */
  if (HAL_IS_BIT_SET(huart->AdvancedInit.AdvFeatureInit, UART_ADVFEATURE_RXINVERT_INIT))
 8002aaa:	687b      	ldr	r3, [r7, #4]
 8002aac:	6a5b      	ldr	r3, [r3, #36]	; 0x24
 8002aae:	f003 0302 	and.w	r3, r3, #2
 8002ab2:	2b00      	cmp	r3, #0
 8002ab4:	d00a      	beq.n	8002acc <UART_AdvFeatureConfig+0x4c>
  {
    assert_param(IS_UART_ADVFEATURE_RXINV(huart->AdvancedInit.RxPinLevelInvert));
    MODIFY_REG(huart->Instance->CR2, USART_CR2_RXINV, huart->AdvancedInit.RxPinLevelInvert);
 8002ab6:	687b      	ldr	r3, [r7, #4]
 8002ab8:	681b      	ldr	r3, [r3, #0]
 8002aba:	685b      	ldr	r3, [r3, #4]
 8002abc:	f423 3180 	bic.w	r1, r3, #65536	; 0x10000
 8002ac0:	687b      	ldr	r3, [r7, #4]
 8002ac2:	6ada      	ldr	r2, [r3, #44]	; 0x2c
 8002ac4:	687b      	ldr	r3, [r7, #4]
 8002ac6:	681b      	ldr	r3, [r3, #0]
 8002ac8:	430a      	orrs	r2, r1
 8002aca:	605a      	str	r2, [r3, #4]
  }

  /* if required, configure data inversion */
  if (HAL_IS_BIT_SET(huart->AdvancedInit.AdvFeatureInit, UART_ADVFEATURE_DATAINVERT_INIT))
 8002acc:	687b      	ldr	r3, [r7, #4]
 8002ace:	6a5b      	ldr	r3, [r3, #36]	; 0x24
 8002ad0:	f003 0304 	and.w	r3, r3, #4
 8002ad4:	2b00      	cmp	r3, #0
 8002ad6:	d00a      	beq.n	8002aee <UART_AdvFeatureConfig+0x6e>
  {
    assert_param(IS_UART_ADVFEATURE_DATAINV(huart->AdvancedInit.DataInvert));
    MODIFY_REG(huart->Instance->CR2, USART_CR2_DATAINV, huart->AdvancedInit.DataInvert);
 8002ad8:	687b      	ldr	r3, [r7, #4]
 8002ada:	681b      	ldr	r3, [r3, #0]
 8002adc:	685b      	ldr	r3, [r3, #4]
 8002ade:	f423 2180 	bic.w	r1, r3, #262144	; 0x40000
 8002ae2:	687b      	ldr	r3, [r7, #4]
 8002ae4:	6b1a      	ldr	r2, [r3, #48]	; 0x30
 8002ae6:	687b      	ldr	r3, [r7, #4]
 8002ae8:	681b      	ldr	r3, [r3, #0]
 8002aea:	430a      	orrs	r2, r1
 8002aec:	605a      	str	r2, [r3, #4]
  }

  /* if required, configure RX/TX pins swap */
  if (HAL_IS_BIT_SET(huart->AdvancedInit.AdvFeatureInit, UART_ADVFEATURE_SWAP_INIT))
 8002aee:	687b      	ldr	r3, [r7, #4]
 8002af0:	6a5b      	ldr	r3, [r3, #36]	; 0x24
 8002af2:	f003 0308 	and.w	r3, r3, #8
 8002af6:	2b00      	cmp	r3, #0
 8002af8:	d00a      	beq.n	8002b10 <UART_AdvFeatureConfig+0x90>
  {
    assert_param(IS_UART_ADVFEATURE_SWAP(huart->AdvancedInit.Swap));
    MODIFY_REG(huart->Instance->CR2, USART_CR2_SWAP, huart->AdvancedInit.Swap);
 8002afa:	687b      	ldr	r3, [r7, #4]
 8002afc:	681b      	ldr	r3, [r3, #0]
 8002afe:	685b      	ldr	r3, [r3, #4]
 8002b00:	f423 4100 	bic.w	r1, r3, #32768	; 0x8000
 8002b04:	687b      	ldr	r3, [r7, #4]
 8002b06:	6b5a      	ldr	r2, [r3, #52]	; 0x34
 8002b08:	687b      	ldr	r3, [r7, #4]
 8002b0a:	681b      	ldr	r3, [r3, #0]
 8002b0c:	430a      	orrs	r2, r1
 8002b0e:	605a      	str	r2, [r3, #4]
  }

  /* if required, configure RX overrun detection disabling */
  if (HAL_IS_BIT_SET(huart->AdvancedInit.AdvFeatureInit, UART_ADVFEATURE_RXOVERRUNDISABLE_INIT))
 8002b10:	687b      	ldr	r3, [r7, #4]
 8002b12:	6a5b      	ldr	r3, [r3, #36]	; 0x24
 8002b14:	f003 0310 	and.w	r3, r3, #16
 8002b18:	2b00      	cmp	r3, #0
 8002b1a:	d00a      	beq.n	8002b32 <UART_AdvFeatureConfig+0xb2>
  {
    assert_param(IS_UART_OVERRUN(huart->AdvancedInit.OverrunDisable));
    MODIFY_REG(huart->Instance->CR3, USART_CR3_OVRDIS, huart->AdvancedInit.OverrunDisable);
 8002b1c:	687b      	ldr	r3, [r7, #4]
 8002b1e:	681b      	ldr	r3, [r3, #0]
 8002b20:	689b      	ldr	r3, [r3, #8]
 8002b22:	f423 5180 	bic.w	r1, r3, #4096	; 0x1000
 8002b26:	687b      	ldr	r3, [r7, #4]
 8002b28:	6b9a      	ldr	r2, [r3, #56]	; 0x38
 8002b2a:	687b      	ldr	r3, [r7, #4]
 8002b2c:	681b      	ldr	r3, [r3, #0]
 8002b2e:	430a      	orrs	r2, r1
 8002b30:	609a      	str	r2, [r3, #8]
  }

  /* if required, configure DMA disabling on reception error */
  if (HAL_IS_BIT_SET(huart->AdvancedInit.AdvFeatureInit, UART_ADVFEATURE_DMADISABLEONERROR_INIT))
 8002b32:	687b      	ldr	r3, [r7, #4]
 8002b34:	6a5b      	ldr	r3, [r3, #36]	; 0x24
 8002b36:	f003 0320 	and.w	r3, r3, #32
 8002b3a:	2b00      	cmp	r3, #0
 8002b3c:	d00a      	beq.n	8002b54 <UART_AdvFeatureConfig+0xd4>
  {
    assert_param(IS_UART_ADVFEATURE_DMAONRXERROR(huart->AdvancedInit.DMADisableonRxError));
    MODIFY_REG(huart->Instance->CR3, USART_CR3_DDRE, huart->AdvancedInit.DMADisableonRxError);
 8002b3e:	687b      	ldr	r3, [r7, #4]
 8002b40:	681b      	ldr	r3, [r3, #0]
 8002b42:	689b      	ldr	r3, [r3, #8]
 8002b44:	f423 5100 	bic.w	r1, r3, #8192	; 0x2000
 8002b48:	687b      	ldr	r3, [r7, #4]
 8002b4a:	6bda      	ldr	r2, [r3, #60]	; 0x3c
 8002b4c:	687b      	ldr	r3, [r7, #4]
 8002b4e:	681b      	ldr	r3, [r3, #0]
 8002b50:	430a      	orrs	r2, r1
 8002b52:	609a      	str	r2, [r3, #8]
  }

  /* if required, configure auto Baud rate detection scheme */
  if (HAL_IS_BIT_SET(huart->AdvancedInit.AdvFeatureInit, UART_ADVFEATURE_AUTOBAUDRATE_INIT))
 8002b54:	687b      	ldr	r3, [r7, #4]
 8002b56:	6a5b      	ldr	r3, [r3, #36]	; 0x24
 8002b58:	f003 0340 	and.w	r3, r3, #64	; 0x40
 8002b5c:	2b00      	cmp	r3, #0
 8002b5e:	d01a      	beq.n	8002b96 <UART_AdvFeatureConfig+0x116>
  {
    assert_param(IS_USART_AUTOBAUDRATE_DETECTION_INSTANCE(huart->Instance));
    assert_param(IS_UART_ADVFEATURE_AUTOBAUDRATE(huart->AdvancedInit.AutoBaudRateEnable));
    MODIFY_REG(huart->Instance->CR2, USART_CR2_ABREN, huart->AdvancedInit.AutoBaudRateEnable);
 8002b60:	687b      	ldr	r3, [r7, #4]
 8002b62:	681b      	ldr	r3, [r3, #0]
 8002b64:	685b      	ldr	r3, [r3, #4]
 8002b66:	f423 1180 	bic.w	r1, r3, #1048576	; 0x100000
 8002b6a:	687b      	ldr	r3, [r7, #4]
 8002b6c:	6c1a      	ldr	r2, [r3, #64]	; 0x40
 8002b6e:	687b      	ldr	r3, [r7, #4]
 8002b70:	681b      	ldr	r3, [r3, #0]
 8002b72:	430a      	orrs	r2, r1
 8002b74:	605a      	str	r2, [r3, #4]
    /* set auto Baudrate detection parameters if detection is enabled */
    if (huart->AdvancedInit.AutoBaudRateEnable == UART_ADVFEATURE_AUTOBAUDRATE_ENABLE)
 8002b76:	687b      	ldr	r3, [r7, #4]
 8002b78:	6c1b      	ldr	r3, [r3, #64]	; 0x40
 8002b7a:	f5b3 1f80 	cmp.w	r3, #1048576	; 0x100000
 8002b7e:	d10a      	bne.n	8002b96 <UART_AdvFeatureConfig+0x116>
    {
      assert_param(IS_UART_ADVFEATURE_AUTOBAUDRATEMODE(huart->AdvancedInit.AutoBaudRateMode));
      MODIFY_REG(huart->Instance->CR2, USART_CR2_ABRMODE, huart->AdvancedInit.AutoBaudRateMode);
 8002b80:	687b      	ldr	r3, [r7, #4]
 8002b82:	681b      	ldr	r3, [r3, #0]
 8002b84:	685b      	ldr	r3, [r3, #4]
 8002b86:	f423 01c0 	bic.w	r1, r3, #6291456	; 0x600000
 8002b8a:	687b      	ldr	r3, [r7, #4]
 8002b8c:	6c5a      	ldr	r2, [r3, #68]	; 0x44
 8002b8e:	687b      	ldr	r3, [r7, #4]
 8002b90:	681b      	ldr	r3, [r3, #0]
 8002b92:	430a      	orrs	r2, r1
 8002b94:	605a      	str	r2, [r3, #4]
    }
  }

  /* if required, configure MSB first on communication line */
  if (HAL_IS_BIT_SET(huart->AdvancedInit.AdvFeatureInit, UART_ADVFEATURE_MSBFIRST_INIT))
 8002b96:	687b      	ldr	r3, [r7, #4]
 8002b98:	6a5b      	ldr	r3, [r3, #36]	; 0x24
 8002b9a:	f003 0380 	and.w	r3, r3, #128	; 0x80
 8002b9e:	2b00      	cmp	r3, #0
 8002ba0:	d00a      	beq.n	8002bb8 <UART_AdvFeatureConfig+0x138>
  {
    assert_param(IS_UART_ADVFEATURE_MSBFIRST(huart->AdvancedInit.MSBFirst));
    MODIFY_REG(huart->Instance->CR2, USART_CR2_MSBFIRST, huart->AdvancedInit.MSBFirst);
 8002ba2:	687b      	ldr	r3, [r7, #4]
 8002ba4:	681b      	ldr	r3, [r3, #0]
 8002ba6:	685b      	ldr	r3, [r3, #4]
 8002ba8:	f423 2100 	bic.w	r1, r3, #524288	; 0x80000
 8002bac:	687b      	ldr	r3, [r7, #4]
 8002bae:	6c9a      	ldr	r2, [r3, #72]	; 0x48
 8002bb0:	687b      	ldr	r3, [r7, #4]
 8002bb2:	681b      	ldr	r3, [r3, #0]
 8002bb4:	430a      	orrs	r2, r1
 8002bb6:	605a      	str	r2, [r3, #4]
  }
}
 8002bb8:	bf00      	nop
 8002bba:	370c      	adds	r7, #12
 8002bbc:	46bd      	mov	sp, r7
 8002bbe:	f85d 7b04 	ldr.w	r7, [sp], #4
 8002bc2:	4770      	bx	lr

08002bc4 <UART_CheckIdleState>:
  * @brief Check the UART Idle State.
  * @param huart UART handle.
  * @retval HAL status
  */
HAL_StatusTypeDef UART_CheckIdleState(UART_HandleTypeDef *huart)
{
 8002bc4:	b580      	push	{r7, lr}
 8002bc6:	b086      	sub	sp, #24
 8002bc8:	af02      	add	r7, sp, #8
 8002bca:	6078      	str	r0, [r7, #4]
  uint32_t tickstart;

  /* Initialize the UART ErrorCode */
  huart->ErrorCode = HAL_UART_ERROR_NONE;
 8002bcc:	687b      	ldr	r3, [r7, #4]
 8002bce:	2200      	movs	r2, #0
 8002bd0:	67da      	str	r2, [r3, #124]	; 0x7c

  /* Init tickstart for timeout managment*/
  tickstart = HAL_GetTick();
 8002bd2:	f7fd fecd 	bl	8000970 <HAL_GetTick>
 8002bd6:	60f8      	str	r0, [r7, #12]

  /* Check if the Transmitter is enabled */
  if ((huart->Instance->CR1 & USART_CR1_TE) == USART_CR1_TE)
 8002bd8:	687b      	ldr	r3, [r7, #4]
 8002bda:	681b      	ldr	r3, [r3, #0]
 8002bdc:	681b      	ldr	r3, [r3, #0]
 8002bde:	f003 0308 	and.w	r3, r3, #8
 8002be2:	2b08      	cmp	r3, #8
 8002be4:	d10e      	bne.n	8002c04 <UART_CheckIdleState+0x40>
  {
    /* Wait until TEACK flag is set */
    if (UART_WaitOnFlagUntilTimeout(huart, USART_ISR_TEACK, RESET, tickstart, HAL_UART_TIMEOUT_VALUE) != HAL_OK)
 8002be6:	f06f 437e 	mvn.w	r3, #4261412864	; 0xfe000000
 8002bea:	9300      	str	r3, [sp, #0]
 8002bec:	68fb      	ldr	r3, [r7, #12]
 8002bee:	2200      	movs	r2, #0
 8002bf0:	f44f 1100 	mov.w	r1, #2097152	; 0x200000
 8002bf4:	6878      	ldr	r0, [r7, #4]
 8002bf6:	f000 f82a 	bl	8002c4e <UART_WaitOnFlagUntilTimeout>
 8002bfa:	4603      	mov	r3, r0
 8002bfc:	2b00      	cmp	r3, #0
 8002bfe:	d001      	beq.n	8002c04 <UART_CheckIdleState+0x40>
    {
      /* Timeout occurred */
      return HAL_TIMEOUT;
 8002c00:	2303      	movs	r3, #3
 8002c02:	e020      	b.n	8002c46 <UART_CheckIdleState+0x82>
    }
  }

  /* Check if the Receiver is enabled */
  if ((huart->Instance->CR1 & USART_CR1_RE) == USART_CR1_RE)
 8002c04:	687b      	ldr	r3, [r7, #4]
 8002c06:	681b      	ldr	r3, [r3, #0]
 8002c08:	681b      	ldr	r3, [r3, #0]
 8002c0a:	f003 0304 	and.w	r3, r3, #4
 8002c0e:	2b04      	cmp	r3, #4
 8002c10:	d10e      	bne.n	8002c30 <UART_CheckIdleState+0x6c>
  {
    /* Wait until REACK flag is set */
    if (UART_WaitOnFlagUntilTimeout(huart, USART_ISR_REACK, RESET, tickstart, HAL_UART_TIMEOUT_VALUE) != HAL_OK)
 8002c12:	f06f 437e 	mvn.w	r3, #4261412864	; 0xfe000000
 8002c16:	9300      	str	r3, [sp, #0]
 8002c18:	68fb      	ldr	r3, [r7, #12]
 8002c1a:	2200      	movs	r2, #0
 8002c1c:	f44f 0180 	mov.w	r1, #4194304	; 0x400000
 8002c20:	6878      	ldr	r0, [r7, #4]
 8002c22:	f000 f814 	bl	8002c4e <UART_WaitOnFlagUntilTimeout>
 8002c26:	4603      	mov	r3, r0
 8002c28:	2b00      	cmp	r3, #0
 8002c2a:	d001      	beq.n	8002c30 <UART_CheckIdleState+0x6c>
    {
      /* Timeout occurred */
      return HAL_TIMEOUT;
 8002c2c:	2303      	movs	r3, #3
 8002c2e:	e00a      	b.n	8002c46 <UART_CheckIdleState+0x82>
    }
  }

  /* Initialize the UART State */
  huart->gState = HAL_UART_STATE_READY;
 8002c30:	687b      	ldr	r3, [r7, #4]
 8002c32:	2220      	movs	r2, #32
 8002c34:	675a      	str	r2, [r3, #116]	; 0x74
  huart->RxState = HAL_UART_STATE_READY;
 8002c36:	687b      	ldr	r3, [r7, #4]
 8002c38:	2220      	movs	r2, #32
 8002c3a:	679a      	str	r2, [r3, #120]	; 0x78

  __HAL_UNLOCK(huart);
 8002c3c:	687b      	ldr	r3, [r7, #4]
 8002c3e:	2200      	movs	r2, #0
 8002c40:	f883 2070 	strb.w	r2, [r3, #112]	; 0x70

  return HAL_OK;
 8002c44:	2300      	movs	r3, #0
}
 8002c46:	4618      	mov	r0, r3
 8002c48:	3710      	adds	r7, #16
 8002c4a:	46bd      	mov	sp, r7
 8002c4c:	bd80      	pop	{r7, pc}

08002c4e <UART_WaitOnFlagUntilTimeout>:
  * @param Timeout   Timeout duration
  * @retval HAL status
  */
HAL_StatusTypeDef UART_WaitOnFlagUntilTimeout(UART_HandleTypeDef *huart, uint32_t Flag, FlagStatus Status,
                                              uint32_t Tickstart, uint32_t Timeout)
{
 8002c4e:	b580      	push	{r7, lr}
 8002c50:	b084      	sub	sp, #16
 8002c52:	af00      	add	r7, sp, #0
 8002c54:	60f8      	str	r0, [r7, #12]
 8002c56:	60b9      	str	r1, [r7, #8]
 8002c58:	603b      	str	r3, [r7, #0]
 8002c5a:	4613      	mov	r3, r2
 8002c5c:	71fb      	strb	r3, [r7, #7]
  /* Wait until flag is set */
  while ((__HAL_UART_GET_FLAG(huart, Flag) ? SET : RESET) == Status)
 8002c5e:	e05d      	b.n	8002d1c <UART_WaitOnFlagUntilTimeout+0xce>
  {
    /* Check for the Timeout */
    if (Timeout != HAL_MAX_DELAY)
 8002c60:	69bb      	ldr	r3, [r7, #24]
 8002c62:	f1b3 3fff 	cmp.w	r3, #4294967295	; 0xffffffff
 8002c66:	d059      	beq.n	8002d1c <UART_WaitOnFlagUntilTimeout+0xce>
    {
      if (((HAL_GetTick() - Tickstart) > Timeout) || (Timeout == 0U))
 8002c68:	f7fd fe82 	bl	8000970 <HAL_GetTick>
 8002c6c:	4602      	mov	r2, r0
 8002c6e:	683b      	ldr	r3, [r7, #0]
 8002c70:	1ad3      	subs	r3, r2, r3
 8002c72:	69ba      	ldr	r2, [r7, #24]
 8002c74:	429a      	cmp	r2, r3
 8002c76:	d302      	bcc.n	8002c7e <UART_WaitOnFlagUntilTimeout+0x30>
 8002c78:	69bb      	ldr	r3, [r7, #24]
 8002c7a:	2b00      	cmp	r3, #0
 8002c7c:	d11b      	bne.n	8002cb6 <UART_WaitOnFlagUntilTimeout+0x68>
      {
        /* Disable TXE, RXNE, PE and ERR (Frame error, noise error, overrun error) interrupts for the interrupt process */
#if defined(USART_CR1_FIFOEN)
        CLEAR_BIT(huart->Instance->CR1, (USART_CR1_RXNEIE_RXFNEIE | USART_CR1_PEIE | USART_CR1_TXEIE_TXFNFIE));
#else
        CLEAR_BIT(huart->Instance->CR1, (USART_CR1_RXNEIE | USART_CR1_PEIE | USART_CR1_TXEIE));
 8002c7e:	68fb      	ldr	r3, [r7, #12]
 8002c80:	681b      	ldr	r3, [r3, #0]
 8002c82:	681a      	ldr	r2, [r3, #0]
 8002c84:	68fb      	ldr	r3, [r7, #12]
 8002c86:	681b      	ldr	r3, [r3, #0]
 8002c88:	f422 72d0 	bic.w	r2, r2, #416	; 0x1a0
 8002c8c:	601a      	str	r2, [r3, #0]
#endif /* USART_CR1_FIFOEN */
        CLEAR_BIT(huart->Instance->CR3, USART_CR3_EIE);
 8002c8e:	68fb      	ldr	r3, [r7, #12]
 8002c90:	681b      	ldr	r3, [r3, #0]
 8002c92:	689a      	ldr	r2, [r3, #8]
 8002c94:	68fb      	ldr	r3, [r7, #12]
 8002c96:	681b      	ldr	r3, [r3, #0]
 8002c98:	f022 0201 	bic.w	r2, r2, #1
 8002c9c:	609a      	str	r2, [r3, #8]

        huart->gState = HAL_UART_STATE_READY;
 8002c9e:	68fb      	ldr	r3, [r7, #12]
 8002ca0:	2220      	movs	r2, #32
 8002ca2:	675a      	str	r2, [r3, #116]	; 0x74
        huart->RxState = HAL_UART_STATE_READY;
 8002ca4:	68fb      	ldr	r3, [r7, #12]
 8002ca6:	2220      	movs	r2, #32
 8002ca8:	679a      	str	r2, [r3, #120]	; 0x78

        __HAL_UNLOCK(huart);
 8002caa:	68fb      	ldr	r3, [r7, #12]
 8002cac:	2200      	movs	r2, #0
 8002cae:	f883 2070 	strb.w	r2, [r3, #112]	; 0x70

        return HAL_TIMEOUT;
 8002cb2:	2303      	movs	r3, #3
 8002cb4:	e042      	b.n	8002d3c <UART_WaitOnFlagUntilTimeout+0xee>
      }

      if (READ_BIT(huart->Instance->CR1, USART_CR1_RE) != 0U)
 8002cb6:	68fb      	ldr	r3, [r7, #12]
 8002cb8:	681b      	ldr	r3, [r3, #0]
 8002cba:	681b      	ldr	r3, [r3, #0]
 8002cbc:	f003 0304 	and.w	r3, r3, #4
 8002cc0:	2b00      	cmp	r3, #0
 8002cc2:	d02b      	beq.n	8002d1c <UART_WaitOnFlagUntilTimeout+0xce>
      {
        if (__HAL_UART_GET_FLAG(huart, UART_FLAG_RTOF) == SET)
 8002cc4:	68fb      	ldr	r3, [r7, #12]
 8002cc6:	681b      	ldr	r3, [r3, #0]
 8002cc8:	69db      	ldr	r3, [r3, #28]
 8002cca:	f403 6300 	and.w	r3, r3, #2048	; 0x800
 8002cce:	f5b3 6f00 	cmp.w	r3, #2048	; 0x800
 8002cd2:	d123      	bne.n	8002d1c <UART_WaitOnFlagUntilTimeout+0xce>
        {
          /* Clear Receiver Timeout flag*/
          __HAL_UART_CLEAR_FLAG(huart, UART_CLEAR_RTOF);
 8002cd4:	68fb      	ldr	r3, [r7, #12]
 8002cd6:	681b      	ldr	r3, [r3, #0]
 8002cd8:	f44f 6200 	mov.w	r2, #2048	; 0x800
 8002cdc:	621a      	str	r2, [r3, #32]

          /* Disable TXE, RXNE, PE and ERR (Frame error, noise error, overrun error) interrupts for the interrupt process */
#if defined(USART_CR1_FIFOEN)
          CLEAR_BIT(huart->Instance->CR1, (USART_CR1_RXNEIE_RXFNEIE | USART_CR1_PEIE | USART_CR1_TXEIE_TXFNFIE));
#else
          CLEAR_BIT(huart->Instance->CR1, (USART_CR1_RXNEIE | USART_CR1_PEIE | USART_CR1_TXEIE));
 8002cde:	68fb      	ldr	r3, [r7, #12]
 8002ce0:	681b      	ldr	r3, [r3, #0]
 8002ce2:	681a      	ldr	r2, [r3, #0]
 8002ce4:	68fb      	ldr	r3, [r7, #12]
 8002ce6:	681b      	ldr	r3, [r3, #0]
 8002ce8:	f422 72d0 	bic.w	r2, r2, #416	; 0x1a0
 8002cec:	601a      	str	r2, [r3, #0]
#endif
          CLEAR_BIT(huart->Instance->CR3, USART_CR3_EIE);
 8002cee:	68fb      	ldr	r3, [r7, #12]
 8002cf0:	681b      	ldr	r3, [r3, #0]
 8002cf2:	689a      	ldr	r2, [r3, #8]
 8002cf4:	68fb      	ldr	r3, [r7, #12]
 8002cf6:	681b      	ldr	r3, [r3, #0]
 8002cf8:	f022 0201 	bic.w	r2, r2, #1
 8002cfc:	609a      	str	r2, [r3, #8]

          huart->gState = HAL_UART_STATE_READY;
 8002cfe:	68fb      	ldr	r3, [r7, #12]
 8002d00:	2220      	movs	r2, #32
 8002d02:	675a      	str	r2, [r3, #116]	; 0x74
          huart->RxState = HAL_UART_STATE_READY;
 8002d04:	68fb      	ldr	r3, [r7, #12]
 8002d06:	2220      	movs	r2, #32
 8002d08:	679a      	str	r2, [r3, #120]	; 0x78
          huart->ErrorCode = HAL_UART_ERROR_RTO;
 8002d0a:	68fb      	ldr	r3, [r7, #12]
 8002d0c:	2220      	movs	r2, #32
 8002d0e:	67da      	str	r2, [r3, #124]	; 0x7c

          /* Process Unlocked */
          __HAL_UNLOCK(huart);
 8002d10:	68fb      	ldr	r3, [r7, #12]
 8002d12:	2200      	movs	r2, #0
 8002d14:	f883 2070 	strb.w	r2, [r3, #112]	; 0x70

          return HAL_TIMEOUT;
 8002d18:	2303      	movs	r3, #3
 8002d1a:	e00f      	b.n	8002d3c <UART_WaitOnFlagUntilTimeout+0xee>
  while ((__HAL_UART_GET_FLAG(huart, Flag) ? SET : RESET) == Status)
 8002d1c:	68fb      	ldr	r3, [r7, #12]
 8002d1e:	681b      	ldr	r3, [r3, #0]
 8002d20:	69da      	ldr	r2, [r3, #28]
 8002d22:	68bb      	ldr	r3, [r7, #8]
 8002d24:	4013      	ands	r3, r2
 8002d26:	68ba      	ldr	r2, [r7, #8]
 8002d28:	429a      	cmp	r2, r3
 8002d2a:	bf0c      	ite	eq
 8002d2c:	2301      	moveq	r3, #1
 8002d2e:	2300      	movne	r3, #0
 8002d30:	b2db      	uxtb	r3, r3
 8002d32:	461a      	mov	r2, r3
 8002d34:	79fb      	ldrb	r3, [r7, #7]
 8002d36:	429a      	cmp	r2, r3
 8002d38:	d092      	beq.n	8002c60 <UART_WaitOnFlagUntilTimeout+0x12>
        }
      }
    }
  }
  return HAL_OK;
 8002d3a:	2300      	movs	r3, #0
}
 8002d3c:	4618      	mov	r0, r3
 8002d3e:	3710      	adds	r7, #16
 8002d40:	46bd      	mov	sp, r7
 8002d42:	bd80      	pop	{r7, pc}

08002d44 <__libc_init_array>:
 8002d44:	b570      	push	{r4, r5, r6, lr}
 8002d46:	4e0d      	ldr	r6, [pc, #52]	; (8002d7c <__libc_init_array+0x38>)
 8002d48:	4c0d      	ldr	r4, [pc, #52]	; (8002d80 <__libc_init_array+0x3c>)
 8002d4a:	1ba4      	subs	r4, r4, r6
 8002d4c:	10a4      	asrs	r4, r4, #2
 8002d4e:	2500      	movs	r5, #0
 8002d50:	42a5      	cmp	r5, r4
 8002d52:	d109      	bne.n	8002d68 <__libc_init_array+0x24>
 8002d54:	4e0b      	ldr	r6, [pc, #44]	; (8002d84 <__libc_init_array+0x40>)
 8002d56:	4c0c      	ldr	r4, [pc, #48]	; (8002d88 <__libc_init_array+0x44>)
 8002d58:	f000 f820 	bl	8002d9c <_init>
 8002d5c:	1ba4      	subs	r4, r4, r6
 8002d5e:	10a4      	asrs	r4, r4, #2
 8002d60:	2500      	movs	r5, #0
 8002d62:	42a5      	cmp	r5, r4
 8002d64:	d105      	bne.n	8002d72 <__libc_init_array+0x2e>
 8002d66:	bd70      	pop	{r4, r5, r6, pc}
 8002d68:	f856 3025 	ldr.w	r3, [r6, r5, lsl #2]
 8002d6c:	4798      	blx	r3
 8002d6e:	3501      	adds	r5, #1
 8002d70:	e7ee      	b.n	8002d50 <__libc_init_array+0xc>
 8002d72:	f856 3025 	ldr.w	r3, [r6, r5, lsl #2]
 8002d76:	4798      	blx	r3
 8002d78:	3501      	adds	r5, #1
 8002d7a:	e7f2      	b.n	8002d62 <__libc_init_array+0x1e>
 8002d7c:	08002e04 	.word	0x08002e04
 8002d80:	08002e04 	.word	0x08002e04
 8002d84:	08002e04 	.word	0x08002e04
 8002d88:	08002e08 	.word	0x08002e08

08002d8c <memset>:
 8002d8c:	4402      	add	r2, r0
 8002d8e:	4603      	mov	r3, r0
 8002d90:	4293      	cmp	r3, r2
 8002d92:	d100      	bne.n	8002d96 <memset+0xa>
 8002d94:	4770      	bx	lr
 8002d96:	f803 1b01 	strb.w	r1, [r3], #1
 8002d9a:	e7f9      	b.n	8002d90 <memset+0x4>

08002d9c <_init>:
 8002d9c:	b5f8      	push	{r3, r4, r5, r6, r7, lr}
 8002d9e:	bf00      	nop
 8002da0:	bcf8      	pop	{r3, r4, r5, r6, r7}
 8002da2:	bc08      	pop	{r3}
 8002da4:	469e      	mov	lr, r3
 8002da6:	4770      	bx	lr

08002da8 <_fini>:
 8002da8:	b5f8      	push	{r3, r4, r5, r6, r7, lr}
 8002daa:	bf00      	nop
 8002dac:	bcf8      	pop	{r3, r4, r5, r6, r7}
 8002dae:	bc08      	pop	{r3}
 8002db0:	469e      	mov	lr, r3
 8002db2:	4770      	bx	lr
