
F051_BLE_Test.elf:     file format elf32-littlearm

Sections:
Idx Name          Size      VMA       LMA       File off  Algn
  0 .isr_vector   000000c0  08000000  08000000  00010000  2**0
                  CONTENTS, ALLOC, LOAD, READONLY, DATA
  1 .text         00001b90  080000c0  080000c0  000100c0  2**2
                  CONTENTS, ALLOC, LOAD, READONLY, CODE
  2 .rodata       00000038  08001c50  08001c50  00011c50  2**2
                  CONTENTS, ALLOC, LOAD, READONLY, DATA
  3 .ARM.extab    00000000  08001c88  08001c88  0002000c  2**0
                  CONTENTS
  4 .ARM          00000000  08001c88  08001c88  0002000c  2**0
                  CONTENTS
  5 .preinit_array 00000000  08001c88  08001c88  0002000c  2**0
                  CONTENTS, ALLOC, LOAD, DATA
  6 .init_array   00000004  08001c88  08001c88  00011c88  2**2
                  CONTENTS, ALLOC, LOAD, DATA
  7 .fini_array   00000004  08001c8c  08001c8c  00011c8c  2**2
                  CONTENTS, ALLOC, LOAD, DATA
  8 .data         0000000c  20000000  08001c90  00020000  2**2
                  CONTENTS, ALLOC, LOAD, DATA
  9 .bss          000000a0  2000000c  08001c9c  0002000c  2**2
                  ALLOC
 10 ._user_heap_stack 00000604  200000ac  08001c9c  000200ac  2**0
                  ALLOC
 11 .ARM.attributes 00000028  00000000  00000000  0002000c  2**0
                  CONTENTS, READONLY
 12 .debug_info   00005851  00000000  00000000  00020034  2**0
                  CONTENTS, READONLY, DEBUGGING
 13 .debug_abbrev 000011be  00000000  00000000  00025885  2**0
                  CONTENTS, READONLY, DEBUGGING
 14 .debug_aranges 000005a8  00000000  00000000  00026a48  2**3
                  CONTENTS, READONLY, DEBUGGING
 15 .debug_ranges 00000500  00000000  00000000  00026ff0  2**3
                  CONTENTS, READONLY, DEBUGGING
 16 .debug_macro  000012b5  00000000  00000000  000274f0  2**0
                  CONTENTS, READONLY, DEBUGGING
 17 .debug_line   000059c2  00000000  00000000  000287a5  2**0
                  CONTENTS, READONLY, DEBUGGING
 18 .debug_str    0004e941  00000000  00000000  0002e167  2**0
                  CONTENTS, READONLY, DEBUGGING
 19 .comment      0000007b  00000000  00000000  0007caa8  2**0
                  CONTENTS, READONLY
 20 .debug_frame  000012b4  00000000  00000000  0007cb24  2**2
                  CONTENTS, READONLY, DEBUGGING

Disassembly of section .text:

080000c0 <__do_global_dtors_aux>:
 80000c0:	b510      	push	{r4, lr}
 80000c2:	4c06      	ldr	r4, [pc, #24]	; (80000dc <__do_global_dtors_aux+0x1c>)
 80000c4:	7823      	ldrb	r3, [r4, #0]
 80000c6:	2b00      	cmp	r3, #0
 80000c8:	d107      	bne.n	80000da <__do_global_dtors_aux+0x1a>
 80000ca:	4b05      	ldr	r3, [pc, #20]	; (80000e0 <__do_global_dtors_aux+0x20>)
 80000cc:	2b00      	cmp	r3, #0
 80000ce:	d002      	beq.n	80000d6 <__do_global_dtors_aux+0x16>
 80000d0:	4804      	ldr	r0, [pc, #16]	; (80000e4 <__do_global_dtors_aux+0x24>)
 80000d2:	e000      	b.n	80000d6 <__do_global_dtors_aux+0x16>
 80000d4:	bf00      	nop
 80000d6:	2301      	movs	r3, #1
 80000d8:	7023      	strb	r3, [r4, #0]
 80000da:	bd10      	pop	{r4, pc}
 80000dc:	2000000c 	.word	0x2000000c
 80000e0:	00000000 	.word	0x00000000
 80000e4:	08001c38 	.word	0x08001c38

080000e8 <frame_dummy>:
 80000e8:	4b04      	ldr	r3, [pc, #16]	; (80000fc <frame_dummy+0x14>)
 80000ea:	b510      	push	{r4, lr}
 80000ec:	2b00      	cmp	r3, #0
 80000ee:	d003      	beq.n	80000f8 <frame_dummy+0x10>
 80000f0:	4903      	ldr	r1, [pc, #12]	; (8000100 <frame_dummy+0x18>)
 80000f2:	4804      	ldr	r0, [pc, #16]	; (8000104 <frame_dummy+0x1c>)
 80000f4:	e000      	b.n	80000f8 <frame_dummy+0x10>
 80000f6:	bf00      	nop
 80000f8:	bd10      	pop	{r4, pc}
 80000fa:	46c0      	nop			; (mov r8, r8)
 80000fc:	00000000 	.word	0x00000000
 8000100:	20000010 	.word	0x20000010
 8000104:	08001c38 	.word	0x08001c38

08000108 <__udivsi3>:
 8000108:	2200      	movs	r2, #0
 800010a:	0843      	lsrs	r3, r0, #1
 800010c:	428b      	cmp	r3, r1
 800010e:	d374      	bcc.n	80001fa <__udivsi3+0xf2>
 8000110:	0903      	lsrs	r3, r0, #4
 8000112:	428b      	cmp	r3, r1
 8000114:	d35f      	bcc.n	80001d6 <__udivsi3+0xce>
 8000116:	0a03      	lsrs	r3, r0, #8
 8000118:	428b      	cmp	r3, r1
 800011a:	d344      	bcc.n	80001a6 <__udivsi3+0x9e>
 800011c:	0b03      	lsrs	r3, r0, #12
 800011e:	428b      	cmp	r3, r1
 8000120:	d328      	bcc.n	8000174 <__udivsi3+0x6c>
 8000122:	0c03      	lsrs	r3, r0, #16
 8000124:	428b      	cmp	r3, r1
 8000126:	d30d      	bcc.n	8000144 <__udivsi3+0x3c>
 8000128:	22ff      	movs	r2, #255	; 0xff
 800012a:	0209      	lsls	r1, r1, #8
 800012c:	ba12      	rev	r2, r2
 800012e:	0c03      	lsrs	r3, r0, #16
 8000130:	428b      	cmp	r3, r1
 8000132:	d302      	bcc.n	800013a <__udivsi3+0x32>
 8000134:	1212      	asrs	r2, r2, #8
 8000136:	0209      	lsls	r1, r1, #8
 8000138:	d065      	beq.n	8000206 <__udivsi3+0xfe>
 800013a:	0b03      	lsrs	r3, r0, #12
 800013c:	428b      	cmp	r3, r1
 800013e:	d319      	bcc.n	8000174 <__udivsi3+0x6c>
 8000140:	e000      	b.n	8000144 <__udivsi3+0x3c>
 8000142:	0a09      	lsrs	r1, r1, #8
 8000144:	0bc3      	lsrs	r3, r0, #15
 8000146:	428b      	cmp	r3, r1
 8000148:	d301      	bcc.n	800014e <__udivsi3+0x46>
 800014a:	03cb      	lsls	r3, r1, #15
 800014c:	1ac0      	subs	r0, r0, r3
 800014e:	4152      	adcs	r2, r2
 8000150:	0b83      	lsrs	r3, r0, #14
 8000152:	428b      	cmp	r3, r1
 8000154:	d301      	bcc.n	800015a <__udivsi3+0x52>
 8000156:	038b      	lsls	r3, r1, #14
 8000158:	1ac0      	subs	r0, r0, r3
 800015a:	4152      	adcs	r2, r2
 800015c:	0b43      	lsrs	r3, r0, #13
 800015e:	428b      	cmp	r3, r1
 8000160:	d301      	bcc.n	8000166 <__udivsi3+0x5e>
 8000162:	034b      	lsls	r3, r1, #13
 8000164:	1ac0      	subs	r0, r0, r3
 8000166:	4152      	adcs	r2, r2
 8000168:	0b03      	lsrs	r3, r0, #12
 800016a:	428b      	cmp	r3, r1
 800016c:	d301      	bcc.n	8000172 <__udivsi3+0x6a>
 800016e:	030b      	lsls	r3, r1, #12
 8000170:	1ac0      	subs	r0, r0, r3
 8000172:	4152      	adcs	r2, r2
 8000174:	0ac3      	lsrs	r3, r0, #11
 8000176:	428b      	cmp	r3, r1
 8000178:	d301      	bcc.n	800017e <__udivsi3+0x76>
 800017a:	02cb      	lsls	r3, r1, #11
 800017c:	1ac0      	subs	r0, r0, r3
 800017e:	4152      	adcs	r2, r2
 8000180:	0a83      	lsrs	r3, r0, #10
 8000182:	428b      	cmp	r3, r1
 8000184:	d301      	bcc.n	800018a <__udivsi3+0x82>
 8000186:	028b      	lsls	r3, r1, #10
 8000188:	1ac0      	subs	r0, r0, r3
 800018a:	4152      	adcs	r2, r2
 800018c:	0a43      	lsrs	r3, r0, #9
 800018e:	428b      	cmp	r3, r1
 8000190:	d301      	bcc.n	8000196 <__udivsi3+0x8e>
 8000192:	024b      	lsls	r3, r1, #9
 8000194:	1ac0      	subs	r0, r0, r3
 8000196:	4152      	adcs	r2, r2
 8000198:	0a03      	lsrs	r3, r0, #8
 800019a:	428b      	cmp	r3, r1
 800019c:	d301      	bcc.n	80001a2 <__udivsi3+0x9a>
 800019e:	020b      	lsls	r3, r1, #8
 80001a0:	1ac0      	subs	r0, r0, r3
 80001a2:	4152      	adcs	r2, r2
 80001a4:	d2cd      	bcs.n	8000142 <__udivsi3+0x3a>
 80001a6:	09c3      	lsrs	r3, r0, #7
 80001a8:	428b      	cmp	r3, r1
 80001aa:	d301      	bcc.n	80001b0 <__udivsi3+0xa8>
 80001ac:	01cb      	lsls	r3, r1, #7
 80001ae:	1ac0      	subs	r0, r0, r3
 80001b0:	4152      	adcs	r2, r2
 80001b2:	0983      	lsrs	r3, r0, #6
 80001b4:	428b      	cmp	r3, r1
 80001b6:	d301      	bcc.n	80001bc <__udivsi3+0xb4>
 80001b8:	018b      	lsls	r3, r1, #6
 80001ba:	1ac0      	subs	r0, r0, r3
 80001bc:	4152      	adcs	r2, r2
 80001be:	0943      	lsrs	r3, r0, #5
 80001c0:	428b      	cmp	r3, r1
 80001c2:	d301      	bcc.n	80001c8 <__udivsi3+0xc0>
 80001c4:	014b      	lsls	r3, r1, #5
 80001c6:	1ac0      	subs	r0, r0, r3
 80001c8:	4152      	adcs	r2, r2
 80001ca:	0903      	lsrs	r3, r0, #4
 80001cc:	428b      	cmp	r3, r1
 80001ce:	d301      	bcc.n	80001d4 <__udivsi3+0xcc>
 80001d0:	010b      	lsls	r3, r1, #4
 80001d2:	1ac0      	subs	r0, r0, r3
 80001d4:	4152      	adcs	r2, r2
 80001d6:	08c3      	lsrs	r3, r0, #3
 80001d8:	428b      	cmp	r3, r1
 80001da:	d301      	bcc.n	80001e0 <__udivsi3+0xd8>
 80001dc:	00cb      	lsls	r3, r1, #3
 80001de:	1ac0      	subs	r0, r0, r3
 80001e0:	4152      	adcs	r2, r2
 80001e2:	0883      	lsrs	r3, r0, #2
 80001e4:	428b      	cmp	r3, r1
 80001e6:	d301      	bcc.n	80001ec <__udivsi3+0xe4>
 80001e8:	008b      	lsls	r3, r1, #2
 80001ea:	1ac0      	subs	r0, r0, r3
 80001ec:	4152      	adcs	r2, r2
 80001ee:	0843      	lsrs	r3, r0, #1
 80001f0:	428b      	cmp	r3, r1
 80001f2:	d301      	bcc.n	80001f8 <__udivsi3+0xf0>
 80001f4:	004b      	lsls	r3, r1, #1
 80001f6:	1ac0      	subs	r0, r0, r3
 80001f8:	4152      	adcs	r2, r2
 80001fa:	1a41      	subs	r1, r0, r1
 80001fc:	d200      	bcs.n	8000200 <__udivsi3+0xf8>
 80001fe:	4601      	mov	r1, r0
 8000200:	4152      	adcs	r2, r2
 8000202:	4610      	mov	r0, r2
 8000204:	4770      	bx	lr
 8000206:	e7ff      	b.n	8000208 <__udivsi3+0x100>
 8000208:	b501      	push	{r0, lr}
 800020a:	2000      	movs	r0, #0
 800020c:	f000 f806 	bl	800021c <__aeabi_idiv0>
 8000210:	bd02      	pop	{r1, pc}
 8000212:	46c0      	nop			; (mov r8, r8)

08000214 <__aeabi_uidivmod>:
 8000214:	2900      	cmp	r1, #0
 8000216:	d0f7      	beq.n	8000208 <__udivsi3+0x100>
 8000218:	e776      	b.n	8000108 <__udivsi3>
 800021a:	4770      	bx	lr

0800021c <__aeabi_idiv0>:
 800021c:	4770      	bx	lr
 800021e:	46c0      	nop			; (mov r8, r8)

08000220 <main>:
/**
  * @brief  The application entry point.
  * @retval int
  */
int main(void)
{
 8000220:	b580      	push	{r7, lr}
 8000222:	af00      	add	r7, sp, #0
  /* USER CODE END 1 */

  /* MCU Configuration--------------------------------------------------------*/

  /* Reset of all peripherals, Initializes the Flash interface and the Systick. */
  HAL_Init();
 8000224:	f000 f998 	bl	8000558 <HAL_Init>
  /* USER CODE BEGIN Init */

  /* USER CODE END Init */

  /* Configure the system clock */
  SystemClock_Config();
 8000228:	f000 f805 	bl	8000236 <SystemClock_Config>
  /* USER CODE BEGIN SysInit */

  /* USER CODE END SysInit */

  /* Initialize all configured peripherals */
  MX_GPIO_Init();
 800022c:	f000 f88a 	bl	8000344 <MX_GPIO_Init>
  MX_USART1_UART_Init();
 8000230:	f000 f858 	bl	80002e4 <MX_USART1_UART_Init>

  /* USER CODE END 2 */

  /* Infinite loop */
  /* USER CODE BEGIN WHILE */
  while (1)
 8000234:	e7fe      	b.n	8000234 <main+0x14>

08000236 <SystemClock_Config>:
/**
  * @brief System Clock Configuration
  * @retval None
  */
void SystemClock_Config(void)
{
 8000236:	b590      	push	{r4, r7, lr}
 8000238:	b097      	sub	sp, #92	; 0x5c
 800023a:	af00      	add	r7, sp, #0
  RCC_OscInitTypeDef RCC_OscInitStruct = {0};
 800023c:	2428      	movs	r4, #40	; 0x28
 800023e:	193b      	adds	r3, r7, r4
 8000240:	0018      	movs	r0, r3
 8000242:	2330      	movs	r3, #48	; 0x30
 8000244:	001a      	movs	r2, r3
 8000246:	2100      	movs	r1, #0
 8000248:	f001 fcee 	bl	8001c28 <memset>
  RCC_ClkInitTypeDef RCC_ClkInitStruct = {0};
 800024c:	2318      	movs	r3, #24
 800024e:	18fb      	adds	r3, r7, r3
 8000250:	0018      	movs	r0, r3
 8000252:	2310      	movs	r3, #16
 8000254:	001a      	movs	r2, r3
 8000256:	2100      	movs	r1, #0
 8000258:	f001 fce6 	bl	8001c28 <memset>
  RCC_PeriphCLKInitTypeDef PeriphClkInit = {0};
 800025c:	1d3b      	adds	r3, r7, #4
 800025e:	0018      	movs	r0, r3
 8000260:	2314      	movs	r3, #20
 8000262:	001a      	movs	r2, r3
 8000264:	2100      	movs	r1, #0
 8000266:	f001 fcdf 	bl	8001c28 <memset>

  /** Initializes the RCC Oscillators according to the specified parameters
  * in the RCC_OscInitTypeDef structure.
  */
  RCC_OscInitStruct.OscillatorType = RCC_OSCILLATORTYPE_HSI;
 800026a:	0021      	movs	r1, r4
 800026c:	187b      	adds	r3, r7, r1
 800026e:	2202      	movs	r2, #2
 8000270:	601a      	str	r2, [r3, #0]
  RCC_OscInitStruct.HSIState = RCC_HSI_ON;
 8000272:	187b      	adds	r3, r7, r1
 8000274:	2201      	movs	r2, #1
 8000276:	60da      	str	r2, [r3, #12]
  RCC_OscInitStruct.HSICalibrationValue = RCC_HSICALIBRATION_DEFAULT;
 8000278:	187b      	adds	r3, r7, r1
 800027a:	2210      	movs	r2, #16
 800027c:	611a      	str	r2, [r3, #16]
  RCC_OscInitStruct.PLL.PLLState = RCC_PLL_NONE;
 800027e:	187b      	adds	r3, r7, r1
 8000280:	2200      	movs	r2, #0
 8000282:	621a      	str	r2, [r3, #32]
  if (HAL_RCC_OscConfig(&RCC_OscInitStruct) != HAL_OK)
 8000284:	187b      	adds	r3, r7, r1
 8000286:	0018      	movs	r0, r3
 8000288:	f000 fc0c 	bl	8000aa4 <HAL_RCC_OscConfig>
 800028c:	1e03      	subs	r3, r0, #0
 800028e:	d001      	beq.n	8000294 <SystemClock_Config+0x5e>
  {
    Error_Handler();
 8000290:	f000 f8a2 	bl	80003d8 <Error_Handler>
  }
  /** Initializes the CPU, AHB and APB buses clocks
  */
  RCC_ClkInitStruct.ClockType = RCC_CLOCKTYPE_HCLK|RCC_CLOCKTYPE_SYSCLK
 8000294:	2118      	movs	r1, #24
 8000296:	187b      	adds	r3, r7, r1
 8000298:	2207      	movs	r2, #7
 800029a:	601a      	str	r2, [r3, #0]
                              |RCC_CLOCKTYPE_PCLK1;
  RCC_ClkInitStruct.SYSCLKSource = RCC_SYSCLKSOURCE_HSI;
 800029c:	187b      	adds	r3, r7, r1
 800029e:	2200      	movs	r2, #0
 80002a0:	605a      	str	r2, [r3, #4]
  RCC_ClkInitStruct.AHBCLKDivider = RCC_SYSCLK_DIV1;
 80002a2:	187b      	adds	r3, r7, r1
 80002a4:	2200      	movs	r2, #0
 80002a6:	609a      	str	r2, [r3, #8]
  RCC_ClkInitStruct.APB1CLKDivider = RCC_HCLK_DIV1;
 80002a8:	187b      	adds	r3, r7, r1
 80002aa:	2200      	movs	r2, #0
 80002ac:	60da      	str	r2, [r3, #12]

  if (HAL_RCC_ClockConfig(&RCC_ClkInitStruct, FLASH_LATENCY_0) != HAL_OK)
 80002ae:	187b      	adds	r3, r7, r1
 80002b0:	2100      	movs	r1, #0
 80002b2:	0018      	movs	r0, r3
 80002b4:	f000 ff12 	bl	80010dc <HAL_RCC_ClockConfig>
 80002b8:	1e03      	subs	r3, r0, #0
 80002ba:	d001      	beq.n	80002c0 <SystemClock_Config+0x8a>
  {
    Error_Handler();
 80002bc:	f000 f88c 	bl	80003d8 <Error_Handler>
  }
  PeriphClkInit.PeriphClockSelection = RCC_PERIPHCLK_USART1;
 80002c0:	1d3b      	adds	r3, r7, #4
 80002c2:	2201      	movs	r2, #1
 80002c4:	601a      	str	r2, [r3, #0]
  PeriphClkInit.Usart1ClockSelection = RCC_USART1CLKSOURCE_PCLK1;
 80002c6:	1d3b      	adds	r3, r7, #4
 80002c8:	2200      	movs	r2, #0
 80002ca:	609a      	str	r2, [r3, #8]
  if (HAL_RCCEx_PeriphCLKConfig(&PeriphClkInit) != HAL_OK)
 80002cc:	1d3b      	adds	r3, r7, #4
 80002ce:	0018      	movs	r0, r3
 80002d0:	f001 f856 	bl	8001380 <HAL_RCCEx_PeriphCLKConfig>
 80002d4:	1e03      	subs	r3, r0, #0
 80002d6:	d001      	beq.n	80002dc <SystemClock_Config+0xa6>
  {
    Error_Handler();
 80002d8:	f000 f87e 	bl	80003d8 <Error_Handler>
  }
}
 80002dc:	46c0      	nop			; (mov r8, r8)
 80002de:	46bd      	mov	sp, r7
 80002e0:	b017      	add	sp, #92	; 0x5c
 80002e2:	bd90      	pop	{r4, r7, pc}

080002e4 <MX_USART1_UART_Init>:
  * @brief USART1 Initialization Function
  * @param None
  * @retval None
  */
static void MX_USART1_UART_Init(void)
{
 80002e4:	b580      	push	{r7, lr}
 80002e6:	af00      	add	r7, sp, #0
  /* USER CODE END USART1_Init 0 */

  /* USER CODE BEGIN USART1_Init 1 */

  /* USER CODE END USART1_Init 1 */
  huart1.Instance = USART1;
 80002e8:	4b14      	ldr	r3, [pc, #80]	; (800033c <MX_USART1_UART_Init+0x58>)
 80002ea:	4a15      	ldr	r2, [pc, #84]	; (8000340 <MX_USART1_UART_Init+0x5c>)
 80002ec:	601a      	str	r2, [r3, #0]
  huart1.Init.BaudRate = 38400;
 80002ee:	4b13      	ldr	r3, [pc, #76]	; (800033c <MX_USART1_UART_Init+0x58>)
 80002f0:	2296      	movs	r2, #150	; 0x96
 80002f2:	0212      	lsls	r2, r2, #8
 80002f4:	605a      	str	r2, [r3, #4]
  huart1.Init.WordLength = UART_WORDLENGTH_8B;
 80002f6:	4b11      	ldr	r3, [pc, #68]	; (800033c <MX_USART1_UART_Init+0x58>)
 80002f8:	2200      	movs	r2, #0
 80002fa:	609a      	str	r2, [r3, #8]
  huart1.Init.StopBits = UART_STOPBITS_1;
 80002fc:	4b0f      	ldr	r3, [pc, #60]	; (800033c <MX_USART1_UART_Init+0x58>)
 80002fe:	2200      	movs	r2, #0
 8000300:	60da      	str	r2, [r3, #12]
  huart1.Init.Parity = UART_PARITY_NONE;
 8000302:	4b0e      	ldr	r3, [pc, #56]	; (800033c <MX_USART1_UART_Init+0x58>)
 8000304:	2200      	movs	r2, #0
 8000306:	611a      	str	r2, [r3, #16]
  huart1.Init.Mode = UART_MODE_TX_RX;
 8000308:	4b0c      	ldr	r3, [pc, #48]	; (800033c <MX_USART1_UART_Init+0x58>)
 800030a:	220c      	movs	r2, #12
 800030c:	615a      	str	r2, [r3, #20]
  huart1.Init.HwFlowCtl = UART_HWCONTROL_NONE;
 800030e:	4b0b      	ldr	r3, [pc, #44]	; (800033c <MX_USART1_UART_Init+0x58>)
 8000310:	2200      	movs	r2, #0
 8000312:	619a      	str	r2, [r3, #24]
  huart1.Init.OverSampling = UART_OVERSAMPLING_16;
 8000314:	4b09      	ldr	r3, [pc, #36]	; (800033c <MX_USART1_UART_Init+0x58>)
 8000316:	2200      	movs	r2, #0
 8000318:	61da      	str	r2, [r3, #28]
  huart1.Init.OneBitSampling = UART_ONE_BIT_SAMPLE_DISABLE;
 800031a:	4b08      	ldr	r3, [pc, #32]	; (800033c <MX_USART1_UART_Init+0x58>)
 800031c:	2200      	movs	r2, #0
 800031e:	621a      	str	r2, [r3, #32]
  huart1.AdvancedInit.AdvFeatureInit = UART_ADVFEATURE_NO_INIT;
 8000320:	4b06      	ldr	r3, [pc, #24]	; (800033c <MX_USART1_UART_Init+0x58>)
 8000322:	2200      	movs	r2, #0
 8000324:	625a      	str	r2, [r3, #36]	; 0x24
  if (HAL_UART_Init(&huart1) != HAL_OK)
 8000326:	4b05      	ldr	r3, [pc, #20]	; (800033c <MX_USART1_UART_Init+0x58>)
 8000328:	0018      	movs	r0, r3
 800032a:	f001 f907 	bl	800153c <HAL_UART_Init>
 800032e:	1e03      	subs	r3, r0, #0
 8000330:	d001      	beq.n	8000336 <MX_USART1_UART_Init+0x52>
  {
    Error_Handler();
 8000332:	f000 f851 	bl	80003d8 <Error_Handler>
  }
  /* USER CODE BEGIN USART1_Init 2 */

  /* USER CODE END USART1_Init 2 */

}
 8000336:	46c0      	nop			; (mov r8, r8)
 8000338:	46bd      	mov	sp, r7
 800033a:	bd80      	pop	{r7, pc}
 800033c:	20000028 	.word	0x20000028
 8000340:	40013800 	.word	0x40013800

08000344 <MX_GPIO_Init>:
  * @brief GPIO Initialization Function
  * @param None
  * @retval None
  */
static void MX_GPIO_Init(void)
{
 8000344:	b580      	push	{r7, lr}
 8000346:	b086      	sub	sp, #24
 8000348:	af00      	add	r7, sp, #0
  GPIO_InitTypeDef GPIO_InitStruct = {0};
 800034a:	1d3b      	adds	r3, r7, #4
 800034c:	0018      	movs	r0, r3
 800034e:	2314      	movs	r3, #20
 8000350:	001a      	movs	r2, r3
 8000352:	2100      	movs	r1, #0
 8000354:	f001 fc68 	bl	8001c28 <memset>

  /* GPIO Ports Clock Enable */
  __HAL_RCC_GPIOA_CLK_ENABLE();
 8000358:	4b1d      	ldr	r3, [pc, #116]	; (80003d0 <MX_GPIO_Init+0x8c>)
 800035a:	695a      	ldr	r2, [r3, #20]
 800035c:	4b1c      	ldr	r3, [pc, #112]	; (80003d0 <MX_GPIO_Init+0x8c>)
 800035e:	2180      	movs	r1, #128	; 0x80
 8000360:	0289      	lsls	r1, r1, #10
 8000362:	430a      	orrs	r2, r1
 8000364:	615a      	str	r2, [r3, #20]
 8000366:	4b1a      	ldr	r3, [pc, #104]	; (80003d0 <MX_GPIO_Init+0x8c>)
 8000368:	695a      	ldr	r2, [r3, #20]
 800036a:	2380      	movs	r3, #128	; 0x80
 800036c:	029b      	lsls	r3, r3, #10
 800036e:	4013      	ands	r3, r2
 8000370:	603b      	str	r3, [r7, #0]
 8000372:	683b      	ldr	r3, [r7, #0]

  /*Configure GPIO pin Output Level */
  HAL_GPIO_WritePin(GPIOA, GPIO_PIN_3|GPIO_PIN_4, GPIO_PIN_RESET);
 8000374:	2390      	movs	r3, #144	; 0x90
 8000376:	05db      	lsls	r3, r3, #23
 8000378:	2200      	movs	r2, #0
 800037a:	2118      	movs	r1, #24
 800037c:	0018      	movs	r0, r3
 800037e:	f000 fb73 	bl	8000a68 <HAL_GPIO_WritePin>

  /*Configure GPIO pin : PA0 */
  GPIO_InitStruct.Pin = GPIO_PIN_0;
 8000382:	1d3b      	adds	r3, r7, #4
 8000384:	2201      	movs	r2, #1
 8000386:	601a      	str	r2, [r3, #0]
  GPIO_InitStruct.Mode = GPIO_MODE_IT_RISING;
 8000388:	1d3b      	adds	r3, r7, #4
 800038a:	4a12      	ldr	r2, [pc, #72]	; (80003d4 <MX_GPIO_Init+0x90>)
 800038c:	605a      	str	r2, [r3, #4]
  GPIO_InitStruct.Pull = GPIO_NOPULL;
 800038e:	1d3b      	adds	r3, r7, #4
 8000390:	2200      	movs	r2, #0
 8000392:	609a      	str	r2, [r3, #8]
  HAL_GPIO_Init(GPIOA, &GPIO_InitStruct);
 8000394:	1d3a      	adds	r2, r7, #4
 8000396:	2390      	movs	r3, #144	; 0x90
 8000398:	05db      	lsls	r3, r3, #23
 800039a:	0011      	movs	r1, r2
 800039c:	0018      	movs	r0, r3
 800039e:	f000 f9f3 	bl	8000788 <HAL_GPIO_Init>

  /*Configure GPIO pins : PA3 PA4 */
  GPIO_InitStruct.Pin = GPIO_PIN_3|GPIO_PIN_4;
 80003a2:	1d3b      	adds	r3, r7, #4
 80003a4:	2218      	movs	r2, #24
 80003a6:	601a      	str	r2, [r3, #0]
  GPIO_InitStruct.Mode = GPIO_MODE_OUTPUT_PP;
 80003a8:	1d3b      	adds	r3, r7, #4
 80003aa:	2201      	movs	r2, #1
 80003ac:	605a      	str	r2, [r3, #4]
  GPIO_InitStruct.Pull = GPIO_NOPULL;
 80003ae:	1d3b      	adds	r3, r7, #4
 80003b0:	2200      	movs	r2, #0
 80003b2:	609a      	str	r2, [r3, #8]
  GPIO_InitStruct.Speed = GPIO_SPEED_FREQ_LOW;
 80003b4:	1d3b      	adds	r3, r7, #4
 80003b6:	2200      	movs	r2, #0
 80003b8:	60da      	str	r2, [r3, #12]
  HAL_GPIO_Init(GPIOA, &GPIO_InitStruct);
 80003ba:	1d3a      	adds	r2, r7, #4
 80003bc:	2390      	movs	r3, #144	; 0x90
 80003be:	05db      	lsls	r3, r3, #23
 80003c0:	0011      	movs	r1, r2
 80003c2:	0018      	movs	r0, r3
 80003c4:	f000 f9e0 	bl	8000788 <HAL_GPIO_Init>

}
 80003c8:	46c0      	nop			; (mov r8, r8)
 80003ca:	46bd      	mov	sp, r7
 80003cc:	b006      	add	sp, #24
 80003ce:	bd80      	pop	{r7, pc}
 80003d0:	40021000 	.word	0x40021000
 80003d4:	10110000 	.word	0x10110000

080003d8 <Error_Handler>:
/**
  * @brief  This function is executed in case of error occurrence.
  * @retval None
  */
void Error_Handler(void)
{
 80003d8:	b580      	push	{r7, lr}
 80003da:	af00      	add	r7, sp, #0
  /* USER CODE BEGIN Error_Handler_Debug */
  /* User can add his own implementation to report the HAL error return state */

  /* USER CODE END Error_Handler_Debug */
}
 80003dc:	46c0      	nop			; (mov r8, r8)
 80003de:	46bd      	mov	sp, r7
 80003e0:	bd80      	pop	{r7, pc}
	...

080003e4 <HAL_MspInit>:
/* USER CODE END 0 */
/**
  * Initializes the Global MSP.
  */
void HAL_MspInit(void)
{
 80003e4:	b580      	push	{r7, lr}
 80003e6:	b082      	sub	sp, #8
 80003e8:	af00      	add	r7, sp, #0
  /* USER CODE BEGIN MspInit 0 */

  /* USER CODE END MspInit 0 */

  __HAL_RCC_SYSCFG_CLK_ENABLE();
 80003ea:	4b0f      	ldr	r3, [pc, #60]	; (8000428 <HAL_MspInit+0x44>)
 80003ec:	699a      	ldr	r2, [r3, #24]
 80003ee:	4b0e      	ldr	r3, [pc, #56]	; (8000428 <HAL_MspInit+0x44>)
 80003f0:	2101      	movs	r1, #1
 80003f2:	430a      	orrs	r2, r1
 80003f4:	619a      	str	r2, [r3, #24]
 80003f6:	4b0c      	ldr	r3, [pc, #48]	; (8000428 <HAL_MspInit+0x44>)
 80003f8:	699b      	ldr	r3, [r3, #24]
 80003fa:	2201      	movs	r2, #1
 80003fc:	4013      	ands	r3, r2
 80003fe:	607b      	str	r3, [r7, #4]
 8000400:	687b      	ldr	r3, [r7, #4]
  __HAL_RCC_PWR_CLK_ENABLE();
 8000402:	4b09      	ldr	r3, [pc, #36]	; (8000428 <HAL_MspInit+0x44>)
 8000404:	69da      	ldr	r2, [r3, #28]
 8000406:	4b08      	ldr	r3, [pc, #32]	; (8000428 <HAL_MspInit+0x44>)
 8000408:	2180      	movs	r1, #128	; 0x80
 800040a:	0549      	lsls	r1, r1, #21
 800040c:	430a      	orrs	r2, r1
 800040e:	61da      	str	r2, [r3, #28]
 8000410:	4b05      	ldr	r3, [pc, #20]	; (8000428 <HAL_MspInit+0x44>)
 8000412:	69da      	ldr	r2, [r3, #28]
 8000414:	2380      	movs	r3, #128	; 0x80
 8000416:	055b      	lsls	r3, r3, #21
 8000418:	4013      	ands	r3, r2
 800041a:	603b      	str	r3, [r7, #0]
 800041c:	683b      	ldr	r3, [r7, #0]
  /* System interrupt init*/

  /* USER CODE BEGIN MspInit 1 */

  /* USER CODE END MspInit 1 */
}
 800041e:	46c0      	nop			; (mov r8, r8)
 8000420:	46bd      	mov	sp, r7
 8000422:	b002      	add	sp, #8
 8000424:	bd80      	pop	{r7, pc}
 8000426:	46c0      	nop			; (mov r8, r8)
 8000428:	40021000 	.word	0x40021000

0800042c <HAL_UART_MspInit>:
* This function configures the hardware resources used in this example
* @param huart: UART handle pointer
* @retval None
*/
void HAL_UART_MspInit(UART_HandleTypeDef* huart)
{
 800042c:	b580      	push	{r7, lr}
 800042e:	b08a      	sub	sp, #40	; 0x28
 8000430:	af00      	add	r7, sp, #0
 8000432:	6078      	str	r0, [r7, #4]
  GPIO_InitTypeDef GPIO_InitStruct = {0};
 8000434:	2314      	movs	r3, #20
 8000436:	18fb      	adds	r3, r7, r3
 8000438:	0018      	movs	r0, r3
 800043a:	2314      	movs	r3, #20
 800043c:	001a      	movs	r2, r3
 800043e:	2100      	movs	r1, #0
 8000440:	f001 fbf2 	bl	8001c28 <memset>
  if(huart->Instance==USART1)
 8000444:	687b      	ldr	r3, [r7, #4]
 8000446:	681b      	ldr	r3, [r3, #0]
 8000448:	4a1d      	ldr	r2, [pc, #116]	; (80004c0 <HAL_UART_MspInit+0x94>)
 800044a:	4293      	cmp	r3, r2
 800044c:	d133      	bne.n	80004b6 <HAL_UART_MspInit+0x8a>
  {
  /* USER CODE BEGIN USART1_MspInit 0 */

  /* USER CODE END USART1_MspInit 0 */
    /* Peripheral clock enable */
    __HAL_RCC_USART1_CLK_ENABLE();
 800044e:	4b1d      	ldr	r3, [pc, #116]	; (80004c4 <HAL_UART_MspInit+0x98>)
 8000450:	699a      	ldr	r2, [r3, #24]
 8000452:	4b1c      	ldr	r3, [pc, #112]	; (80004c4 <HAL_UART_MspInit+0x98>)
 8000454:	2180      	movs	r1, #128	; 0x80
 8000456:	01c9      	lsls	r1, r1, #7
 8000458:	430a      	orrs	r2, r1
 800045a:	619a      	str	r2, [r3, #24]
 800045c:	4b19      	ldr	r3, [pc, #100]	; (80004c4 <HAL_UART_MspInit+0x98>)
 800045e:	699a      	ldr	r2, [r3, #24]
 8000460:	2380      	movs	r3, #128	; 0x80
 8000462:	01db      	lsls	r3, r3, #7
 8000464:	4013      	ands	r3, r2
 8000466:	613b      	str	r3, [r7, #16]
 8000468:	693b      	ldr	r3, [r7, #16]

    __HAL_RCC_GPIOA_CLK_ENABLE();
 800046a:	4b16      	ldr	r3, [pc, #88]	; (80004c4 <HAL_UART_MspInit+0x98>)
 800046c:	695a      	ldr	r2, [r3, #20]
 800046e:	4b15      	ldr	r3, [pc, #84]	; (80004c4 <HAL_UART_MspInit+0x98>)
 8000470:	2180      	movs	r1, #128	; 0x80
 8000472:	0289      	lsls	r1, r1, #10
 8000474:	430a      	orrs	r2, r1
 8000476:	615a      	str	r2, [r3, #20]
 8000478:	4b12      	ldr	r3, [pc, #72]	; (80004c4 <HAL_UART_MspInit+0x98>)
 800047a:	695a      	ldr	r2, [r3, #20]
 800047c:	2380      	movs	r3, #128	; 0x80
 800047e:	029b      	lsls	r3, r3, #10
 8000480:	4013      	ands	r3, r2
 8000482:	60fb      	str	r3, [r7, #12]
 8000484:	68fb      	ldr	r3, [r7, #12]
    /**USART1 GPIO Configuration
    PA9     ------> USART1_TX
    PA10     ------> USART1_RX
    */
    GPIO_InitStruct.Pin = GPIO_PIN_9|GPIO_PIN_10;
 8000486:	2114      	movs	r1, #20
 8000488:	187b      	adds	r3, r7, r1
 800048a:	22c0      	movs	r2, #192	; 0xc0
 800048c:	00d2      	lsls	r2, r2, #3
 800048e:	601a      	str	r2, [r3, #0]
    GPIO_InitStruct.Mode = GPIO_MODE_AF_PP;
 8000490:	187b      	adds	r3, r7, r1
 8000492:	2202      	movs	r2, #2
 8000494:	605a      	str	r2, [r3, #4]
    GPIO_InitStruct.Pull = GPIO_NOPULL;
 8000496:	187b      	adds	r3, r7, r1
 8000498:	2200      	movs	r2, #0
 800049a:	609a      	str	r2, [r3, #8]
    GPIO_InitStruct.Speed = GPIO_SPEED_FREQ_HIGH;
 800049c:	187b      	adds	r3, r7, r1
 800049e:	2203      	movs	r2, #3
 80004a0:	60da      	str	r2, [r3, #12]
    GPIO_InitStruct.Alternate = GPIO_AF1_USART1;
 80004a2:	187b      	adds	r3, r7, r1
 80004a4:	2201      	movs	r2, #1
 80004a6:	611a      	str	r2, [r3, #16]
    HAL_GPIO_Init(GPIOA, &GPIO_InitStruct);
 80004a8:	187a      	adds	r2, r7, r1
 80004aa:	2390      	movs	r3, #144	; 0x90
 80004ac:	05db      	lsls	r3, r3, #23
 80004ae:	0011      	movs	r1, r2
 80004b0:	0018      	movs	r0, r3
 80004b2:	f000 f969 	bl	8000788 <HAL_GPIO_Init>
  /* USER CODE BEGIN USART1_MspInit 1 */

  /* USER CODE END USART1_MspInit 1 */
  }

}
 80004b6:	46c0      	nop			; (mov r8, r8)
 80004b8:	46bd      	mov	sp, r7
 80004ba:	b00a      	add	sp, #40	; 0x28
 80004bc:	bd80      	pop	{r7, pc}
 80004be:	46c0      	nop			; (mov r8, r8)
 80004c0:	40013800 	.word	0x40013800
 80004c4:	40021000 	.word	0x40021000

080004c8 <NMI_Handler>:
/******************************************************************************/
/**
  * @brief This function handles Non maskable interrupt.
  */
void NMI_Handler(void)
{
 80004c8:	b580      	push	{r7, lr}
 80004ca:	af00      	add	r7, sp, #0

  /* USER CODE END NonMaskableInt_IRQn 0 */
  /* USER CODE BEGIN NonMaskableInt_IRQn 1 */

  /* USER CODE END NonMaskableInt_IRQn 1 */
}
 80004cc:	46c0      	nop			; (mov r8, r8)
 80004ce:	46bd      	mov	sp, r7
 80004d0:	bd80      	pop	{r7, pc}

080004d2 <HardFault_Handler>:

/**
  * @brief This function handles Hard fault interrupt.
  */
void HardFault_Handler(void)
{
 80004d2:	b580      	push	{r7, lr}
 80004d4:	af00      	add	r7, sp, #0
  /* USER CODE BEGIN HardFault_IRQn 0 */

  /* USER CODE END HardFault_IRQn 0 */
  while (1)
 80004d6:	e7fe      	b.n	80004d6 <HardFault_Handler+0x4>

080004d8 <SVC_Handler>:

/**
  * @brief This function handles System service call via SWI instruction.
  */
void SVC_Handler(void)
{
 80004d8:	b580      	push	{r7, lr}
 80004da:	af00      	add	r7, sp, #0

  /* USER CODE END SVC_IRQn 0 */
  /* USER CODE BEGIN SVC_IRQn 1 */

  /* USER CODE END SVC_IRQn 1 */
}
 80004dc:	46c0      	nop			; (mov r8, r8)
 80004de:	46bd      	mov	sp, r7
 80004e0:	bd80      	pop	{r7, pc}

080004e2 <PendSV_Handler>:

/**
  * @brief This function handles Pendable request for system service.
  */
void PendSV_Handler(void)
{
 80004e2:	b580      	push	{r7, lr}
 80004e4:	af00      	add	r7, sp, #0

  /* USER CODE END PendSV_IRQn 0 */
  /* USER CODE BEGIN PendSV_IRQn 1 */

  /* USER CODE END PendSV_IRQn 1 */
}
 80004e6:	46c0      	nop			; (mov r8, r8)
 80004e8:	46bd      	mov	sp, r7
 80004ea:	bd80      	pop	{r7, pc}

080004ec <SysTick_Handler>:

/**
  * @brief This function handles System tick timer.
  */
void SysTick_Handler(void)
{
 80004ec:	b580      	push	{r7, lr}
 80004ee:	af00      	add	r7, sp, #0
  /* USER CODE BEGIN SysTick_IRQn 0 */

  /* USER CODE END SysTick_IRQn 0 */
  HAL_IncTick();
 80004f0:	f000 f87a 	bl	80005e8 <HAL_IncTick>
  /* USER CODE BEGIN SysTick_IRQn 1 */

  /* USER CODE END SysTick_IRQn 1 */
}
 80004f4:	46c0      	nop			; (mov r8, r8)
 80004f6:	46bd      	mov	sp, r7
 80004f8:	bd80      	pop	{r7, pc}

080004fa <SystemInit>:
  * @brief  Setup the microcontroller system.
  * @param  None
  * @retval None
  */
void SystemInit(void)
{
 80004fa:	b580      	push	{r7, lr}
 80004fc:	af00      	add	r7, sp, #0
                         before branch to main program. This call is made inside
                         the "startup_stm32f0xx.s" file.
                         User can setups the default system clock (System clock source, PLL Multiplier
                         and Divider factors, AHB/APBx prescalers and Flash settings).
   */
}
 80004fe:	46c0      	nop			; (mov r8, r8)
 8000500:	46bd      	mov	sp, r7
 8000502:	bd80      	pop	{r7, pc}

08000504 <Reset_Handler>:

  .section .text.Reset_Handler
  .weak Reset_Handler
  .type Reset_Handler, %function
Reset_Handler:
  ldr   r0, =_estack
 8000504:	480d      	ldr	r0, [pc, #52]	; (800053c <LoopForever+0x2>)
  mov   sp, r0          /* set stack pointer */
 8000506:	4685      	mov	sp, r0

/* Copy the data segment initializers from flash to SRAM */
  ldr r0, =_sdata
 8000508:	480d      	ldr	r0, [pc, #52]	; (8000540 <LoopForever+0x6>)
  ldr r1, =_edata
 800050a:	490e      	ldr	r1, [pc, #56]	; (8000544 <LoopForever+0xa>)
  ldr r2, =_sidata
 800050c:	4a0e      	ldr	r2, [pc, #56]	; (8000548 <LoopForever+0xe>)
  movs r3, #0
 800050e:	2300      	movs	r3, #0
  b LoopCopyDataInit
 8000510:	e002      	b.n	8000518 <LoopCopyDataInit>

08000512 <CopyDataInit>:

CopyDataInit:
  ldr r4, [r2, r3]
 8000512:	58d4      	ldr	r4, [r2, r3]
  str r4, [r0, r3]
 8000514:	50c4      	str	r4, [r0, r3]
  adds r3, r3, #4
 8000516:	3304      	adds	r3, #4

08000518 <LoopCopyDataInit>:

LoopCopyDataInit:
  adds r4, r0, r3
 8000518:	18c4      	adds	r4, r0, r3
  cmp r4, r1
 800051a:	428c      	cmp	r4, r1
  bcc CopyDataInit
 800051c:	d3f9      	bcc.n	8000512 <CopyDataInit>
  
/* Zero fill the bss segment. */
  ldr r2, =_sbss
 800051e:	4a0b      	ldr	r2, [pc, #44]	; (800054c <LoopForever+0x12>)
  ldr r4, =_ebss
 8000520:	4c0b      	ldr	r4, [pc, #44]	; (8000550 <LoopForever+0x16>)
  movs r3, #0
 8000522:	2300      	movs	r3, #0
  b LoopFillZerobss
 8000524:	e001      	b.n	800052a <LoopFillZerobss>

08000526 <FillZerobss>:

FillZerobss:
  str  r3, [r2]
 8000526:	6013      	str	r3, [r2, #0]
  adds r2, r2, #4
 8000528:	3204      	adds	r2, #4

0800052a <LoopFillZerobss>:

LoopFillZerobss:
  cmp r2, r4
 800052a:	42a2      	cmp	r2, r4
  bcc FillZerobss
 800052c:	d3fb      	bcc.n	8000526 <FillZerobss>

/* Call the clock system intitialization function.*/
  bl  SystemInit
 800052e:	f7ff ffe4 	bl	80004fa <SystemInit>
/* Call static constructors */
  bl __libc_init_array
 8000532:	f001 fb55 	bl	8001be0 <__libc_init_array>
/* Call the application's entry point.*/
  bl main
 8000536:	f7ff fe73 	bl	8000220 <main>

0800053a <LoopForever>:

LoopForever:
    b LoopForever
 800053a:	e7fe      	b.n	800053a <LoopForever>
  ldr   r0, =_estack
 800053c:	20002000 	.word	0x20002000
  ldr r0, =_sdata
 8000540:	20000000 	.word	0x20000000
  ldr r1, =_edata
 8000544:	2000000c 	.word	0x2000000c
  ldr r2, =_sidata
 8000548:	08001c90 	.word	0x08001c90
  ldr r2, =_sbss
 800054c:	2000000c 	.word	0x2000000c
  ldr r4, =_ebss
 8000550:	200000ac 	.word	0x200000ac

08000554 <ADC1_COMP_IRQHandler>:
 * @retval : None
*/
    .section .text.Default_Handler,"ax",%progbits
Default_Handler:
Infinite_Loop:
  b Infinite_Loop
 8000554:	e7fe      	b.n	8000554 <ADC1_COMP_IRQHandler>
	...

08000558 <HAL_Init>:
  *       In the default implementation,Systick is used as source of time base.
  *       The tick variable is incremented each 1ms in its ISR.
  * @retval HAL status
  */
HAL_StatusTypeDef HAL_Init(void)
{
 8000558:	b580      	push	{r7, lr}
 800055a:	af00      	add	r7, sp, #0
  /* Configure Flash prefetch */ 
#if (PREFETCH_ENABLE != 0)
  __HAL_FLASH_PREFETCH_BUFFER_ENABLE();
 800055c:	4b07      	ldr	r3, [pc, #28]	; (800057c <HAL_Init+0x24>)
 800055e:	681a      	ldr	r2, [r3, #0]
 8000560:	4b06      	ldr	r3, [pc, #24]	; (800057c <HAL_Init+0x24>)
 8000562:	2110      	movs	r1, #16
 8000564:	430a      	orrs	r2, r1
 8000566:	601a      	str	r2, [r3, #0]
#endif /* PREFETCH_ENABLE */

  /* Use systick as time base source and configure 1ms tick (default clock after Reset is HSI) */

  HAL_InitTick(TICK_INT_PRIORITY);
 8000568:	2000      	movs	r0, #0
 800056a:	f000 f809 	bl	8000580 <HAL_InitTick>

  /* Init the low level hardware */
  HAL_MspInit();
 800056e:	f7ff ff39 	bl	80003e4 <HAL_MspInit>

  /* Return function status */
  return HAL_OK;
 8000572:	2300      	movs	r3, #0
}
 8000574:	0018      	movs	r0, r3
 8000576:	46bd      	mov	sp, r7
 8000578:	bd80      	pop	{r7, pc}
 800057a:	46c0      	nop			; (mov r8, r8)
 800057c:	40022000 	.word	0x40022000

08000580 <HAL_InitTick>:
  *       implementation  in user file.
  * @param TickPriority Tick interrupt priority.
  * @retval HAL status
  */
__weak HAL_StatusTypeDef HAL_InitTick(uint32_t TickPriority)
{
 8000580:	b590      	push	{r4, r7, lr}
 8000582:	b083      	sub	sp, #12
 8000584:	af00      	add	r7, sp, #0
 8000586:	6078      	str	r0, [r7, #4]
  /*Configure the SysTick to have interrupt in 1ms time basis*/
  if (HAL_SYSTICK_Config(SystemCoreClock / (1000U / uwTickFreq)) > 0U)
 8000588:	4b14      	ldr	r3, [pc, #80]	; (80005dc <HAL_InitTick+0x5c>)
 800058a:	681c      	ldr	r4, [r3, #0]
 800058c:	4b14      	ldr	r3, [pc, #80]	; (80005e0 <HAL_InitTick+0x60>)
 800058e:	781b      	ldrb	r3, [r3, #0]
 8000590:	0019      	movs	r1, r3
 8000592:	23fa      	movs	r3, #250	; 0xfa
 8000594:	0098      	lsls	r0, r3, #2
 8000596:	f7ff fdb7 	bl	8000108 <__udivsi3>
 800059a:	0003      	movs	r3, r0
 800059c:	0019      	movs	r1, r3
 800059e:	0020      	movs	r0, r4
 80005a0:	f7ff fdb2 	bl	8000108 <__udivsi3>
 80005a4:	0003      	movs	r3, r0
 80005a6:	0018      	movs	r0, r3
 80005a8:	f000 f8e1 	bl	800076e <HAL_SYSTICK_Config>
 80005ac:	1e03      	subs	r3, r0, #0
 80005ae:	d001      	beq.n	80005b4 <HAL_InitTick+0x34>
  {
    return HAL_ERROR;
 80005b0:	2301      	movs	r3, #1
 80005b2:	e00f      	b.n	80005d4 <HAL_InitTick+0x54>
  }

  /* Configure the SysTick IRQ priority */
  if (TickPriority < (1UL << __NVIC_PRIO_BITS))
 80005b4:	687b      	ldr	r3, [r7, #4]
 80005b6:	2b03      	cmp	r3, #3
 80005b8:	d80b      	bhi.n	80005d2 <HAL_InitTick+0x52>
  {
    HAL_NVIC_SetPriority(SysTick_IRQn, TickPriority, 0U);
 80005ba:	6879      	ldr	r1, [r7, #4]
 80005bc:	2301      	movs	r3, #1
 80005be:	425b      	negs	r3, r3
 80005c0:	2200      	movs	r2, #0
 80005c2:	0018      	movs	r0, r3
 80005c4:	f000 f8be 	bl	8000744 <HAL_NVIC_SetPriority>
    uwTickPrio = TickPriority;
 80005c8:	4b06      	ldr	r3, [pc, #24]	; (80005e4 <HAL_InitTick+0x64>)
 80005ca:	687a      	ldr	r2, [r7, #4]
 80005cc:	601a      	str	r2, [r3, #0]
  {
    return HAL_ERROR;
  }

   /* Return function status */
  return HAL_OK;
 80005ce:	2300      	movs	r3, #0
 80005d0:	e000      	b.n	80005d4 <HAL_InitTick+0x54>
    return HAL_ERROR;
 80005d2:	2301      	movs	r3, #1
}
 80005d4:	0018      	movs	r0, r3
 80005d6:	46bd      	mov	sp, r7
 80005d8:	b003      	add	sp, #12
 80005da:	bd90      	pop	{r4, r7, pc}
 80005dc:	20000000 	.word	0x20000000
 80005e0:	20000008 	.word	0x20000008
 80005e4:	20000004 	.word	0x20000004

080005e8 <HAL_IncTick>:
  * @note This function is declared as __weak to be overwritten in case of other 
  *       implementations in user file.
  * @retval None
  */
__weak void HAL_IncTick(void)
{
 80005e8:	b580      	push	{r7, lr}
 80005ea:	af00      	add	r7, sp, #0
  uwTick += uwTickFreq;
 80005ec:	4b05      	ldr	r3, [pc, #20]	; (8000604 <HAL_IncTick+0x1c>)
 80005ee:	781b      	ldrb	r3, [r3, #0]
 80005f0:	001a      	movs	r2, r3
 80005f2:	4b05      	ldr	r3, [pc, #20]	; (8000608 <HAL_IncTick+0x20>)
 80005f4:	681b      	ldr	r3, [r3, #0]
 80005f6:	18d2      	adds	r2, r2, r3
 80005f8:	4b03      	ldr	r3, [pc, #12]	; (8000608 <HAL_IncTick+0x20>)
 80005fa:	601a      	str	r2, [r3, #0]
}
 80005fc:	46c0      	nop			; (mov r8, r8)
 80005fe:	46bd      	mov	sp, r7
 8000600:	bd80      	pop	{r7, pc}
 8000602:	46c0      	nop			; (mov r8, r8)
 8000604:	20000008 	.word	0x20000008
 8000608:	200000a8 	.word	0x200000a8

0800060c <HAL_GetTick>:
  * @note   This function is declared as __weak  to be overwritten  in case of other 
  *       implementations in user file.
  * @retval tick value
  */
__weak uint32_t HAL_GetTick(void)
{
 800060c:	b580      	push	{r7, lr}
 800060e:	af00      	add	r7, sp, #0
  return uwTick;
 8000610:	4b02      	ldr	r3, [pc, #8]	; (800061c <HAL_GetTick+0x10>)
 8000612:	681b      	ldr	r3, [r3, #0]
}
 8000614:	0018      	movs	r0, r3
 8000616:	46bd      	mov	sp, r7
 8000618:	bd80      	pop	{r7, pc}
 800061a:	46c0      	nop			; (mov r8, r8)
 800061c:	200000a8 	.word	0x200000a8

08000620 <__NVIC_SetPriority>:
  \param [in]      IRQn  Interrupt number.
  \param [in]  priority  Priority to set.
  \note    The priority cannot be set for every processor exception.
 */
__STATIC_INLINE void __NVIC_SetPriority(IRQn_Type IRQn, uint32_t priority)
{
 8000620:	b590      	push	{r4, r7, lr}
 8000622:	b083      	sub	sp, #12
 8000624:	af00      	add	r7, sp, #0
 8000626:	0002      	movs	r2, r0
 8000628:	6039      	str	r1, [r7, #0]
 800062a:	1dfb      	adds	r3, r7, #7
 800062c:	701a      	strb	r2, [r3, #0]
  if ((int32_t)(IRQn) >= 0)
 800062e:	1dfb      	adds	r3, r7, #7
 8000630:	781b      	ldrb	r3, [r3, #0]
 8000632:	2b7f      	cmp	r3, #127	; 0x7f
 8000634:	d828      	bhi.n	8000688 <__NVIC_SetPriority+0x68>
  {
    NVIC->IP[_IP_IDX(IRQn)]  = ((uint32_t)(NVIC->IP[_IP_IDX(IRQn)]  & ~(0xFFUL << _BIT_SHIFT(IRQn))) |
 8000636:	4a2f      	ldr	r2, [pc, #188]	; (80006f4 <__NVIC_SetPriority+0xd4>)
 8000638:	1dfb      	adds	r3, r7, #7
 800063a:	781b      	ldrb	r3, [r3, #0]
 800063c:	b25b      	sxtb	r3, r3
 800063e:	089b      	lsrs	r3, r3, #2
 8000640:	33c0      	adds	r3, #192	; 0xc0
 8000642:	009b      	lsls	r3, r3, #2
 8000644:	589b      	ldr	r3, [r3, r2]
 8000646:	1dfa      	adds	r2, r7, #7
 8000648:	7812      	ldrb	r2, [r2, #0]
 800064a:	0011      	movs	r1, r2
 800064c:	2203      	movs	r2, #3
 800064e:	400a      	ands	r2, r1
 8000650:	00d2      	lsls	r2, r2, #3
 8000652:	21ff      	movs	r1, #255	; 0xff
 8000654:	4091      	lsls	r1, r2
 8000656:	000a      	movs	r2, r1
 8000658:	43d2      	mvns	r2, r2
 800065a:	401a      	ands	r2, r3
 800065c:	0011      	movs	r1, r2
       (((priority << (8U - __NVIC_PRIO_BITS)) & (uint32_t)0xFFUL) << _BIT_SHIFT(IRQn)));
 800065e:	683b      	ldr	r3, [r7, #0]
 8000660:	019b      	lsls	r3, r3, #6
 8000662:	22ff      	movs	r2, #255	; 0xff
 8000664:	401a      	ands	r2, r3
 8000666:	1dfb      	adds	r3, r7, #7
 8000668:	781b      	ldrb	r3, [r3, #0]
 800066a:	0018      	movs	r0, r3
 800066c:	2303      	movs	r3, #3
 800066e:	4003      	ands	r3, r0
 8000670:	00db      	lsls	r3, r3, #3
 8000672:	409a      	lsls	r2, r3
    NVIC->IP[_IP_IDX(IRQn)]  = ((uint32_t)(NVIC->IP[_IP_IDX(IRQn)]  & ~(0xFFUL << _BIT_SHIFT(IRQn))) |
 8000674:	481f      	ldr	r0, [pc, #124]	; (80006f4 <__NVIC_SetPriority+0xd4>)
 8000676:	1dfb      	adds	r3, r7, #7
 8000678:	781b      	ldrb	r3, [r3, #0]
 800067a:	b25b      	sxtb	r3, r3
 800067c:	089b      	lsrs	r3, r3, #2
 800067e:	430a      	orrs	r2, r1
 8000680:	33c0      	adds	r3, #192	; 0xc0
 8000682:	009b      	lsls	r3, r3, #2
 8000684:	501a      	str	r2, [r3, r0]
  else
  {
    SCB->SHP[_SHP_IDX(IRQn)] = ((uint32_t)(SCB->SHP[_SHP_IDX(IRQn)] & ~(0xFFUL << _BIT_SHIFT(IRQn))) |
       (((priority << (8U - __NVIC_PRIO_BITS)) & (uint32_t)0xFFUL) << _BIT_SHIFT(IRQn)));
  }
}
 8000686:	e031      	b.n	80006ec <__NVIC_SetPriority+0xcc>
    SCB->SHP[_SHP_IDX(IRQn)] = ((uint32_t)(SCB->SHP[_SHP_IDX(IRQn)] & ~(0xFFUL << _BIT_SHIFT(IRQn))) |
 8000688:	4a1b      	ldr	r2, [pc, #108]	; (80006f8 <__NVIC_SetPriority+0xd8>)
 800068a:	1dfb      	adds	r3, r7, #7
 800068c:	781b      	ldrb	r3, [r3, #0]
 800068e:	0019      	movs	r1, r3
 8000690:	230f      	movs	r3, #15
 8000692:	400b      	ands	r3, r1
 8000694:	3b08      	subs	r3, #8
 8000696:	089b      	lsrs	r3, r3, #2
 8000698:	3306      	adds	r3, #6
 800069a:	009b      	lsls	r3, r3, #2
 800069c:	18d3      	adds	r3, r2, r3
 800069e:	3304      	adds	r3, #4
 80006a0:	681b      	ldr	r3, [r3, #0]
 80006a2:	1dfa      	adds	r2, r7, #7
 80006a4:	7812      	ldrb	r2, [r2, #0]
 80006a6:	0011      	movs	r1, r2
 80006a8:	2203      	movs	r2, #3
 80006aa:	400a      	ands	r2, r1
 80006ac:	00d2      	lsls	r2, r2, #3
 80006ae:	21ff      	movs	r1, #255	; 0xff
 80006b0:	4091      	lsls	r1, r2
 80006b2:	000a      	movs	r2, r1
 80006b4:	43d2      	mvns	r2, r2
 80006b6:	401a      	ands	r2, r3
 80006b8:	0011      	movs	r1, r2
       (((priority << (8U - __NVIC_PRIO_BITS)) & (uint32_t)0xFFUL) << _BIT_SHIFT(IRQn)));
 80006ba:	683b      	ldr	r3, [r7, #0]
 80006bc:	019b      	lsls	r3, r3, #6
 80006be:	22ff      	movs	r2, #255	; 0xff
 80006c0:	401a      	ands	r2, r3
 80006c2:	1dfb      	adds	r3, r7, #7
 80006c4:	781b      	ldrb	r3, [r3, #0]
 80006c6:	0018      	movs	r0, r3
 80006c8:	2303      	movs	r3, #3
 80006ca:	4003      	ands	r3, r0
 80006cc:	00db      	lsls	r3, r3, #3
 80006ce:	409a      	lsls	r2, r3
    SCB->SHP[_SHP_IDX(IRQn)] = ((uint32_t)(SCB->SHP[_SHP_IDX(IRQn)] & ~(0xFFUL << _BIT_SHIFT(IRQn))) |
 80006d0:	4809      	ldr	r0, [pc, #36]	; (80006f8 <__NVIC_SetPriority+0xd8>)
 80006d2:	1dfb      	adds	r3, r7, #7
 80006d4:	781b      	ldrb	r3, [r3, #0]
 80006d6:	001c      	movs	r4, r3
 80006d8:	230f      	movs	r3, #15
 80006da:	4023      	ands	r3, r4
 80006dc:	3b08      	subs	r3, #8
 80006de:	089b      	lsrs	r3, r3, #2
 80006e0:	430a      	orrs	r2, r1
 80006e2:	3306      	adds	r3, #6
 80006e4:	009b      	lsls	r3, r3, #2
 80006e6:	18c3      	adds	r3, r0, r3
 80006e8:	3304      	adds	r3, #4
 80006ea:	601a      	str	r2, [r3, #0]
}
 80006ec:	46c0      	nop			; (mov r8, r8)
 80006ee:	46bd      	mov	sp, r7
 80006f0:	b003      	add	sp, #12
 80006f2:	bd90      	pop	{r4, r7, pc}
 80006f4:	e000e100 	.word	0xe000e100
 80006f8:	e000ed00 	.word	0xe000ed00

080006fc <SysTick_Config>:
  \note    When the variable <b>__Vendor_SysTickConfig</b> is set to 1, then the
           function <b>SysTick_Config</b> is not included. In this case, the file <b><i>device</i>.h</b>
           must contain a vendor-specific implementation of this function.
 */
__STATIC_INLINE uint32_t SysTick_Config(uint32_t ticks)
{
 80006fc:	b580      	push	{r7, lr}
 80006fe:	b082      	sub	sp, #8
 8000700:	af00      	add	r7, sp, #0
 8000702:	6078      	str	r0, [r7, #4]
  if ((ticks - 1UL) > SysTick_LOAD_RELOAD_Msk)
 8000704:	687b      	ldr	r3, [r7, #4]
 8000706:	3b01      	subs	r3, #1
 8000708:	4a0c      	ldr	r2, [pc, #48]	; (800073c <SysTick_Config+0x40>)
 800070a:	4293      	cmp	r3, r2
 800070c:	d901      	bls.n	8000712 <SysTick_Config+0x16>
  {
    return (1UL);                                                   /* Reload value impossible */
 800070e:	2301      	movs	r3, #1
 8000710:	e010      	b.n	8000734 <SysTick_Config+0x38>
  }

  SysTick->LOAD  = (uint32_t)(ticks - 1UL);                         /* set reload register */
 8000712:	4b0b      	ldr	r3, [pc, #44]	; (8000740 <SysTick_Config+0x44>)
 8000714:	687a      	ldr	r2, [r7, #4]
 8000716:	3a01      	subs	r2, #1
 8000718:	605a      	str	r2, [r3, #4]
  NVIC_SetPriority (SysTick_IRQn, (1UL << __NVIC_PRIO_BITS) - 1UL); /* set Priority for Systick Interrupt */
 800071a:	2301      	movs	r3, #1
 800071c:	425b      	negs	r3, r3
 800071e:	2103      	movs	r1, #3
 8000720:	0018      	movs	r0, r3
 8000722:	f7ff ff7d 	bl	8000620 <__NVIC_SetPriority>
  SysTick->VAL   = 0UL;                                             /* Load the SysTick Counter Value */
 8000726:	4b06      	ldr	r3, [pc, #24]	; (8000740 <SysTick_Config+0x44>)
 8000728:	2200      	movs	r2, #0
 800072a:	609a      	str	r2, [r3, #8]
  SysTick->CTRL  = SysTick_CTRL_CLKSOURCE_Msk |
 800072c:	4b04      	ldr	r3, [pc, #16]	; (8000740 <SysTick_Config+0x44>)
 800072e:	2207      	movs	r2, #7
 8000730:	601a      	str	r2, [r3, #0]
                   SysTick_CTRL_TICKINT_Msk   |
                   SysTick_CTRL_ENABLE_Msk;                         /* Enable SysTick IRQ and SysTick Timer */
  return (0UL);                                                     /* Function successful */
 8000732:	2300      	movs	r3, #0
}
 8000734:	0018      	movs	r0, r3
 8000736:	46bd      	mov	sp, r7
 8000738:	b002      	add	sp, #8
 800073a:	bd80      	pop	{r7, pc}
 800073c:	00ffffff 	.word	0x00ffffff
 8000740:	e000e010 	.word	0xe000e010

08000744 <HAL_NVIC_SetPriority>:
  *         with stm32f0xx devices, this parameter is a dummy value and it is ignored, because 
  *         no subpriority supported in Cortex M0 based products.   
  * @retval None
  */
void HAL_NVIC_SetPriority(IRQn_Type IRQn, uint32_t PreemptPriority, uint32_t SubPriority)
{ 
 8000744:	b580      	push	{r7, lr}
 8000746:	b084      	sub	sp, #16
 8000748:	af00      	add	r7, sp, #0
 800074a:	60b9      	str	r1, [r7, #8]
 800074c:	607a      	str	r2, [r7, #4]
 800074e:	210f      	movs	r1, #15
 8000750:	187b      	adds	r3, r7, r1
 8000752:	1c02      	adds	r2, r0, #0
 8000754:	701a      	strb	r2, [r3, #0]
  /* Check the parameters */
  assert_param(IS_NVIC_PREEMPTION_PRIORITY(PreemptPriority));
  NVIC_SetPriority(IRQn,PreemptPriority);
 8000756:	68ba      	ldr	r2, [r7, #8]
 8000758:	187b      	adds	r3, r7, r1
 800075a:	781b      	ldrb	r3, [r3, #0]
 800075c:	b25b      	sxtb	r3, r3
 800075e:	0011      	movs	r1, r2
 8000760:	0018      	movs	r0, r3
 8000762:	f7ff ff5d 	bl	8000620 <__NVIC_SetPriority>
}
 8000766:	46c0      	nop			; (mov r8, r8)
 8000768:	46bd      	mov	sp, r7
 800076a:	b004      	add	sp, #16
 800076c:	bd80      	pop	{r7, pc}

0800076e <HAL_SYSTICK_Config>:
  * @param  TicksNumb Specifies the ticks Number of ticks between two interrupts.
  * @retval status:  - 0  Function succeeded.
  *                  - 1  Function failed.
  */
uint32_t HAL_SYSTICK_Config(uint32_t TicksNumb)
{
 800076e:	b580      	push	{r7, lr}
 8000770:	b082      	sub	sp, #8
 8000772:	af00      	add	r7, sp, #0
 8000774:	6078      	str	r0, [r7, #4]
   return SysTick_Config(TicksNumb);
 8000776:	687b      	ldr	r3, [r7, #4]
 8000778:	0018      	movs	r0, r3
 800077a:	f7ff ffbf 	bl	80006fc <SysTick_Config>
 800077e:	0003      	movs	r3, r0
}
 8000780:	0018      	movs	r0, r3
 8000782:	46bd      	mov	sp, r7
 8000784:	b002      	add	sp, #8
 8000786:	bd80      	pop	{r7, pc}

08000788 <HAL_GPIO_Init>:
  * @param  GPIO_Init pointer to a GPIO_InitTypeDef structure that contains
  *         the configuration information for the specified GPIO peripheral.
  * @retval None
  */
void HAL_GPIO_Init(GPIO_TypeDef  *GPIOx, GPIO_InitTypeDef *GPIO_Init)
{ 
 8000788:	b580      	push	{r7, lr}
 800078a:	b086      	sub	sp, #24
 800078c:	af00      	add	r7, sp, #0
 800078e:	6078      	str	r0, [r7, #4]
 8000790:	6039      	str	r1, [r7, #0]
  uint32_t position = 0x00u;
 8000792:	2300      	movs	r3, #0
 8000794:	617b      	str	r3, [r7, #20]
  assert_param(IS_GPIO_PIN(GPIO_Init->Pin));
  assert_param(IS_GPIO_MODE(GPIO_Init->Mode));
  assert_param(IS_GPIO_PULL(GPIO_Init->Pull));

  /* Configure the port pins */
  while (((GPIO_Init->Pin) >> position) != 0x00u)
 8000796:	e14f      	b.n	8000a38 <HAL_GPIO_Init+0x2b0>
  {
    /* Get current io position */
    iocurrent = (GPIO_Init->Pin) & (1uL << position);
 8000798:	683b      	ldr	r3, [r7, #0]
 800079a:	681b      	ldr	r3, [r3, #0]
 800079c:	2101      	movs	r1, #1
 800079e:	697a      	ldr	r2, [r7, #20]
 80007a0:	4091      	lsls	r1, r2
 80007a2:	000a      	movs	r2, r1
 80007a4:	4013      	ands	r3, r2
 80007a6:	60fb      	str	r3, [r7, #12]

    if (iocurrent != 0x00u)
 80007a8:	68fb      	ldr	r3, [r7, #12]
 80007aa:	2b00      	cmp	r3, #0
 80007ac:	d100      	bne.n	80007b0 <HAL_GPIO_Init+0x28>
 80007ae:	e140      	b.n	8000a32 <HAL_GPIO_Init+0x2aa>
    {
      /*--------------------- GPIO Mode Configuration ------------------------*/
      /* In case of Output or Alternate function mode selection */
      if((GPIO_Init->Mode == GPIO_MODE_OUTPUT_PP) || (GPIO_Init->Mode == GPIO_MODE_AF_PP) ||
 80007b0:	683b      	ldr	r3, [r7, #0]
 80007b2:	685b      	ldr	r3, [r3, #4]
 80007b4:	2b01      	cmp	r3, #1
 80007b6:	d00b      	beq.n	80007d0 <HAL_GPIO_Init+0x48>
 80007b8:	683b      	ldr	r3, [r7, #0]
 80007ba:	685b      	ldr	r3, [r3, #4]
 80007bc:	2b02      	cmp	r3, #2
 80007be:	d007      	beq.n	80007d0 <HAL_GPIO_Init+0x48>
         (GPIO_Init->Mode == GPIO_MODE_OUTPUT_OD) || (GPIO_Init->Mode == GPIO_MODE_AF_OD))
 80007c0:	683b      	ldr	r3, [r7, #0]
 80007c2:	685b      	ldr	r3, [r3, #4]
      if((GPIO_Init->Mode == GPIO_MODE_OUTPUT_PP) || (GPIO_Init->Mode == GPIO_MODE_AF_PP) ||
 80007c4:	2b11      	cmp	r3, #17
 80007c6:	d003      	beq.n	80007d0 <HAL_GPIO_Init+0x48>
         (GPIO_Init->Mode == GPIO_MODE_OUTPUT_OD) || (GPIO_Init->Mode == GPIO_MODE_AF_OD))
 80007c8:	683b      	ldr	r3, [r7, #0]
 80007ca:	685b      	ldr	r3, [r3, #4]
 80007cc:	2b12      	cmp	r3, #18
 80007ce:	d130      	bne.n	8000832 <HAL_GPIO_Init+0xaa>
      {
        /* Check the Speed parameter */
        assert_param(IS_GPIO_SPEED(GPIO_Init->Speed));
        /* Configure the IO Speed */
        temp = GPIOx->OSPEEDR;
 80007d0:	687b      	ldr	r3, [r7, #4]
 80007d2:	689b      	ldr	r3, [r3, #8]
 80007d4:	613b      	str	r3, [r7, #16]
        temp &= ~(GPIO_OSPEEDER_OSPEEDR0 << (position * 2u));
 80007d6:	697b      	ldr	r3, [r7, #20]
 80007d8:	005b      	lsls	r3, r3, #1
 80007da:	2203      	movs	r2, #3
 80007dc:	409a      	lsls	r2, r3
 80007de:	0013      	movs	r3, r2
 80007e0:	43da      	mvns	r2, r3
 80007e2:	693b      	ldr	r3, [r7, #16]
 80007e4:	4013      	ands	r3, r2
 80007e6:	613b      	str	r3, [r7, #16]
        temp |= (GPIO_Init->Speed << (position * 2u));
 80007e8:	683b      	ldr	r3, [r7, #0]
 80007ea:	68da      	ldr	r2, [r3, #12]
 80007ec:	697b      	ldr	r3, [r7, #20]
 80007ee:	005b      	lsls	r3, r3, #1
 80007f0:	409a      	lsls	r2, r3
 80007f2:	0013      	movs	r3, r2
 80007f4:	693a      	ldr	r2, [r7, #16]
 80007f6:	4313      	orrs	r3, r2
 80007f8:	613b      	str	r3, [r7, #16]
        GPIOx->OSPEEDR = temp;
 80007fa:	687b      	ldr	r3, [r7, #4]
 80007fc:	693a      	ldr	r2, [r7, #16]
 80007fe:	609a      	str	r2, [r3, #8]

        /* Configure the IO Output Type */
        temp = GPIOx->OTYPER;
 8000800:	687b      	ldr	r3, [r7, #4]
 8000802:	685b      	ldr	r3, [r3, #4]
 8000804:	613b      	str	r3, [r7, #16]
        temp &= ~(GPIO_OTYPER_OT_0 << position) ;
 8000806:	2201      	movs	r2, #1
 8000808:	697b      	ldr	r3, [r7, #20]
 800080a:	409a      	lsls	r2, r3
 800080c:	0013      	movs	r3, r2
 800080e:	43da      	mvns	r2, r3
 8000810:	693b      	ldr	r3, [r7, #16]
 8000812:	4013      	ands	r3, r2
 8000814:	613b      	str	r3, [r7, #16]
        temp |= (((GPIO_Init->Mode & GPIO_OUTPUT_TYPE) >> 4u) << position);
 8000816:	683b      	ldr	r3, [r7, #0]
 8000818:	685b      	ldr	r3, [r3, #4]
 800081a:	091b      	lsrs	r3, r3, #4
 800081c:	2201      	movs	r2, #1
 800081e:	401a      	ands	r2, r3
 8000820:	697b      	ldr	r3, [r7, #20]
 8000822:	409a      	lsls	r2, r3
 8000824:	0013      	movs	r3, r2
 8000826:	693a      	ldr	r2, [r7, #16]
 8000828:	4313      	orrs	r3, r2
 800082a:	613b      	str	r3, [r7, #16]
        GPIOx->OTYPER = temp;
 800082c:	687b      	ldr	r3, [r7, #4]
 800082e:	693a      	ldr	r2, [r7, #16]
 8000830:	605a      	str	r2, [r3, #4]
      }

      /* Activate the Pull-up or Pull down resistor for the current IO */
      temp = GPIOx->PUPDR;
 8000832:	687b      	ldr	r3, [r7, #4]
 8000834:	68db      	ldr	r3, [r3, #12]
 8000836:	613b      	str	r3, [r7, #16]
      temp &= ~(GPIO_PUPDR_PUPDR0 << (position * 2u));
 8000838:	697b      	ldr	r3, [r7, #20]
 800083a:	005b      	lsls	r3, r3, #1
 800083c:	2203      	movs	r2, #3
 800083e:	409a      	lsls	r2, r3
 8000840:	0013      	movs	r3, r2
 8000842:	43da      	mvns	r2, r3
 8000844:	693b      	ldr	r3, [r7, #16]
 8000846:	4013      	ands	r3, r2
 8000848:	613b      	str	r3, [r7, #16]
      temp |= ((GPIO_Init->Pull) << (position * 2u));
 800084a:	683b      	ldr	r3, [r7, #0]
 800084c:	689a      	ldr	r2, [r3, #8]
 800084e:	697b      	ldr	r3, [r7, #20]
 8000850:	005b      	lsls	r3, r3, #1
 8000852:	409a      	lsls	r2, r3
 8000854:	0013      	movs	r3, r2
 8000856:	693a      	ldr	r2, [r7, #16]
 8000858:	4313      	orrs	r3, r2
 800085a:	613b      	str	r3, [r7, #16]
      GPIOx->PUPDR = temp;
 800085c:	687b      	ldr	r3, [r7, #4]
 800085e:	693a      	ldr	r2, [r7, #16]
 8000860:	60da      	str	r2, [r3, #12]

      /* In case of Alternate function mode selection */
      if((GPIO_Init->Mode == GPIO_MODE_AF_PP) || (GPIO_Init->Mode == GPIO_MODE_AF_OD))
 8000862:	683b      	ldr	r3, [r7, #0]
 8000864:	685b      	ldr	r3, [r3, #4]
 8000866:	2b02      	cmp	r3, #2
 8000868:	d003      	beq.n	8000872 <HAL_GPIO_Init+0xea>
 800086a:	683b      	ldr	r3, [r7, #0]
 800086c:	685b      	ldr	r3, [r3, #4]
 800086e:	2b12      	cmp	r3, #18
 8000870:	d123      	bne.n	80008ba <HAL_GPIO_Init+0x132>
        /* Check the Alternate function parameters */
        assert_param(IS_GPIO_AF_INSTANCE(GPIOx));
        assert_param(IS_GPIO_AF(GPIO_Init->Alternate));

        /* Configure Alternate function mapped with the current IO */
        temp = GPIOx->AFR[position >> 3u];
 8000872:	697b      	ldr	r3, [r7, #20]
 8000874:	08da      	lsrs	r2, r3, #3
 8000876:	687b      	ldr	r3, [r7, #4]
 8000878:	3208      	adds	r2, #8
 800087a:	0092      	lsls	r2, r2, #2
 800087c:	58d3      	ldr	r3, [r2, r3]
 800087e:	613b      	str	r3, [r7, #16]
        temp &= ~(0xFu << ((position & 0x07u) * 4u));
 8000880:	697b      	ldr	r3, [r7, #20]
 8000882:	2207      	movs	r2, #7
 8000884:	4013      	ands	r3, r2
 8000886:	009b      	lsls	r3, r3, #2
 8000888:	220f      	movs	r2, #15
 800088a:	409a      	lsls	r2, r3
 800088c:	0013      	movs	r3, r2
 800088e:	43da      	mvns	r2, r3
 8000890:	693b      	ldr	r3, [r7, #16]
 8000892:	4013      	ands	r3, r2
 8000894:	613b      	str	r3, [r7, #16]
        temp |= ((GPIO_Init->Alternate) << ((position & 0x07u) * 4u));
 8000896:	683b      	ldr	r3, [r7, #0]
 8000898:	691a      	ldr	r2, [r3, #16]
 800089a:	697b      	ldr	r3, [r7, #20]
 800089c:	2107      	movs	r1, #7
 800089e:	400b      	ands	r3, r1
 80008a0:	009b      	lsls	r3, r3, #2
 80008a2:	409a      	lsls	r2, r3
 80008a4:	0013      	movs	r3, r2
 80008a6:	693a      	ldr	r2, [r7, #16]
 80008a8:	4313      	orrs	r3, r2
 80008aa:	613b      	str	r3, [r7, #16]
        GPIOx->AFR[position >> 3u] = temp;
 80008ac:	697b      	ldr	r3, [r7, #20]
 80008ae:	08da      	lsrs	r2, r3, #3
 80008b0:	687b      	ldr	r3, [r7, #4]
 80008b2:	3208      	adds	r2, #8
 80008b4:	0092      	lsls	r2, r2, #2
 80008b6:	6939      	ldr	r1, [r7, #16]
 80008b8:	50d1      	str	r1, [r2, r3]
      }

      /* Configure IO Direction mode (Input, Output, Alternate or Analog) */
      temp = GPIOx->MODER;
 80008ba:	687b      	ldr	r3, [r7, #4]
 80008bc:	681b      	ldr	r3, [r3, #0]
 80008be:	613b      	str	r3, [r7, #16]
      temp &= ~(GPIO_MODER_MODER0 << (position * 2u));
 80008c0:	697b      	ldr	r3, [r7, #20]
 80008c2:	005b      	lsls	r3, r3, #1
 80008c4:	2203      	movs	r2, #3
 80008c6:	409a      	lsls	r2, r3
 80008c8:	0013      	movs	r3, r2
 80008ca:	43da      	mvns	r2, r3
 80008cc:	693b      	ldr	r3, [r7, #16]
 80008ce:	4013      	ands	r3, r2
 80008d0:	613b      	str	r3, [r7, #16]
      temp |= ((GPIO_Init->Mode & GPIO_MODE) << (position * 2u));
 80008d2:	683b      	ldr	r3, [r7, #0]
 80008d4:	685b      	ldr	r3, [r3, #4]
 80008d6:	2203      	movs	r2, #3
 80008d8:	401a      	ands	r2, r3
 80008da:	697b      	ldr	r3, [r7, #20]
 80008dc:	005b      	lsls	r3, r3, #1
 80008de:	409a      	lsls	r2, r3
 80008e0:	0013      	movs	r3, r2
 80008e2:	693a      	ldr	r2, [r7, #16]
 80008e4:	4313      	orrs	r3, r2
 80008e6:	613b      	str	r3, [r7, #16]
      GPIOx->MODER = temp;
 80008e8:	687b      	ldr	r3, [r7, #4]
 80008ea:	693a      	ldr	r2, [r7, #16]
 80008ec:	601a      	str	r2, [r3, #0]

      /*--------------------- EXTI Mode Configuration ------------------------*/
      /* Configure the External Interrupt or event for the current IO */
      if((GPIO_Init->Mode & EXTI_MODE) == EXTI_MODE)
 80008ee:	683b      	ldr	r3, [r7, #0]
 80008f0:	685a      	ldr	r2, [r3, #4]
 80008f2:	2380      	movs	r3, #128	; 0x80
 80008f4:	055b      	lsls	r3, r3, #21
 80008f6:	4013      	ands	r3, r2
 80008f8:	d100      	bne.n	80008fc <HAL_GPIO_Init+0x174>
 80008fa:	e09a      	b.n	8000a32 <HAL_GPIO_Init+0x2aa>
      {
        /* Enable SYSCFG Clock */
        __HAL_RCC_SYSCFG_CLK_ENABLE();
 80008fc:	4b54      	ldr	r3, [pc, #336]	; (8000a50 <HAL_GPIO_Init+0x2c8>)
 80008fe:	699a      	ldr	r2, [r3, #24]
 8000900:	4b53      	ldr	r3, [pc, #332]	; (8000a50 <HAL_GPIO_Init+0x2c8>)
 8000902:	2101      	movs	r1, #1
 8000904:	430a      	orrs	r2, r1
 8000906:	619a      	str	r2, [r3, #24]
 8000908:	4b51      	ldr	r3, [pc, #324]	; (8000a50 <HAL_GPIO_Init+0x2c8>)
 800090a:	699b      	ldr	r3, [r3, #24]
 800090c:	2201      	movs	r2, #1
 800090e:	4013      	ands	r3, r2
 8000910:	60bb      	str	r3, [r7, #8]
 8000912:	68bb      	ldr	r3, [r7, #8]

        temp = SYSCFG->EXTICR[position >> 2u];
 8000914:	4a4f      	ldr	r2, [pc, #316]	; (8000a54 <HAL_GPIO_Init+0x2cc>)
 8000916:	697b      	ldr	r3, [r7, #20]
 8000918:	089b      	lsrs	r3, r3, #2
 800091a:	3302      	adds	r3, #2
 800091c:	009b      	lsls	r3, r3, #2
 800091e:	589b      	ldr	r3, [r3, r2]
 8000920:	613b      	str	r3, [r7, #16]
        temp &= ~(0x0FuL << (4u * (position & 0x03u)));
 8000922:	697b      	ldr	r3, [r7, #20]
 8000924:	2203      	movs	r2, #3
 8000926:	4013      	ands	r3, r2
 8000928:	009b      	lsls	r3, r3, #2
 800092a:	220f      	movs	r2, #15
 800092c:	409a      	lsls	r2, r3
 800092e:	0013      	movs	r3, r2
 8000930:	43da      	mvns	r2, r3
 8000932:	693b      	ldr	r3, [r7, #16]
 8000934:	4013      	ands	r3, r2
 8000936:	613b      	str	r3, [r7, #16]
        temp |= (GPIO_GET_INDEX(GPIOx) << (4u * (position & 0x03u)));
 8000938:	687a      	ldr	r2, [r7, #4]
 800093a:	2390      	movs	r3, #144	; 0x90
 800093c:	05db      	lsls	r3, r3, #23
 800093e:	429a      	cmp	r2, r3
 8000940:	d013      	beq.n	800096a <HAL_GPIO_Init+0x1e2>
 8000942:	687b      	ldr	r3, [r7, #4]
 8000944:	4a44      	ldr	r2, [pc, #272]	; (8000a58 <HAL_GPIO_Init+0x2d0>)
 8000946:	4293      	cmp	r3, r2
 8000948:	d00d      	beq.n	8000966 <HAL_GPIO_Init+0x1de>
 800094a:	687b      	ldr	r3, [r7, #4]
 800094c:	4a43      	ldr	r2, [pc, #268]	; (8000a5c <HAL_GPIO_Init+0x2d4>)
 800094e:	4293      	cmp	r3, r2
 8000950:	d007      	beq.n	8000962 <HAL_GPIO_Init+0x1da>
 8000952:	687b      	ldr	r3, [r7, #4]
 8000954:	4a42      	ldr	r2, [pc, #264]	; (8000a60 <HAL_GPIO_Init+0x2d8>)
 8000956:	4293      	cmp	r3, r2
 8000958:	d101      	bne.n	800095e <HAL_GPIO_Init+0x1d6>
 800095a:	2303      	movs	r3, #3
 800095c:	e006      	b.n	800096c <HAL_GPIO_Init+0x1e4>
 800095e:	2305      	movs	r3, #5
 8000960:	e004      	b.n	800096c <HAL_GPIO_Init+0x1e4>
 8000962:	2302      	movs	r3, #2
 8000964:	e002      	b.n	800096c <HAL_GPIO_Init+0x1e4>
 8000966:	2301      	movs	r3, #1
 8000968:	e000      	b.n	800096c <HAL_GPIO_Init+0x1e4>
 800096a:	2300      	movs	r3, #0
 800096c:	697a      	ldr	r2, [r7, #20]
 800096e:	2103      	movs	r1, #3
 8000970:	400a      	ands	r2, r1
 8000972:	0092      	lsls	r2, r2, #2
 8000974:	4093      	lsls	r3, r2
 8000976:	693a      	ldr	r2, [r7, #16]
 8000978:	4313      	orrs	r3, r2
 800097a:	613b      	str	r3, [r7, #16]
        SYSCFG->EXTICR[position >> 2u] = temp;
 800097c:	4935      	ldr	r1, [pc, #212]	; (8000a54 <HAL_GPIO_Init+0x2cc>)
 800097e:	697b      	ldr	r3, [r7, #20]
 8000980:	089b      	lsrs	r3, r3, #2
 8000982:	3302      	adds	r3, #2
 8000984:	009b      	lsls	r3, r3, #2
 8000986:	693a      	ldr	r2, [r7, #16]
 8000988:	505a      	str	r2, [r3, r1]

        /* Clear EXTI line configuration */
        temp = EXTI->IMR;
 800098a:	4b36      	ldr	r3, [pc, #216]	; (8000a64 <HAL_GPIO_Init+0x2dc>)
 800098c:	681b      	ldr	r3, [r3, #0]
 800098e:	613b      	str	r3, [r7, #16]
        temp &= ~(iocurrent);
 8000990:	68fb      	ldr	r3, [r7, #12]
 8000992:	43da      	mvns	r2, r3
 8000994:	693b      	ldr	r3, [r7, #16]
 8000996:	4013      	ands	r3, r2
 8000998:	613b      	str	r3, [r7, #16]
        if((GPIO_Init->Mode & GPIO_MODE_IT) == GPIO_MODE_IT)
 800099a:	683b      	ldr	r3, [r7, #0]
 800099c:	685a      	ldr	r2, [r3, #4]
 800099e:	2380      	movs	r3, #128	; 0x80
 80009a0:	025b      	lsls	r3, r3, #9
 80009a2:	4013      	ands	r3, r2
 80009a4:	d003      	beq.n	80009ae <HAL_GPIO_Init+0x226>
        {
          temp |= iocurrent;
 80009a6:	693a      	ldr	r2, [r7, #16]
 80009a8:	68fb      	ldr	r3, [r7, #12]
 80009aa:	4313      	orrs	r3, r2
 80009ac:	613b      	str	r3, [r7, #16]
        }
        EXTI->IMR = temp;
 80009ae:	4b2d      	ldr	r3, [pc, #180]	; (8000a64 <HAL_GPIO_Init+0x2dc>)
 80009b0:	693a      	ldr	r2, [r7, #16]
 80009b2:	601a      	str	r2, [r3, #0]

        temp = EXTI->EMR;
 80009b4:	4b2b      	ldr	r3, [pc, #172]	; (8000a64 <HAL_GPIO_Init+0x2dc>)
 80009b6:	685b      	ldr	r3, [r3, #4]
 80009b8:	613b      	str	r3, [r7, #16]
        temp &= ~(iocurrent);
 80009ba:	68fb      	ldr	r3, [r7, #12]
 80009bc:	43da      	mvns	r2, r3
 80009be:	693b      	ldr	r3, [r7, #16]
 80009c0:	4013      	ands	r3, r2
 80009c2:	613b      	str	r3, [r7, #16]
        if((GPIO_Init->Mode & GPIO_MODE_EVT) == GPIO_MODE_EVT)
 80009c4:	683b      	ldr	r3, [r7, #0]
 80009c6:	685a      	ldr	r2, [r3, #4]
 80009c8:	2380      	movs	r3, #128	; 0x80
 80009ca:	029b      	lsls	r3, r3, #10
 80009cc:	4013      	ands	r3, r2
 80009ce:	d003      	beq.n	80009d8 <HAL_GPIO_Init+0x250>
        {
          temp |= iocurrent;
 80009d0:	693a      	ldr	r2, [r7, #16]
 80009d2:	68fb      	ldr	r3, [r7, #12]
 80009d4:	4313      	orrs	r3, r2
 80009d6:	613b      	str	r3, [r7, #16]
        }
        EXTI->EMR = temp;
 80009d8:	4b22      	ldr	r3, [pc, #136]	; (8000a64 <HAL_GPIO_Init+0x2dc>)
 80009da:	693a      	ldr	r2, [r7, #16]
 80009dc:	605a      	str	r2, [r3, #4]

        /* Clear Rising Falling edge configuration */
        temp = EXTI->RTSR;
 80009de:	4b21      	ldr	r3, [pc, #132]	; (8000a64 <HAL_GPIO_Init+0x2dc>)
 80009e0:	689b      	ldr	r3, [r3, #8]
 80009e2:	613b      	str	r3, [r7, #16]
        temp &= ~(iocurrent);
 80009e4:	68fb      	ldr	r3, [r7, #12]
 80009e6:	43da      	mvns	r2, r3
 80009e8:	693b      	ldr	r3, [r7, #16]
 80009ea:	4013      	ands	r3, r2
 80009ec:	613b      	str	r3, [r7, #16]
        if((GPIO_Init->Mode & RISING_EDGE) == RISING_EDGE)
 80009ee:	683b      	ldr	r3, [r7, #0]
 80009f0:	685a      	ldr	r2, [r3, #4]
 80009f2:	2380      	movs	r3, #128	; 0x80
 80009f4:	035b      	lsls	r3, r3, #13
 80009f6:	4013      	ands	r3, r2
 80009f8:	d003      	beq.n	8000a02 <HAL_GPIO_Init+0x27a>
        {
          temp |= iocurrent;
 80009fa:	693a      	ldr	r2, [r7, #16]
 80009fc:	68fb      	ldr	r3, [r7, #12]
 80009fe:	4313      	orrs	r3, r2
 8000a00:	613b      	str	r3, [r7, #16]
        }
        EXTI->RTSR = temp;
 8000a02:	4b18      	ldr	r3, [pc, #96]	; (8000a64 <HAL_GPIO_Init+0x2dc>)
 8000a04:	693a      	ldr	r2, [r7, #16]
 8000a06:	609a      	str	r2, [r3, #8]

        temp = EXTI->FTSR;
 8000a08:	4b16      	ldr	r3, [pc, #88]	; (8000a64 <HAL_GPIO_Init+0x2dc>)
 8000a0a:	68db      	ldr	r3, [r3, #12]
 8000a0c:	613b      	str	r3, [r7, #16]
        temp &= ~(iocurrent);
 8000a0e:	68fb      	ldr	r3, [r7, #12]
 8000a10:	43da      	mvns	r2, r3
 8000a12:	693b      	ldr	r3, [r7, #16]
 8000a14:	4013      	ands	r3, r2
 8000a16:	613b      	str	r3, [r7, #16]
        if((GPIO_Init->Mode & FALLING_EDGE) == FALLING_EDGE)
 8000a18:	683b      	ldr	r3, [r7, #0]
 8000a1a:	685a      	ldr	r2, [r3, #4]
 8000a1c:	2380      	movs	r3, #128	; 0x80
 8000a1e:	039b      	lsls	r3, r3, #14
 8000a20:	4013      	ands	r3, r2
 8000a22:	d003      	beq.n	8000a2c <HAL_GPIO_Init+0x2a4>
        {
          temp |= iocurrent;
 8000a24:	693a      	ldr	r2, [r7, #16]
 8000a26:	68fb      	ldr	r3, [r7, #12]
 8000a28:	4313      	orrs	r3, r2
 8000a2a:	613b      	str	r3, [r7, #16]
        }
        EXTI->FTSR = temp;
 8000a2c:	4b0d      	ldr	r3, [pc, #52]	; (8000a64 <HAL_GPIO_Init+0x2dc>)
 8000a2e:	693a      	ldr	r2, [r7, #16]
 8000a30:	60da      	str	r2, [r3, #12]
      }
    }

    position++;
 8000a32:	697b      	ldr	r3, [r7, #20]
 8000a34:	3301      	adds	r3, #1
 8000a36:	617b      	str	r3, [r7, #20]
  while (((GPIO_Init->Pin) >> position) != 0x00u)
 8000a38:	683b      	ldr	r3, [r7, #0]
 8000a3a:	681a      	ldr	r2, [r3, #0]
 8000a3c:	697b      	ldr	r3, [r7, #20]
 8000a3e:	40da      	lsrs	r2, r3
 8000a40:	1e13      	subs	r3, r2, #0
 8000a42:	d000      	beq.n	8000a46 <HAL_GPIO_Init+0x2be>
 8000a44:	e6a8      	b.n	8000798 <HAL_GPIO_Init+0x10>
  } 
}
 8000a46:	46c0      	nop			; (mov r8, r8)
 8000a48:	46bd      	mov	sp, r7
 8000a4a:	b006      	add	sp, #24
 8000a4c:	bd80      	pop	{r7, pc}
 8000a4e:	46c0      	nop			; (mov r8, r8)
 8000a50:	40021000 	.word	0x40021000
 8000a54:	40010000 	.word	0x40010000
 8000a58:	48000400 	.word	0x48000400
 8000a5c:	48000800 	.word	0x48000800
 8000a60:	48000c00 	.word	0x48000c00
 8000a64:	40010400 	.word	0x40010400

08000a68 <HAL_GPIO_WritePin>:
  *            @arg GPIO_PIN_RESET: to clear the port pin
  *            @arg GPIO_PIN_SET: to set the port pin
  * @retval None
  */
void HAL_GPIO_WritePin(GPIO_TypeDef* GPIOx, uint16_t GPIO_Pin, GPIO_PinState PinState)
{
 8000a68:	b580      	push	{r7, lr}
 8000a6a:	b082      	sub	sp, #8
 8000a6c:	af00      	add	r7, sp, #0
 8000a6e:	6078      	str	r0, [r7, #4]
 8000a70:	0008      	movs	r0, r1
 8000a72:	0011      	movs	r1, r2
 8000a74:	1cbb      	adds	r3, r7, #2
 8000a76:	1c02      	adds	r2, r0, #0
 8000a78:	801a      	strh	r2, [r3, #0]
 8000a7a:	1c7b      	adds	r3, r7, #1
 8000a7c:	1c0a      	adds	r2, r1, #0
 8000a7e:	701a      	strb	r2, [r3, #0]
  /* Check the parameters */
  assert_param(IS_GPIO_PIN(GPIO_Pin));
  assert_param(IS_GPIO_PIN_ACTION(PinState));

  if (PinState != GPIO_PIN_RESET)
 8000a80:	1c7b      	adds	r3, r7, #1
 8000a82:	781b      	ldrb	r3, [r3, #0]
 8000a84:	2b00      	cmp	r3, #0
 8000a86:	d004      	beq.n	8000a92 <HAL_GPIO_WritePin+0x2a>
  {
    GPIOx->BSRR = (uint32_t)GPIO_Pin;
 8000a88:	1cbb      	adds	r3, r7, #2
 8000a8a:	881a      	ldrh	r2, [r3, #0]
 8000a8c:	687b      	ldr	r3, [r7, #4]
 8000a8e:	619a      	str	r2, [r3, #24]
  }
  else
  {
    GPIOx->BRR = (uint32_t)GPIO_Pin;
  }
}
 8000a90:	e003      	b.n	8000a9a <HAL_GPIO_WritePin+0x32>
    GPIOx->BRR = (uint32_t)GPIO_Pin;
 8000a92:	1cbb      	adds	r3, r7, #2
 8000a94:	881a      	ldrh	r2, [r3, #0]
 8000a96:	687b      	ldr	r3, [r7, #4]
 8000a98:	629a      	str	r2, [r3, #40]	; 0x28
}
 8000a9a:	46c0      	nop			; (mov r8, r8)
 8000a9c:	46bd      	mov	sp, r7
 8000a9e:	b002      	add	sp, #8
 8000aa0:	bd80      	pop	{r7, pc}
	...

08000aa4 <HAL_RCC_OscConfig>:
  *         supported by this macro. User should request a transition to HSE Off
  *         first and then HSE On or HSE Bypass.
  * @retval HAL status
  */
HAL_StatusTypeDef HAL_RCC_OscConfig(RCC_OscInitTypeDef  *RCC_OscInitStruct)
{
 8000aa4:	b580      	push	{r7, lr}
 8000aa6:	b088      	sub	sp, #32
 8000aa8:	af00      	add	r7, sp, #0
 8000aaa:	6078      	str	r0, [r7, #4]
  uint32_t tickstart;
  uint32_t pll_config;
  uint32_t pll_config2;

  /* Check Null pointer */
  if(RCC_OscInitStruct == NULL)
 8000aac:	687b      	ldr	r3, [r7, #4]
 8000aae:	2b00      	cmp	r3, #0
 8000ab0:	d101      	bne.n	8000ab6 <HAL_RCC_OscConfig+0x12>
  {
    return HAL_ERROR;
 8000ab2:	2301      	movs	r3, #1
 8000ab4:	e303      	b.n	80010be <HAL_RCC_OscConfig+0x61a>

  /* Check the parameters */
  assert_param(IS_RCC_OSCILLATORTYPE(RCC_OscInitStruct->OscillatorType));

  /*------------------------------- HSE Configuration ------------------------*/ 
  if(((RCC_OscInitStruct->OscillatorType) & RCC_OSCILLATORTYPE_HSE) == RCC_OSCILLATORTYPE_HSE)
 8000ab6:	687b      	ldr	r3, [r7, #4]
 8000ab8:	681b      	ldr	r3, [r3, #0]
 8000aba:	2201      	movs	r2, #1
 8000abc:	4013      	ands	r3, r2
 8000abe:	d100      	bne.n	8000ac2 <HAL_RCC_OscConfig+0x1e>
 8000ac0:	e08d      	b.n	8000bde <HAL_RCC_OscConfig+0x13a>
  {
    /* Check the parameters */
    assert_param(IS_RCC_HSE(RCC_OscInitStruct->HSEState));

    /* When the HSE is used as system clock or clock source for PLL in these cases it is not allowed to be disabled */
    if((__HAL_RCC_GET_SYSCLK_SOURCE() == RCC_SYSCLKSOURCE_STATUS_HSE) 
 8000ac2:	4bc4      	ldr	r3, [pc, #784]	; (8000dd4 <HAL_RCC_OscConfig+0x330>)
 8000ac4:	685b      	ldr	r3, [r3, #4]
 8000ac6:	220c      	movs	r2, #12
 8000ac8:	4013      	ands	r3, r2
 8000aca:	2b04      	cmp	r3, #4
 8000acc:	d00e      	beq.n	8000aec <HAL_RCC_OscConfig+0x48>
       || ((__HAL_RCC_GET_SYSCLK_SOURCE() == RCC_SYSCLKSOURCE_STATUS_PLLCLK) && (__HAL_RCC_GET_PLL_OSCSOURCE() == RCC_PLLSOURCE_HSE)))
 8000ace:	4bc1      	ldr	r3, [pc, #772]	; (8000dd4 <HAL_RCC_OscConfig+0x330>)
 8000ad0:	685b      	ldr	r3, [r3, #4]
 8000ad2:	220c      	movs	r2, #12
 8000ad4:	4013      	ands	r3, r2
 8000ad6:	2b08      	cmp	r3, #8
 8000ad8:	d116      	bne.n	8000b08 <HAL_RCC_OscConfig+0x64>
 8000ada:	4bbe      	ldr	r3, [pc, #760]	; (8000dd4 <HAL_RCC_OscConfig+0x330>)
 8000adc:	685a      	ldr	r2, [r3, #4]
 8000ade:	2380      	movs	r3, #128	; 0x80
 8000ae0:	025b      	lsls	r3, r3, #9
 8000ae2:	401a      	ands	r2, r3
 8000ae4:	2380      	movs	r3, #128	; 0x80
 8000ae6:	025b      	lsls	r3, r3, #9
 8000ae8:	429a      	cmp	r2, r3
 8000aea:	d10d      	bne.n	8000b08 <HAL_RCC_OscConfig+0x64>
    {
      if((__HAL_RCC_GET_FLAG(RCC_FLAG_HSERDY) != RESET) && (RCC_OscInitStruct->HSEState == RCC_HSE_OFF))
 8000aec:	4bb9      	ldr	r3, [pc, #740]	; (8000dd4 <HAL_RCC_OscConfig+0x330>)
 8000aee:	681a      	ldr	r2, [r3, #0]
 8000af0:	2380      	movs	r3, #128	; 0x80
 8000af2:	029b      	lsls	r3, r3, #10
 8000af4:	4013      	ands	r3, r2
 8000af6:	d100      	bne.n	8000afa <HAL_RCC_OscConfig+0x56>
 8000af8:	e070      	b.n	8000bdc <HAL_RCC_OscConfig+0x138>
 8000afa:	687b      	ldr	r3, [r7, #4]
 8000afc:	685b      	ldr	r3, [r3, #4]
 8000afe:	2b00      	cmp	r3, #0
 8000b00:	d000      	beq.n	8000b04 <HAL_RCC_OscConfig+0x60>
 8000b02:	e06b      	b.n	8000bdc <HAL_RCC_OscConfig+0x138>
      {
        return HAL_ERROR;
 8000b04:	2301      	movs	r3, #1
 8000b06:	e2da      	b.n	80010be <HAL_RCC_OscConfig+0x61a>
      }
    }
    else
    {
      /* Set the new HSE configuration ---------------------------------------*/
      __HAL_RCC_HSE_CONFIG(RCC_OscInitStruct->HSEState);
 8000b08:	687b      	ldr	r3, [r7, #4]
 8000b0a:	685b      	ldr	r3, [r3, #4]
 8000b0c:	2b01      	cmp	r3, #1
 8000b0e:	d107      	bne.n	8000b20 <HAL_RCC_OscConfig+0x7c>
 8000b10:	4bb0      	ldr	r3, [pc, #704]	; (8000dd4 <HAL_RCC_OscConfig+0x330>)
 8000b12:	681a      	ldr	r2, [r3, #0]
 8000b14:	4baf      	ldr	r3, [pc, #700]	; (8000dd4 <HAL_RCC_OscConfig+0x330>)
 8000b16:	2180      	movs	r1, #128	; 0x80
 8000b18:	0249      	lsls	r1, r1, #9
 8000b1a:	430a      	orrs	r2, r1
 8000b1c:	601a      	str	r2, [r3, #0]
 8000b1e:	e02f      	b.n	8000b80 <HAL_RCC_OscConfig+0xdc>
 8000b20:	687b      	ldr	r3, [r7, #4]
 8000b22:	685b      	ldr	r3, [r3, #4]
 8000b24:	2b00      	cmp	r3, #0
 8000b26:	d10c      	bne.n	8000b42 <HAL_RCC_OscConfig+0x9e>
 8000b28:	4baa      	ldr	r3, [pc, #680]	; (8000dd4 <HAL_RCC_OscConfig+0x330>)
 8000b2a:	681a      	ldr	r2, [r3, #0]
 8000b2c:	4ba9      	ldr	r3, [pc, #676]	; (8000dd4 <HAL_RCC_OscConfig+0x330>)
 8000b2e:	49aa      	ldr	r1, [pc, #680]	; (8000dd8 <HAL_RCC_OscConfig+0x334>)
 8000b30:	400a      	ands	r2, r1
 8000b32:	601a      	str	r2, [r3, #0]
 8000b34:	4ba7      	ldr	r3, [pc, #668]	; (8000dd4 <HAL_RCC_OscConfig+0x330>)
 8000b36:	681a      	ldr	r2, [r3, #0]
 8000b38:	4ba6      	ldr	r3, [pc, #664]	; (8000dd4 <HAL_RCC_OscConfig+0x330>)
 8000b3a:	49a8      	ldr	r1, [pc, #672]	; (8000ddc <HAL_RCC_OscConfig+0x338>)
 8000b3c:	400a      	ands	r2, r1
 8000b3e:	601a      	str	r2, [r3, #0]
 8000b40:	e01e      	b.n	8000b80 <HAL_RCC_OscConfig+0xdc>
 8000b42:	687b      	ldr	r3, [r7, #4]
 8000b44:	685b      	ldr	r3, [r3, #4]
 8000b46:	2b05      	cmp	r3, #5
 8000b48:	d10e      	bne.n	8000b68 <HAL_RCC_OscConfig+0xc4>
 8000b4a:	4ba2      	ldr	r3, [pc, #648]	; (8000dd4 <HAL_RCC_OscConfig+0x330>)
 8000b4c:	681a      	ldr	r2, [r3, #0]
 8000b4e:	4ba1      	ldr	r3, [pc, #644]	; (8000dd4 <HAL_RCC_OscConfig+0x330>)
 8000b50:	2180      	movs	r1, #128	; 0x80
 8000b52:	02c9      	lsls	r1, r1, #11
 8000b54:	430a      	orrs	r2, r1
 8000b56:	601a      	str	r2, [r3, #0]
 8000b58:	4b9e      	ldr	r3, [pc, #632]	; (8000dd4 <HAL_RCC_OscConfig+0x330>)
 8000b5a:	681a      	ldr	r2, [r3, #0]
 8000b5c:	4b9d      	ldr	r3, [pc, #628]	; (8000dd4 <HAL_RCC_OscConfig+0x330>)
 8000b5e:	2180      	movs	r1, #128	; 0x80
 8000b60:	0249      	lsls	r1, r1, #9
 8000b62:	430a      	orrs	r2, r1
 8000b64:	601a      	str	r2, [r3, #0]
 8000b66:	e00b      	b.n	8000b80 <HAL_RCC_OscConfig+0xdc>
 8000b68:	4b9a      	ldr	r3, [pc, #616]	; (8000dd4 <HAL_RCC_OscConfig+0x330>)
 8000b6a:	681a      	ldr	r2, [r3, #0]
 8000b6c:	4b99      	ldr	r3, [pc, #612]	; (8000dd4 <HAL_RCC_OscConfig+0x330>)
 8000b6e:	499a      	ldr	r1, [pc, #616]	; (8000dd8 <HAL_RCC_OscConfig+0x334>)
 8000b70:	400a      	ands	r2, r1
 8000b72:	601a      	str	r2, [r3, #0]
 8000b74:	4b97      	ldr	r3, [pc, #604]	; (8000dd4 <HAL_RCC_OscConfig+0x330>)
 8000b76:	681a      	ldr	r2, [r3, #0]
 8000b78:	4b96      	ldr	r3, [pc, #600]	; (8000dd4 <HAL_RCC_OscConfig+0x330>)
 8000b7a:	4998      	ldr	r1, [pc, #608]	; (8000ddc <HAL_RCC_OscConfig+0x338>)
 8000b7c:	400a      	ands	r2, r1
 8000b7e:	601a      	str	r2, [r3, #0]
      

       /* Check the HSE State */
      if(RCC_OscInitStruct->HSEState != RCC_HSE_OFF)
 8000b80:	687b      	ldr	r3, [r7, #4]
 8000b82:	685b      	ldr	r3, [r3, #4]
 8000b84:	2b00      	cmp	r3, #0
 8000b86:	d014      	beq.n	8000bb2 <HAL_RCC_OscConfig+0x10e>
      {
        /* Get Start Tick */
        tickstart = HAL_GetTick();
 8000b88:	f7ff fd40 	bl	800060c <HAL_GetTick>
 8000b8c:	0003      	movs	r3, r0
 8000b8e:	61bb      	str	r3, [r7, #24]
        
        /* Wait till HSE is ready */
        while(__HAL_RCC_GET_FLAG(RCC_FLAG_HSERDY) == RESET)
 8000b90:	e008      	b.n	8000ba4 <HAL_RCC_OscConfig+0x100>
        {
          if((HAL_GetTick() - tickstart ) > HSE_TIMEOUT_VALUE)
 8000b92:	f7ff fd3b 	bl	800060c <HAL_GetTick>
 8000b96:	0002      	movs	r2, r0
 8000b98:	69bb      	ldr	r3, [r7, #24]
 8000b9a:	1ad3      	subs	r3, r2, r3
 8000b9c:	2b64      	cmp	r3, #100	; 0x64
 8000b9e:	d901      	bls.n	8000ba4 <HAL_RCC_OscConfig+0x100>
          {
            return HAL_TIMEOUT;
 8000ba0:	2303      	movs	r3, #3
 8000ba2:	e28c      	b.n	80010be <HAL_RCC_OscConfig+0x61a>
        while(__HAL_RCC_GET_FLAG(RCC_FLAG_HSERDY) == RESET)
 8000ba4:	4b8b      	ldr	r3, [pc, #556]	; (8000dd4 <HAL_RCC_OscConfig+0x330>)
 8000ba6:	681a      	ldr	r2, [r3, #0]
 8000ba8:	2380      	movs	r3, #128	; 0x80
 8000baa:	029b      	lsls	r3, r3, #10
 8000bac:	4013      	ands	r3, r2
 8000bae:	d0f0      	beq.n	8000b92 <HAL_RCC_OscConfig+0xee>
 8000bb0:	e015      	b.n	8000bde <HAL_RCC_OscConfig+0x13a>
        }
      }
      else
      {
        /* Get Start Tick */
        tickstart = HAL_GetTick();
 8000bb2:	f7ff fd2b 	bl	800060c <HAL_GetTick>
 8000bb6:	0003      	movs	r3, r0
 8000bb8:	61bb      	str	r3, [r7, #24]
        
        /* Wait till HSE is disabled */
        while(__HAL_RCC_GET_FLAG(RCC_FLAG_HSERDY) != RESET)
 8000bba:	e008      	b.n	8000bce <HAL_RCC_OscConfig+0x12a>
        {
           if((HAL_GetTick() - tickstart ) > HSE_TIMEOUT_VALUE)
 8000bbc:	f7ff fd26 	bl	800060c <HAL_GetTick>
 8000bc0:	0002      	movs	r2, r0
 8000bc2:	69bb      	ldr	r3, [r7, #24]
 8000bc4:	1ad3      	subs	r3, r2, r3
 8000bc6:	2b64      	cmp	r3, #100	; 0x64
 8000bc8:	d901      	bls.n	8000bce <HAL_RCC_OscConfig+0x12a>
          {
            return HAL_TIMEOUT;
 8000bca:	2303      	movs	r3, #3
 8000bcc:	e277      	b.n	80010be <HAL_RCC_OscConfig+0x61a>
        while(__HAL_RCC_GET_FLAG(RCC_FLAG_HSERDY) != RESET)
 8000bce:	4b81      	ldr	r3, [pc, #516]	; (8000dd4 <HAL_RCC_OscConfig+0x330>)
 8000bd0:	681a      	ldr	r2, [r3, #0]
 8000bd2:	2380      	movs	r3, #128	; 0x80
 8000bd4:	029b      	lsls	r3, r3, #10
 8000bd6:	4013      	ands	r3, r2
 8000bd8:	d1f0      	bne.n	8000bbc <HAL_RCC_OscConfig+0x118>
 8000bda:	e000      	b.n	8000bde <HAL_RCC_OscConfig+0x13a>
      if((__HAL_RCC_GET_FLAG(RCC_FLAG_HSERDY) != RESET) && (RCC_OscInitStruct->HSEState == RCC_HSE_OFF))
 8000bdc:	46c0      	nop			; (mov r8, r8)
        }
      }
    }
  }
  /*----------------------------- HSI Configuration --------------------------*/ 
  if(((RCC_OscInitStruct->OscillatorType) & RCC_OSCILLATORTYPE_HSI) == RCC_OSCILLATORTYPE_HSI)
 8000bde:	687b      	ldr	r3, [r7, #4]
 8000be0:	681b      	ldr	r3, [r3, #0]
 8000be2:	2202      	movs	r2, #2
 8000be4:	4013      	ands	r3, r2
 8000be6:	d100      	bne.n	8000bea <HAL_RCC_OscConfig+0x146>
 8000be8:	e069      	b.n	8000cbe <HAL_RCC_OscConfig+0x21a>
    /* Check the parameters */
    assert_param(IS_RCC_HSI(RCC_OscInitStruct->HSIState));
    assert_param(IS_RCC_CALIBRATION_VALUE(RCC_OscInitStruct->HSICalibrationValue));
    
    /* Check if HSI is used as system clock or as PLL source when PLL is selected as system clock */ 
    if((__HAL_RCC_GET_SYSCLK_SOURCE() == RCC_SYSCLKSOURCE_STATUS_HSI) 
 8000bea:	4b7a      	ldr	r3, [pc, #488]	; (8000dd4 <HAL_RCC_OscConfig+0x330>)
 8000bec:	685b      	ldr	r3, [r3, #4]
 8000bee:	220c      	movs	r2, #12
 8000bf0:	4013      	ands	r3, r2
 8000bf2:	d00b      	beq.n	8000c0c <HAL_RCC_OscConfig+0x168>
       || ((__HAL_RCC_GET_SYSCLK_SOURCE() == RCC_SYSCLKSOURCE_STATUS_PLLCLK) && (__HAL_RCC_GET_PLL_OSCSOURCE() == RCC_PLLSOURCE_HSI)))
 8000bf4:	4b77      	ldr	r3, [pc, #476]	; (8000dd4 <HAL_RCC_OscConfig+0x330>)
 8000bf6:	685b      	ldr	r3, [r3, #4]
 8000bf8:	220c      	movs	r2, #12
 8000bfa:	4013      	ands	r3, r2
 8000bfc:	2b08      	cmp	r3, #8
 8000bfe:	d11c      	bne.n	8000c3a <HAL_RCC_OscConfig+0x196>
 8000c00:	4b74      	ldr	r3, [pc, #464]	; (8000dd4 <HAL_RCC_OscConfig+0x330>)
 8000c02:	685a      	ldr	r2, [r3, #4]
 8000c04:	2380      	movs	r3, #128	; 0x80
 8000c06:	025b      	lsls	r3, r3, #9
 8000c08:	4013      	ands	r3, r2
 8000c0a:	d116      	bne.n	8000c3a <HAL_RCC_OscConfig+0x196>
    {
      /* When HSI is used as system clock it will not disabled */
      if((__HAL_RCC_GET_FLAG(RCC_FLAG_HSIRDY) != RESET) && (RCC_OscInitStruct->HSIState != RCC_HSI_ON))
 8000c0c:	4b71      	ldr	r3, [pc, #452]	; (8000dd4 <HAL_RCC_OscConfig+0x330>)
 8000c0e:	681b      	ldr	r3, [r3, #0]
 8000c10:	2202      	movs	r2, #2
 8000c12:	4013      	ands	r3, r2
 8000c14:	d005      	beq.n	8000c22 <HAL_RCC_OscConfig+0x17e>
 8000c16:	687b      	ldr	r3, [r7, #4]
 8000c18:	68db      	ldr	r3, [r3, #12]
 8000c1a:	2b01      	cmp	r3, #1
 8000c1c:	d001      	beq.n	8000c22 <HAL_RCC_OscConfig+0x17e>
      {
        return HAL_ERROR;
 8000c1e:	2301      	movs	r3, #1
 8000c20:	e24d      	b.n	80010be <HAL_RCC_OscConfig+0x61a>
      }
      /* Otherwise, just the calibration is allowed */
      else
      {
        /* Adjusts the Internal High Speed oscillator (HSI) calibration value.*/
        __HAL_RCC_HSI_CALIBRATIONVALUE_ADJUST(RCC_OscInitStruct->HSICalibrationValue);
 8000c22:	4b6c      	ldr	r3, [pc, #432]	; (8000dd4 <HAL_RCC_OscConfig+0x330>)
 8000c24:	681b      	ldr	r3, [r3, #0]
 8000c26:	22f8      	movs	r2, #248	; 0xf8
 8000c28:	4393      	bics	r3, r2
 8000c2a:	0019      	movs	r1, r3
 8000c2c:	687b      	ldr	r3, [r7, #4]
 8000c2e:	691b      	ldr	r3, [r3, #16]
 8000c30:	00da      	lsls	r2, r3, #3
 8000c32:	4b68      	ldr	r3, [pc, #416]	; (8000dd4 <HAL_RCC_OscConfig+0x330>)
 8000c34:	430a      	orrs	r2, r1
 8000c36:	601a      	str	r2, [r3, #0]
      if((__HAL_RCC_GET_FLAG(RCC_FLAG_HSIRDY) != RESET) && (RCC_OscInitStruct->HSIState != RCC_HSI_ON))
 8000c38:	e041      	b.n	8000cbe <HAL_RCC_OscConfig+0x21a>
      }
    }
    else
    {
      /* Check the HSI State */
      if(RCC_OscInitStruct->HSIState != RCC_HSI_OFF)
 8000c3a:	687b      	ldr	r3, [r7, #4]
 8000c3c:	68db      	ldr	r3, [r3, #12]
 8000c3e:	2b00      	cmp	r3, #0
 8000c40:	d024      	beq.n	8000c8c <HAL_RCC_OscConfig+0x1e8>
      {
       /* Enable the Internal High Speed oscillator (HSI). */
        __HAL_RCC_HSI_ENABLE();
 8000c42:	4b64      	ldr	r3, [pc, #400]	; (8000dd4 <HAL_RCC_OscConfig+0x330>)
 8000c44:	681a      	ldr	r2, [r3, #0]
 8000c46:	4b63      	ldr	r3, [pc, #396]	; (8000dd4 <HAL_RCC_OscConfig+0x330>)
 8000c48:	2101      	movs	r1, #1
 8000c4a:	430a      	orrs	r2, r1
 8000c4c:	601a      	str	r2, [r3, #0]
        
        /* Get Start Tick */
        tickstart = HAL_GetTick();
 8000c4e:	f7ff fcdd 	bl	800060c <HAL_GetTick>
 8000c52:	0003      	movs	r3, r0
 8000c54:	61bb      	str	r3, [r7, #24]
        
        /* Wait till HSI is ready */
        while(__HAL_RCC_GET_FLAG(RCC_FLAG_HSIRDY) == RESET)
 8000c56:	e008      	b.n	8000c6a <HAL_RCC_OscConfig+0x1c6>
        {
          if((HAL_GetTick() - tickstart ) > HSI_TIMEOUT_VALUE)
 8000c58:	f7ff fcd8 	bl	800060c <HAL_GetTick>
 8000c5c:	0002      	movs	r2, r0
 8000c5e:	69bb      	ldr	r3, [r7, #24]
 8000c60:	1ad3      	subs	r3, r2, r3
 8000c62:	2b02      	cmp	r3, #2
 8000c64:	d901      	bls.n	8000c6a <HAL_RCC_OscConfig+0x1c6>
          {
            return HAL_TIMEOUT;
 8000c66:	2303      	movs	r3, #3
 8000c68:	e229      	b.n	80010be <HAL_RCC_OscConfig+0x61a>
        while(__HAL_RCC_GET_FLAG(RCC_FLAG_HSIRDY) == RESET)
 8000c6a:	4b5a      	ldr	r3, [pc, #360]	; (8000dd4 <HAL_RCC_OscConfig+0x330>)
 8000c6c:	681b      	ldr	r3, [r3, #0]
 8000c6e:	2202      	movs	r2, #2
 8000c70:	4013      	ands	r3, r2
 8000c72:	d0f1      	beq.n	8000c58 <HAL_RCC_OscConfig+0x1b4>
          }
        }
                
        /* Adjusts the Internal High Speed oscillator (HSI) calibration value.*/
        __HAL_RCC_HSI_CALIBRATIONVALUE_ADJUST(RCC_OscInitStruct->HSICalibrationValue);
 8000c74:	4b57      	ldr	r3, [pc, #348]	; (8000dd4 <HAL_RCC_OscConfig+0x330>)
 8000c76:	681b      	ldr	r3, [r3, #0]
 8000c78:	22f8      	movs	r2, #248	; 0xf8
 8000c7a:	4393      	bics	r3, r2
 8000c7c:	0019      	movs	r1, r3
 8000c7e:	687b      	ldr	r3, [r7, #4]
 8000c80:	691b      	ldr	r3, [r3, #16]
 8000c82:	00da      	lsls	r2, r3, #3
 8000c84:	4b53      	ldr	r3, [pc, #332]	; (8000dd4 <HAL_RCC_OscConfig+0x330>)
 8000c86:	430a      	orrs	r2, r1
 8000c88:	601a      	str	r2, [r3, #0]
 8000c8a:	e018      	b.n	8000cbe <HAL_RCC_OscConfig+0x21a>
      }
      else
      {
        /* Disable the Internal High Speed oscillator (HSI). */
        __HAL_RCC_HSI_DISABLE();
 8000c8c:	4b51      	ldr	r3, [pc, #324]	; (8000dd4 <HAL_RCC_OscConfig+0x330>)
 8000c8e:	681a      	ldr	r2, [r3, #0]
 8000c90:	4b50      	ldr	r3, [pc, #320]	; (8000dd4 <HAL_RCC_OscConfig+0x330>)
 8000c92:	2101      	movs	r1, #1
 8000c94:	438a      	bics	r2, r1
 8000c96:	601a      	str	r2, [r3, #0]
        
        /* Get Start Tick */
        tickstart = HAL_GetTick();
 8000c98:	f7ff fcb8 	bl	800060c <HAL_GetTick>
 8000c9c:	0003      	movs	r3, r0
 8000c9e:	61bb      	str	r3, [r7, #24]
        
        /* Wait till HSI is disabled */
        while(__HAL_RCC_GET_FLAG(RCC_FLAG_HSIRDY) != RESET)
 8000ca0:	e008      	b.n	8000cb4 <HAL_RCC_OscConfig+0x210>
        {
          if((HAL_GetTick() - tickstart ) > HSI_TIMEOUT_VALUE)
 8000ca2:	f7ff fcb3 	bl	800060c <HAL_GetTick>
 8000ca6:	0002      	movs	r2, r0
 8000ca8:	69bb      	ldr	r3, [r7, #24]
 8000caa:	1ad3      	subs	r3, r2, r3
 8000cac:	2b02      	cmp	r3, #2
 8000cae:	d901      	bls.n	8000cb4 <HAL_RCC_OscConfig+0x210>
          {
            return HAL_TIMEOUT;
 8000cb0:	2303      	movs	r3, #3
 8000cb2:	e204      	b.n	80010be <HAL_RCC_OscConfig+0x61a>
        while(__HAL_RCC_GET_FLAG(RCC_FLAG_HSIRDY) != RESET)
 8000cb4:	4b47      	ldr	r3, [pc, #284]	; (8000dd4 <HAL_RCC_OscConfig+0x330>)
 8000cb6:	681b      	ldr	r3, [r3, #0]
 8000cb8:	2202      	movs	r2, #2
 8000cba:	4013      	ands	r3, r2
 8000cbc:	d1f1      	bne.n	8000ca2 <HAL_RCC_OscConfig+0x1fe>
        }
      }
    }
  }
  /*------------------------------ LSI Configuration -------------------------*/ 
  if(((RCC_OscInitStruct->OscillatorType) & RCC_OSCILLATORTYPE_LSI) == RCC_OSCILLATORTYPE_LSI)
 8000cbe:	687b      	ldr	r3, [r7, #4]
 8000cc0:	681b      	ldr	r3, [r3, #0]
 8000cc2:	2208      	movs	r2, #8
 8000cc4:	4013      	ands	r3, r2
 8000cc6:	d036      	beq.n	8000d36 <HAL_RCC_OscConfig+0x292>
  {
    /* Check the parameters */
    assert_param(IS_RCC_LSI(RCC_OscInitStruct->LSIState));
    
    /* Check the LSI State */
    if(RCC_OscInitStruct->LSIState != RCC_LSI_OFF)
 8000cc8:	687b      	ldr	r3, [r7, #4]
 8000cca:	69db      	ldr	r3, [r3, #28]
 8000ccc:	2b00      	cmp	r3, #0
 8000cce:	d019      	beq.n	8000d04 <HAL_RCC_OscConfig+0x260>
    {
      /* Enable the Internal Low Speed oscillator (LSI). */
      __HAL_RCC_LSI_ENABLE();
 8000cd0:	4b40      	ldr	r3, [pc, #256]	; (8000dd4 <HAL_RCC_OscConfig+0x330>)
 8000cd2:	6a5a      	ldr	r2, [r3, #36]	; 0x24
 8000cd4:	4b3f      	ldr	r3, [pc, #252]	; (8000dd4 <HAL_RCC_OscConfig+0x330>)
 8000cd6:	2101      	movs	r1, #1
 8000cd8:	430a      	orrs	r2, r1
 8000cda:	625a      	str	r2, [r3, #36]	; 0x24
      
      /* Get Start Tick */
      tickstart = HAL_GetTick();
 8000cdc:	f7ff fc96 	bl	800060c <HAL_GetTick>
 8000ce0:	0003      	movs	r3, r0
 8000ce2:	61bb      	str	r3, [r7, #24]
      
      /* Wait till LSI is ready */  
      while(__HAL_RCC_GET_FLAG(RCC_FLAG_LSIRDY) == RESET)
 8000ce4:	e008      	b.n	8000cf8 <HAL_RCC_OscConfig+0x254>
      {
        if((HAL_GetTick() - tickstart ) > LSI_TIMEOUT_VALUE)
 8000ce6:	f7ff fc91 	bl	800060c <HAL_GetTick>
 8000cea:	0002      	movs	r2, r0
 8000cec:	69bb      	ldr	r3, [r7, #24]
 8000cee:	1ad3      	subs	r3, r2, r3
 8000cf0:	2b02      	cmp	r3, #2
 8000cf2:	d901      	bls.n	8000cf8 <HAL_RCC_OscConfig+0x254>
        {
          return HAL_TIMEOUT;
 8000cf4:	2303      	movs	r3, #3
 8000cf6:	e1e2      	b.n	80010be <HAL_RCC_OscConfig+0x61a>
      while(__HAL_RCC_GET_FLAG(RCC_FLAG_LSIRDY) == RESET)
 8000cf8:	4b36      	ldr	r3, [pc, #216]	; (8000dd4 <HAL_RCC_OscConfig+0x330>)
 8000cfa:	6a5b      	ldr	r3, [r3, #36]	; 0x24
 8000cfc:	2202      	movs	r2, #2
 8000cfe:	4013      	ands	r3, r2
 8000d00:	d0f1      	beq.n	8000ce6 <HAL_RCC_OscConfig+0x242>
 8000d02:	e018      	b.n	8000d36 <HAL_RCC_OscConfig+0x292>
      }
    }
    else
    {
      /* Disable the Internal Low Speed oscillator (LSI). */
      __HAL_RCC_LSI_DISABLE();
 8000d04:	4b33      	ldr	r3, [pc, #204]	; (8000dd4 <HAL_RCC_OscConfig+0x330>)
 8000d06:	6a5a      	ldr	r2, [r3, #36]	; 0x24
 8000d08:	4b32      	ldr	r3, [pc, #200]	; (8000dd4 <HAL_RCC_OscConfig+0x330>)
 8000d0a:	2101      	movs	r1, #1
 8000d0c:	438a      	bics	r2, r1
 8000d0e:	625a      	str	r2, [r3, #36]	; 0x24
      
      /* Get Start Tick */
      tickstart = HAL_GetTick();
 8000d10:	f7ff fc7c 	bl	800060c <HAL_GetTick>
 8000d14:	0003      	movs	r3, r0
 8000d16:	61bb      	str	r3, [r7, #24]
      
      /* Wait till LSI is disabled */  
      while(__HAL_RCC_GET_FLAG(RCC_FLAG_LSIRDY) != RESET)
 8000d18:	e008      	b.n	8000d2c <HAL_RCC_OscConfig+0x288>
      {
        if((HAL_GetTick() - tickstart ) > LSI_TIMEOUT_VALUE)
 8000d1a:	f7ff fc77 	bl	800060c <HAL_GetTick>
 8000d1e:	0002      	movs	r2, r0
 8000d20:	69bb      	ldr	r3, [r7, #24]
 8000d22:	1ad3      	subs	r3, r2, r3
 8000d24:	2b02      	cmp	r3, #2
 8000d26:	d901      	bls.n	8000d2c <HAL_RCC_OscConfig+0x288>
        {
          return HAL_TIMEOUT;
 8000d28:	2303      	movs	r3, #3
 8000d2a:	e1c8      	b.n	80010be <HAL_RCC_OscConfig+0x61a>
      while(__HAL_RCC_GET_FLAG(RCC_FLAG_LSIRDY) != RESET)
 8000d2c:	4b29      	ldr	r3, [pc, #164]	; (8000dd4 <HAL_RCC_OscConfig+0x330>)
 8000d2e:	6a5b      	ldr	r3, [r3, #36]	; 0x24
 8000d30:	2202      	movs	r2, #2
 8000d32:	4013      	ands	r3, r2
 8000d34:	d1f1      	bne.n	8000d1a <HAL_RCC_OscConfig+0x276>
        }
      }
    }
  }
  /*------------------------------ LSE Configuration -------------------------*/ 
  if(((RCC_OscInitStruct->OscillatorType) & RCC_OSCILLATORTYPE_LSE) == RCC_OSCILLATORTYPE_LSE)
 8000d36:	687b      	ldr	r3, [r7, #4]
 8000d38:	681b      	ldr	r3, [r3, #0]
 8000d3a:	2204      	movs	r2, #4
 8000d3c:	4013      	ands	r3, r2
 8000d3e:	d100      	bne.n	8000d42 <HAL_RCC_OscConfig+0x29e>
 8000d40:	e0b6      	b.n	8000eb0 <HAL_RCC_OscConfig+0x40c>
  {
    FlagStatus       pwrclkchanged = RESET;
 8000d42:	231f      	movs	r3, #31
 8000d44:	18fb      	adds	r3, r7, r3
 8000d46:	2200      	movs	r2, #0
 8000d48:	701a      	strb	r2, [r3, #0]
    /* Check the parameters */
    assert_param(IS_RCC_LSE(RCC_OscInitStruct->LSEState));

    /* Update LSE configuration in Backup Domain control register    */
    /* Requires to enable write access to Backup Domain of necessary */
    if(__HAL_RCC_PWR_IS_CLK_DISABLED())
 8000d4a:	4b22      	ldr	r3, [pc, #136]	; (8000dd4 <HAL_RCC_OscConfig+0x330>)
 8000d4c:	69da      	ldr	r2, [r3, #28]
 8000d4e:	2380      	movs	r3, #128	; 0x80
 8000d50:	055b      	lsls	r3, r3, #21
 8000d52:	4013      	ands	r3, r2
 8000d54:	d111      	bne.n	8000d7a <HAL_RCC_OscConfig+0x2d6>
    {
      __HAL_RCC_PWR_CLK_ENABLE();
 8000d56:	4b1f      	ldr	r3, [pc, #124]	; (8000dd4 <HAL_RCC_OscConfig+0x330>)
 8000d58:	69da      	ldr	r2, [r3, #28]
 8000d5a:	4b1e      	ldr	r3, [pc, #120]	; (8000dd4 <HAL_RCC_OscConfig+0x330>)
 8000d5c:	2180      	movs	r1, #128	; 0x80
 8000d5e:	0549      	lsls	r1, r1, #21
 8000d60:	430a      	orrs	r2, r1
 8000d62:	61da      	str	r2, [r3, #28]
 8000d64:	4b1b      	ldr	r3, [pc, #108]	; (8000dd4 <HAL_RCC_OscConfig+0x330>)
 8000d66:	69da      	ldr	r2, [r3, #28]
 8000d68:	2380      	movs	r3, #128	; 0x80
 8000d6a:	055b      	lsls	r3, r3, #21
 8000d6c:	4013      	ands	r3, r2
 8000d6e:	60fb      	str	r3, [r7, #12]
 8000d70:	68fb      	ldr	r3, [r7, #12]
      pwrclkchanged = SET;
 8000d72:	231f      	movs	r3, #31
 8000d74:	18fb      	adds	r3, r7, r3
 8000d76:	2201      	movs	r2, #1
 8000d78:	701a      	strb	r2, [r3, #0]
    }
    
    if(HAL_IS_BIT_CLR(PWR->CR, PWR_CR_DBP))
 8000d7a:	4b19      	ldr	r3, [pc, #100]	; (8000de0 <HAL_RCC_OscConfig+0x33c>)
 8000d7c:	681a      	ldr	r2, [r3, #0]
 8000d7e:	2380      	movs	r3, #128	; 0x80
 8000d80:	005b      	lsls	r3, r3, #1
 8000d82:	4013      	ands	r3, r2
 8000d84:	d11a      	bne.n	8000dbc <HAL_RCC_OscConfig+0x318>
    {
      /* Enable write access to Backup domain */
      SET_BIT(PWR->CR, PWR_CR_DBP);
 8000d86:	4b16      	ldr	r3, [pc, #88]	; (8000de0 <HAL_RCC_OscConfig+0x33c>)
 8000d88:	681a      	ldr	r2, [r3, #0]
 8000d8a:	4b15      	ldr	r3, [pc, #84]	; (8000de0 <HAL_RCC_OscConfig+0x33c>)
 8000d8c:	2180      	movs	r1, #128	; 0x80
 8000d8e:	0049      	lsls	r1, r1, #1
 8000d90:	430a      	orrs	r2, r1
 8000d92:	601a      	str	r2, [r3, #0]
      
      /* Wait for Backup domain Write protection disable */
      tickstart = HAL_GetTick();
 8000d94:	f7ff fc3a 	bl	800060c <HAL_GetTick>
 8000d98:	0003      	movs	r3, r0
 8000d9a:	61bb      	str	r3, [r7, #24]

      while(HAL_IS_BIT_CLR(PWR->CR, PWR_CR_DBP))
 8000d9c:	e008      	b.n	8000db0 <HAL_RCC_OscConfig+0x30c>
      {
        if((HAL_GetTick() - tickstart) > RCC_DBP_TIMEOUT_VALUE)
 8000d9e:	f7ff fc35 	bl	800060c <HAL_GetTick>
 8000da2:	0002      	movs	r2, r0
 8000da4:	69bb      	ldr	r3, [r7, #24]
 8000da6:	1ad3      	subs	r3, r2, r3
 8000da8:	2b64      	cmp	r3, #100	; 0x64
 8000daa:	d901      	bls.n	8000db0 <HAL_RCC_OscConfig+0x30c>
        {
          return HAL_TIMEOUT;
 8000dac:	2303      	movs	r3, #3
 8000dae:	e186      	b.n	80010be <HAL_RCC_OscConfig+0x61a>
      while(HAL_IS_BIT_CLR(PWR->CR, PWR_CR_DBP))
 8000db0:	4b0b      	ldr	r3, [pc, #44]	; (8000de0 <HAL_RCC_OscConfig+0x33c>)
 8000db2:	681a      	ldr	r2, [r3, #0]
 8000db4:	2380      	movs	r3, #128	; 0x80
 8000db6:	005b      	lsls	r3, r3, #1
 8000db8:	4013      	ands	r3, r2
 8000dba:	d0f0      	beq.n	8000d9e <HAL_RCC_OscConfig+0x2fa>
        }
      }
    }

    /* Set the new LSE configuration -----------------------------------------*/
    __HAL_RCC_LSE_CONFIG(RCC_OscInitStruct->LSEState);
 8000dbc:	687b      	ldr	r3, [r7, #4]
 8000dbe:	689b      	ldr	r3, [r3, #8]
 8000dc0:	2b01      	cmp	r3, #1
 8000dc2:	d10f      	bne.n	8000de4 <HAL_RCC_OscConfig+0x340>
 8000dc4:	4b03      	ldr	r3, [pc, #12]	; (8000dd4 <HAL_RCC_OscConfig+0x330>)
 8000dc6:	6a1a      	ldr	r2, [r3, #32]
 8000dc8:	4b02      	ldr	r3, [pc, #8]	; (8000dd4 <HAL_RCC_OscConfig+0x330>)
 8000dca:	2101      	movs	r1, #1
 8000dcc:	430a      	orrs	r2, r1
 8000dce:	621a      	str	r2, [r3, #32]
 8000dd0:	e036      	b.n	8000e40 <HAL_RCC_OscConfig+0x39c>
 8000dd2:	46c0      	nop			; (mov r8, r8)
 8000dd4:	40021000 	.word	0x40021000
 8000dd8:	fffeffff 	.word	0xfffeffff
 8000ddc:	fffbffff 	.word	0xfffbffff
 8000de0:	40007000 	.word	0x40007000
 8000de4:	687b      	ldr	r3, [r7, #4]
 8000de6:	689b      	ldr	r3, [r3, #8]
 8000de8:	2b00      	cmp	r3, #0
 8000dea:	d10c      	bne.n	8000e06 <HAL_RCC_OscConfig+0x362>
 8000dec:	4bb6      	ldr	r3, [pc, #728]	; (80010c8 <HAL_RCC_OscConfig+0x624>)
 8000dee:	6a1a      	ldr	r2, [r3, #32]
 8000df0:	4bb5      	ldr	r3, [pc, #724]	; (80010c8 <HAL_RCC_OscConfig+0x624>)
 8000df2:	2101      	movs	r1, #1
 8000df4:	438a      	bics	r2, r1
 8000df6:	621a      	str	r2, [r3, #32]
 8000df8:	4bb3      	ldr	r3, [pc, #716]	; (80010c8 <HAL_RCC_OscConfig+0x624>)
 8000dfa:	6a1a      	ldr	r2, [r3, #32]
 8000dfc:	4bb2      	ldr	r3, [pc, #712]	; (80010c8 <HAL_RCC_OscConfig+0x624>)
 8000dfe:	2104      	movs	r1, #4
 8000e00:	438a      	bics	r2, r1
 8000e02:	621a      	str	r2, [r3, #32]
 8000e04:	e01c      	b.n	8000e40 <HAL_RCC_OscConfig+0x39c>
 8000e06:	687b      	ldr	r3, [r7, #4]
 8000e08:	689b      	ldr	r3, [r3, #8]
 8000e0a:	2b05      	cmp	r3, #5
 8000e0c:	d10c      	bne.n	8000e28 <HAL_RCC_OscConfig+0x384>
 8000e0e:	4bae      	ldr	r3, [pc, #696]	; (80010c8 <HAL_RCC_OscConfig+0x624>)
 8000e10:	6a1a      	ldr	r2, [r3, #32]
 8000e12:	4bad      	ldr	r3, [pc, #692]	; (80010c8 <HAL_RCC_OscConfig+0x624>)
 8000e14:	2104      	movs	r1, #4
 8000e16:	430a      	orrs	r2, r1
 8000e18:	621a      	str	r2, [r3, #32]
 8000e1a:	4bab      	ldr	r3, [pc, #684]	; (80010c8 <HAL_RCC_OscConfig+0x624>)
 8000e1c:	6a1a      	ldr	r2, [r3, #32]
 8000e1e:	4baa      	ldr	r3, [pc, #680]	; (80010c8 <HAL_RCC_OscConfig+0x624>)
 8000e20:	2101      	movs	r1, #1
 8000e22:	430a      	orrs	r2, r1
 8000e24:	621a      	str	r2, [r3, #32]
 8000e26:	e00b      	b.n	8000e40 <HAL_RCC_OscConfig+0x39c>
 8000e28:	4ba7      	ldr	r3, [pc, #668]	; (80010c8 <HAL_RCC_OscConfig+0x624>)
 8000e2a:	6a1a      	ldr	r2, [r3, #32]
 8000e2c:	4ba6      	ldr	r3, [pc, #664]	; (80010c8 <HAL_RCC_OscConfig+0x624>)
 8000e2e:	2101      	movs	r1, #1
 8000e30:	438a      	bics	r2, r1
 8000e32:	621a      	str	r2, [r3, #32]
 8000e34:	4ba4      	ldr	r3, [pc, #656]	; (80010c8 <HAL_RCC_OscConfig+0x624>)
 8000e36:	6a1a      	ldr	r2, [r3, #32]
 8000e38:	4ba3      	ldr	r3, [pc, #652]	; (80010c8 <HAL_RCC_OscConfig+0x624>)
 8000e3a:	2104      	movs	r1, #4
 8000e3c:	438a      	bics	r2, r1
 8000e3e:	621a      	str	r2, [r3, #32]
    /* Check the LSE State */
    if(RCC_OscInitStruct->LSEState != RCC_LSE_OFF)
 8000e40:	687b      	ldr	r3, [r7, #4]
 8000e42:	689b      	ldr	r3, [r3, #8]
 8000e44:	2b00      	cmp	r3, #0
 8000e46:	d014      	beq.n	8000e72 <HAL_RCC_OscConfig+0x3ce>
    {
      /* Get Start Tick */
      tickstart = HAL_GetTick();
 8000e48:	f7ff fbe0 	bl	800060c <HAL_GetTick>
 8000e4c:	0003      	movs	r3, r0
 8000e4e:	61bb      	str	r3, [r7, #24]
      
      /* Wait till LSE is ready */  
      while(__HAL_RCC_GET_FLAG(RCC_FLAG_LSERDY) == RESET)
 8000e50:	e009      	b.n	8000e66 <HAL_RCC_OscConfig+0x3c2>
      {
        if((HAL_GetTick() - tickstart ) > RCC_LSE_TIMEOUT_VALUE)
 8000e52:	f7ff fbdb 	bl	800060c <HAL_GetTick>
 8000e56:	0002      	movs	r2, r0
 8000e58:	69bb      	ldr	r3, [r7, #24]
 8000e5a:	1ad3      	subs	r3, r2, r3
 8000e5c:	4a9b      	ldr	r2, [pc, #620]	; (80010cc <HAL_RCC_OscConfig+0x628>)
 8000e5e:	4293      	cmp	r3, r2
 8000e60:	d901      	bls.n	8000e66 <HAL_RCC_OscConfig+0x3c2>
        {
          return HAL_TIMEOUT;
 8000e62:	2303      	movs	r3, #3
 8000e64:	e12b      	b.n	80010be <HAL_RCC_OscConfig+0x61a>
      while(__HAL_RCC_GET_FLAG(RCC_FLAG_LSERDY) == RESET)
 8000e66:	4b98      	ldr	r3, [pc, #608]	; (80010c8 <HAL_RCC_OscConfig+0x624>)
 8000e68:	6a1b      	ldr	r3, [r3, #32]
 8000e6a:	2202      	movs	r2, #2
 8000e6c:	4013      	ands	r3, r2
 8000e6e:	d0f0      	beq.n	8000e52 <HAL_RCC_OscConfig+0x3ae>
 8000e70:	e013      	b.n	8000e9a <HAL_RCC_OscConfig+0x3f6>
      }
    }
    else
    {
      /* Get Start Tick */
      tickstart = HAL_GetTick();
 8000e72:	f7ff fbcb 	bl	800060c <HAL_GetTick>
 8000e76:	0003      	movs	r3, r0
 8000e78:	61bb      	str	r3, [r7, #24]
      
      /* Wait till LSE is disabled */  
      while(__HAL_RCC_GET_FLAG(RCC_FLAG_LSERDY) != RESET)
 8000e7a:	e009      	b.n	8000e90 <HAL_RCC_OscConfig+0x3ec>
      {
        if((HAL_GetTick() - tickstart ) > RCC_LSE_TIMEOUT_VALUE)
 8000e7c:	f7ff fbc6 	bl	800060c <HAL_GetTick>
 8000e80:	0002      	movs	r2, r0
 8000e82:	69bb      	ldr	r3, [r7, #24]
 8000e84:	1ad3      	subs	r3, r2, r3
 8000e86:	4a91      	ldr	r2, [pc, #580]	; (80010cc <HAL_RCC_OscConfig+0x628>)
 8000e88:	4293      	cmp	r3, r2
 8000e8a:	d901      	bls.n	8000e90 <HAL_RCC_OscConfig+0x3ec>
        {
          return HAL_TIMEOUT;
 8000e8c:	2303      	movs	r3, #3
 8000e8e:	e116      	b.n	80010be <HAL_RCC_OscConfig+0x61a>
      while(__HAL_RCC_GET_FLAG(RCC_FLAG_LSERDY) != RESET)
 8000e90:	4b8d      	ldr	r3, [pc, #564]	; (80010c8 <HAL_RCC_OscConfig+0x624>)
 8000e92:	6a1b      	ldr	r3, [r3, #32]
 8000e94:	2202      	movs	r2, #2
 8000e96:	4013      	ands	r3, r2
 8000e98:	d1f0      	bne.n	8000e7c <HAL_RCC_OscConfig+0x3d8>
        }
      }
    }

    /* Require to disable power clock if necessary */
    if(pwrclkchanged == SET)
 8000e9a:	231f      	movs	r3, #31
 8000e9c:	18fb      	adds	r3, r7, r3
 8000e9e:	781b      	ldrb	r3, [r3, #0]
 8000ea0:	2b01      	cmp	r3, #1
 8000ea2:	d105      	bne.n	8000eb0 <HAL_RCC_OscConfig+0x40c>
    {
      __HAL_RCC_PWR_CLK_DISABLE();
 8000ea4:	4b88      	ldr	r3, [pc, #544]	; (80010c8 <HAL_RCC_OscConfig+0x624>)
 8000ea6:	69da      	ldr	r2, [r3, #28]
 8000ea8:	4b87      	ldr	r3, [pc, #540]	; (80010c8 <HAL_RCC_OscConfig+0x624>)
 8000eaa:	4989      	ldr	r1, [pc, #548]	; (80010d0 <HAL_RCC_OscConfig+0x62c>)
 8000eac:	400a      	ands	r2, r1
 8000eae:	61da      	str	r2, [r3, #28]
    }
  }

  /*----------------------------- HSI14 Configuration --------------------------*/
  if(((RCC_OscInitStruct->OscillatorType) & RCC_OSCILLATORTYPE_HSI14) == RCC_OSCILLATORTYPE_HSI14)
 8000eb0:	687b      	ldr	r3, [r7, #4]
 8000eb2:	681b      	ldr	r3, [r3, #0]
 8000eb4:	2210      	movs	r2, #16
 8000eb6:	4013      	ands	r3, r2
 8000eb8:	d063      	beq.n	8000f82 <HAL_RCC_OscConfig+0x4de>
    /* Check the parameters */
    assert_param(IS_RCC_HSI14(RCC_OscInitStruct->HSI14State));
    assert_param(IS_RCC_CALIBRATION_VALUE(RCC_OscInitStruct->HSI14CalibrationValue));

    /* Check the HSI14 State */
    if(RCC_OscInitStruct->HSI14State == RCC_HSI14_ON)
 8000eba:	687b      	ldr	r3, [r7, #4]
 8000ebc:	695b      	ldr	r3, [r3, #20]
 8000ebe:	2b01      	cmp	r3, #1
 8000ec0:	d12a      	bne.n	8000f18 <HAL_RCC_OscConfig+0x474>
    {
      /* Disable ADC control of the Internal High Speed oscillator HSI14 */
      __HAL_RCC_HSI14ADC_DISABLE();
 8000ec2:	4b81      	ldr	r3, [pc, #516]	; (80010c8 <HAL_RCC_OscConfig+0x624>)
 8000ec4:	6b5a      	ldr	r2, [r3, #52]	; 0x34
 8000ec6:	4b80      	ldr	r3, [pc, #512]	; (80010c8 <HAL_RCC_OscConfig+0x624>)
 8000ec8:	2104      	movs	r1, #4
 8000eca:	430a      	orrs	r2, r1
 8000ecc:	635a      	str	r2, [r3, #52]	; 0x34

      /* Enable the Internal High Speed oscillator (HSI). */
      __HAL_RCC_HSI14_ENABLE();
 8000ece:	4b7e      	ldr	r3, [pc, #504]	; (80010c8 <HAL_RCC_OscConfig+0x624>)
 8000ed0:	6b5a      	ldr	r2, [r3, #52]	; 0x34
 8000ed2:	4b7d      	ldr	r3, [pc, #500]	; (80010c8 <HAL_RCC_OscConfig+0x624>)
 8000ed4:	2101      	movs	r1, #1
 8000ed6:	430a      	orrs	r2, r1
 8000ed8:	635a      	str	r2, [r3, #52]	; 0x34

      /* Get Start Tick */
      tickstart = HAL_GetTick();
 8000eda:	f7ff fb97 	bl	800060c <HAL_GetTick>
 8000ede:	0003      	movs	r3, r0
 8000ee0:	61bb      	str	r3, [r7, #24]
      
      /* Wait till HSI is ready */  
      while(__HAL_RCC_GET_FLAG(RCC_FLAG_HSI14RDY) == RESET)
 8000ee2:	e008      	b.n	8000ef6 <HAL_RCC_OscConfig+0x452>
      {
        if((HAL_GetTick() - tickstart) > HSI14_TIMEOUT_VALUE)
 8000ee4:	f7ff fb92 	bl	800060c <HAL_GetTick>
 8000ee8:	0002      	movs	r2, r0
 8000eea:	69bb      	ldr	r3, [r7, #24]
 8000eec:	1ad3      	subs	r3, r2, r3
 8000eee:	2b02      	cmp	r3, #2
 8000ef0:	d901      	bls.n	8000ef6 <HAL_RCC_OscConfig+0x452>
        {
          return HAL_TIMEOUT;
 8000ef2:	2303      	movs	r3, #3
 8000ef4:	e0e3      	b.n	80010be <HAL_RCC_OscConfig+0x61a>
      while(__HAL_RCC_GET_FLAG(RCC_FLAG_HSI14RDY) == RESET)
 8000ef6:	4b74      	ldr	r3, [pc, #464]	; (80010c8 <HAL_RCC_OscConfig+0x624>)
 8000ef8:	6b5b      	ldr	r3, [r3, #52]	; 0x34
 8000efa:	2202      	movs	r2, #2
 8000efc:	4013      	ands	r3, r2
 8000efe:	d0f1      	beq.n	8000ee4 <HAL_RCC_OscConfig+0x440>
        }      
      } 

      /* Adjusts the Internal High Speed oscillator 14Mhz (HSI14) calibration value. */
      __HAL_RCC_HSI14_CALIBRATIONVALUE_ADJUST(RCC_OscInitStruct->HSI14CalibrationValue);
 8000f00:	4b71      	ldr	r3, [pc, #452]	; (80010c8 <HAL_RCC_OscConfig+0x624>)
 8000f02:	6b5b      	ldr	r3, [r3, #52]	; 0x34
 8000f04:	22f8      	movs	r2, #248	; 0xf8
 8000f06:	4393      	bics	r3, r2
 8000f08:	0019      	movs	r1, r3
 8000f0a:	687b      	ldr	r3, [r7, #4]
 8000f0c:	699b      	ldr	r3, [r3, #24]
 8000f0e:	00da      	lsls	r2, r3, #3
 8000f10:	4b6d      	ldr	r3, [pc, #436]	; (80010c8 <HAL_RCC_OscConfig+0x624>)
 8000f12:	430a      	orrs	r2, r1
 8000f14:	635a      	str	r2, [r3, #52]	; 0x34
 8000f16:	e034      	b.n	8000f82 <HAL_RCC_OscConfig+0x4de>
    }
    else if(RCC_OscInitStruct->HSI14State == RCC_HSI14_ADC_CONTROL)
 8000f18:	687b      	ldr	r3, [r7, #4]
 8000f1a:	695b      	ldr	r3, [r3, #20]
 8000f1c:	3305      	adds	r3, #5
 8000f1e:	d111      	bne.n	8000f44 <HAL_RCC_OscConfig+0x4a0>
    {
      /* Enable ADC control of the Internal High Speed oscillator HSI14 */
      __HAL_RCC_HSI14ADC_ENABLE();
 8000f20:	4b69      	ldr	r3, [pc, #420]	; (80010c8 <HAL_RCC_OscConfig+0x624>)
 8000f22:	6b5a      	ldr	r2, [r3, #52]	; 0x34
 8000f24:	4b68      	ldr	r3, [pc, #416]	; (80010c8 <HAL_RCC_OscConfig+0x624>)
 8000f26:	2104      	movs	r1, #4
 8000f28:	438a      	bics	r2, r1
 8000f2a:	635a      	str	r2, [r3, #52]	; 0x34

      /* Adjusts the Internal High Speed oscillator 14Mhz (HSI14) calibration value. */
      __HAL_RCC_HSI14_CALIBRATIONVALUE_ADJUST(RCC_OscInitStruct->HSI14CalibrationValue);
 8000f2c:	4b66      	ldr	r3, [pc, #408]	; (80010c8 <HAL_RCC_OscConfig+0x624>)
 8000f2e:	6b5b      	ldr	r3, [r3, #52]	; 0x34
 8000f30:	22f8      	movs	r2, #248	; 0xf8
 8000f32:	4393      	bics	r3, r2
 8000f34:	0019      	movs	r1, r3
 8000f36:	687b      	ldr	r3, [r7, #4]
 8000f38:	699b      	ldr	r3, [r3, #24]
 8000f3a:	00da      	lsls	r2, r3, #3
 8000f3c:	4b62      	ldr	r3, [pc, #392]	; (80010c8 <HAL_RCC_OscConfig+0x624>)
 8000f3e:	430a      	orrs	r2, r1
 8000f40:	635a      	str	r2, [r3, #52]	; 0x34
 8000f42:	e01e      	b.n	8000f82 <HAL_RCC_OscConfig+0x4de>
    }
    else
    {
      /* Disable ADC control of the Internal High Speed oscillator HSI14 */
      __HAL_RCC_HSI14ADC_DISABLE();
 8000f44:	4b60      	ldr	r3, [pc, #384]	; (80010c8 <HAL_RCC_OscConfig+0x624>)
 8000f46:	6b5a      	ldr	r2, [r3, #52]	; 0x34
 8000f48:	4b5f      	ldr	r3, [pc, #380]	; (80010c8 <HAL_RCC_OscConfig+0x624>)
 8000f4a:	2104      	movs	r1, #4
 8000f4c:	430a      	orrs	r2, r1
 8000f4e:	635a      	str	r2, [r3, #52]	; 0x34

      /* Disable the Internal High Speed oscillator (HSI). */
      __HAL_RCC_HSI14_DISABLE();
 8000f50:	4b5d      	ldr	r3, [pc, #372]	; (80010c8 <HAL_RCC_OscConfig+0x624>)
 8000f52:	6b5a      	ldr	r2, [r3, #52]	; 0x34
 8000f54:	4b5c      	ldr	r3, [pc, #368]	; (80010c8 <HAL_RCC_OscConfig+0x624>)
 8000f56:	2101      	movs	r1, #1
 8000f58:	438a      	bics	r2, r1
 8000f5a:	635a      	str	r2, [r3, #52]	; 0x34

      /* Get Start Tick */
      tickstart = HAL_GetTick();
 8000f5c:	f7ff fb56 	bl	800060c <HAL_GetTick>
 8000f60:	0003      	movs	r3, r0
 8000f62:	61bb      	str	r3, [r7, #24]
      
      /* Wait till HSI is ready */  
      while(__HAL_RCC_GET_FLAG(RCC_FLAG_HSI14RDY) != RESET)
 8000f64:	e008      	b.n	8000f78 <HAL_RCC_OscConfig+0x4d4>
      {
        if((HAL_GetTick() - tickstart) > HSI14_TIMEOUT_VALUE)
 8000f66:	f7ff fb51 	bl	800060c <HAL_GetTick>
 8000f6a:	0002      	movs	r2, r0
 8000f6c:	69bb      	ldr	r3, [r7, #24]
 8000f6e:	1ad3      	subs	r3, r2, r3
 8000f70:	2b02      	cmp	r3, #2
 8000f72:	d901      	bls.n	8000f78 <HAL_RCC_OscConfig+0x4d4>
        {
          return HAL_TIMEOUT;
 8000f74:	2303      	movs	r3, #3
 8000f76:	e0a2      	b.n	80010be <HAL_RCC_OscConfig+0x61a>
      while(__HAL_RCC_GET_FLAG(RCC_FLAG_HSI14RDY) != RESET)
 8000f78:	4b53      	ldr	r3, [pc, #332]	; (80010c8 <HAL_RCC_OscConfig+0x624>)
 8000f7a:	6b5b      	ldr	r3, [r3, #52]	; 0x34
 8000f7c:	2202      	movs	r2, #2
 8000f7e:	4013      	ands	r3, r2
 8000f80:	d1f1      	bne.n	8000f66 <HAL_RCC_OscConfig+0x4c2>
#endif /* RCC_HSI48_SUPPORT */
       
  /*-------------------------------- PLL Configuration -----------------------*/
  /* Check the parameters */
  assert_param(IS_RCC_PLL(RCC_OscInitStruct->PLL.PLLState));
  if ((RCC_OscInitStruct->PLL.PLLState) != RCC_PLL_NONE)
 8000f82:	687b      	ldr	r3, [r7, #4]
 8000f84:	6a1b      	ldr	r3, [r3, #32]
 8000f86:	2b00      	cmp	r3, #0
 8000f88:	d100      	bne.n	8000f8c <HAL_RCC_OscConfig+0x4e8>
 8000f8a:	e097      	b.n	80010bc <HAL_RCC_OscConfig+0x618>
  {
    /* Check if the PLL is used as system clock or not */
    if(__HAL_RCC_GET_SYSCLK_SOURCE() != RCC_SYSCLKSOURCE_STATUS_PLLCLK)
 8000f8c:	4b4e      	ldr	r3, [pc, #312]	; (80010c8 <HAL_RCC_OscConfig+0x624>)
 8000f8e:	685b      	ldr	r3, [r3, #4]
 8000f90:	220c      	movs	r2, #12
 8000f92:	4013      	ands	r3, r2
 8000f94:	2b08      	cmp	r3, #8
 8000f96:	d100      	bne.n	8000f9a <HAL_RCC_OscConfig+0x4f6>
 8000f98:	e06b      	b.n	8001072 <HAL_RCC_OscConfig+0x5ce>
    { 
      if((RCC_OscInitStruct->PLL.PLLState) == RCC_PLL_ON)
 8000f9a:	687b      	ldr	r3, [r7, #4]
 8000f9c:	6a1b      	ldr	r3, [r3, #32]
 8000f9e:	2b02      	cmp	r3, #2
 8000fa0:	d14c      	bne.n	800103c <HAL_RCC_OscConfig+0x598>
        assert_param(IS_RCC_PLLSOURCE(RCC_OscInitStruct->PLL.PLLSource));
        assert_param(IS_RCC_PLL_MUL(RCC_OscInitStruct->PLL.PLLMUL));
        assert_param(IS_RCC_PREDIV(RCC_OscInitStruct->PLL.PREDIV));
  
        /* Disable the main PLL. */
        __HAL_RCC_PLL_DISABLE();
 8000fa2:	4b49      	ldr	r3, [pc, #292]	; (80010c8 <HAL_RCC_OscConfig+0x624>)
 8000fa4:	681a      	ldr	r2, [r3, #0]
 8000fa6:	4b48      	ldr	r3, [pc, #288]	; (80010c8 <HAL_RCC_OscConfig+0x624>)
 8000fa8:	494a      	ldr	r1, [pc, #296]	; (80010d4 <HAL_RCC_OscConfig+0x630>)
 8000faa:	400a      	ands	r2, r1
 8000fac:	601a      	str	r2, [r3, #0]
        
        /* Get Start Tick */
        tickstart = HAL_GetTick();
 8000fae:	f7ff fb2d 	bl	800060c <HAL_GetTick>
 8000fb2:	0003      	movs	r3, r0
 8000fb4:	61bb      	str	r3, [r7, #24]
        
        /* Wait till PLL is disabled */
        while(__HAL_RCC_GET_FLAG(RCC_FLAG_PLLRDY)  != RESET)
 8000fb6:	e008      	b.n	8000fca <HAL_RCC_OscConfig+0x526>
        {
          if((HAL_GetTick() - tickstart ) > PLL_TIMEOUT_VALUE)
 8000fb8:	f7ff fb28 	bl	800060c <HAL_GetTick>
 8000fbc:	0002      	movs	r2, r0
 8000fbe:	69bb      	ldr	r3, [r7, #24]
 8000fc0:	1ad3      	subs	r3, r2, r3
 8000fc2:	2b02      	cmp	r3, #2
 8000fc4:	d901      	bls.n	8000fca <HAL_RCC_OscConfig+0x526>
          {
            return HAL_TIMEOUT;
 8000fc6:	2303      	movs	r3, #3
 8000fc8:	e079      	b.n	80010be <HAL_RCC_OscConfig+0x61a>
        while(__HAL_RCC_GET_FLAG(RCC_FLAG_PLLRDY)  != RESET)
 8000fca:	4b3f      	ldr	r3, [pc, #252]	; (80010c8 <HAL_RCC_OscConfig+0x624>)
 8000fcc:	681a      	ldr	r2, [r3, #0]
 8000fce:	2380      	movs	r3, #128	; 0x80
 8000fd0:	049b      	lsls	r3, r3, #18
 8000fd2:	4013      	ands	r3, r2
 8000fd4:	d1f0      	bne.n	8000fb8 <HAL_RCC_OscConfig+0x514>
          }
        }

        /* Configure the main PLL clock source, predivider and multiplication factor. */
        __HAL_RCC_PLL_CONFIG(RCC_OscInitStruct->PLL.PLLSource,
 8000fd6:	4b3c      	ldr	r3, [pc, #240]	; (80010c8 <HAL_RCC_OscConfig+0x624>)
 8000fd8:	6adb      	ldr	r3, [r3, #44]	; 0x2c
 8000fda:	220f      	movs	r2, #15
 8000fdc:	4393      	bics	r3, r2
 8000fde:	0019      	movs	r1, r3
 8000fe0:	687b      	ldr	r3, [r7, #4]
 8000fe2:	6ada      	ldr	r2, [r3, #44]	; 0x2c
 8000fe4:	4b38      	ldr	r3, [pc, #224]	; (80010c8 <HAL_RCC_OscConfig+0x624>)
 8000fe6:	430a      	orrs	r2, r1
 8000fe8:	62da      	str	r2, [r3, #44]	; 0x2c
 8000fea:	4b37      	ldr	r3, [pc, #220]	; (80010c8 <HAL_RCC_OscConfig+0x624>)
 8000fec:	685b      	ldr	r3, [r3, #4]
 8000fee:	4a3a      	ldr	r2, [pc, #232]	; (80010d8 <HAL_RCC_OscConfig+0x634>)
 8000ff0:	4013      	ands	r3, r2
 8000ff2:	0019      	movs	r1, r3
 8000ff4:	687b      	ldr	r3, [r7, #4]
 8000ff6:	6a9a      	ldr	r2, [r3, #40]	; 0x28
 8000ff8:	687b      	ldr	r3, [r7, #4]
 8000ffa:	6a5b      	ldr	r3, [r3, #36]	; 0x24
 8000ffc:	431a      	orrs	r2, r3
 8000ffe:	4b32      	ldr	r3, [pc, #200]	; (80010c8 <HAL_RCC_OscConfig+0x624>)
 8001000:	430a      	orrs	r2, r1
 8001002:	605a      	str	r2, [r3, #4]
                             RCC_OscInitStruct->PLL.PREDIV,
                             RCC_OscInitStruct->PLL.PLLMUL);
        /* Enable the main PLL. */
        __HAL_RCC_PLL_ENABLE();
 8001004:	4b30      	ldr	r3, [pc, #192]	; (80010c8 <HAL_RCC_OscConfig+0x624>)
 8001006:	681a      	ldr	r2, [r3, #0]
 8001008:	4b2f      	ldr	r3, [pc, #188]	; (80010c8 <HAL_RCC_OscConfig+0x624>)
 800100a:	2180      	movs	r1, #128	; 0x80
 800100c:	0449      	lsls	r1, r1, #17
 800100e:	430a      	orrs	r2, r1
 8001010:	601a      	str	r2, [r3, #0]
        
        /* Get Start Tick */
        tickstart = HAL_GetTick();
 8001012:	f7ff fafb 	bl	800060c <HAL_GetTick>
 8001016:	0003      	movs	r3, r0
 8001018:	61bb      	str	r3, [r7, #24]
        
        /* Wait till PLL is ready */
        while(__HAL_RCC_GET_FLAG(RCC_FLAG_PLLRDY)  == RESET)
 800101a:	e008      	b.n	800102e <HAL_RCC_OscConfig+0x58a>
        {
          if((HAL_GetTick() - tickstart ) > PLL_TIMEOUT_VALUE)
 800101c:	f7ff faf6 	bl	800060c <HAL_GetTick>
 8001020:	0002      	movs	r2, r0
 8001022:	69bb      	ldr	r3, [r7, #24]
 8001024:	1ad3      	subs	r3, r2, r3
 8001026:	2b02      	cmp	r3, #2
 8001028:	d901      	bls.n	800102e <HAL_RCC_OscConfig+0x58a>
          {
            return HAL_TIMEOUT;
 800102a:	2303      	movs	r3, #3
 800102c:	e047      	b.n	80010be <HAL_RCC_OscConfig+0x61a>
        while(__HAL_RCC_GET_FLAG(RCC_FLAG_PLLRDY)  == RESET)
 800102e:	4b26      	ldr	r3, [pc, #152]	; (80010c8 <HAL_RCC_OscConfig+0x624>)
 8001030:	681a      	ldr	r2, [r3, #0]
 8001032:	2380      	movs	r3, #128	; 0x80
 8001034:	049b      	lsls	r3, r3, #18
 8001036:	4013      	ands	r3, r2
 8001038:	d0f0      	beq.n	800101c <HAL_RCC_OscConfig+0x578>
 800103a:	e03f      	b.n	80010bc <HAL_RCC_OscConfig+0x618>
        }
      }
      else
      {
        /* Disable the main PLL. */
        __HAL_RCC_PLL_DISABLE();
 800103c:	4b22      	ldr	r3, [pc, #136]	; (80010c8 <HAL_RCC_OscConfig+0x624>)
 800103e:	681a      	ldr	r2, [r3, #0]
 8001040:	4b21      	ldr	r3, [pc, #132]	; (80010c8 <HAL_RCC_OscConfig+0x624>)
 8001042:	4924      	ldr	r1, [pc, #144]	; (80010d4 <HAL_RCC_OscConfig+0x630>)
 8001044:	400a      	ands	r2, r1
 8001046:	601a      	str	r2, [r3, #0]
 
        /* Get Start Tick */
        tickstart = HAL_GetTick();
 8001048:	f7ff fae0 	bl	800060c <HAL_GetTick>
 800104c:	0003      	movs	r3, r0
 800104e:	61bb      	str	r3, [r7, #24]
        
        /* Wait till PLL is disabled */  
        while(__HAL_RCC_GET_FLAG(RCC_FLAG_PLLRDY)  != RESET)
 8001050:	e008      	b.n	8001064 <HAL_RCC_OscConfig+0x5c0>
        {
          if((HAL_GetTick() - tickstart ) > PLL_TIMEOUT_VALUE)
 8001052:	f7ff fadb 	bl	800060c <HAL_GetTick>
 8001056:	0002      	movs	r2, r0
 8001058:	69bb      	ldr	r3, [r7, #24]
 800105a:	1ad3      	subs	r3, r2, r3
 800105c:	2b02      	cmp	r3, #2
 800105e:	d901      	bls.n	8001064 <HAL_RCC_OscConfig+0x5c0>
          {
            return HAL_TIMEOUT;
 8001060:	2303      	movs	r3, #3
 8001062:	e02c      	b.n	80010be <HAL_RCC_OscConfig+0x61a>
        while(__HAL_RCC_GET_FLAG(RCC_FLAG_PLLRDY)  != RESET)
 8001064:	4b18      	ldr	r3, [pc, #96]	; (80010c8 <HAL_RCC_OscConfig+0x624>)
 8001066:	681a      	ldr	r2, [r3, #0]
 8001068:	2380      	movs	r3, #128	; 0x80
 800106a:	049b      	lsls	r3, r3, #18
 800106c:	4013      	ands	r3, r2
 800106e:	d1f0      	bne.n	8001052 <HAL_RCC_OscConfig+0x5ae>
 8001070:	e024      	b.n	80010bc <HAL_RCC_OscConfig+0x618>
      }
    }
    else
    {
      /* Check if there is a request to disable the PLL used as System clock source */
      if((RCC_OscInitStruct->PLL.PLLState) == RCC_PLL_OFF)
 8001072:	687b      	ldr	r3, [r7, #4]
 8001074:	6a1b      	ldr	r3, [r3, #32]
 8001076:	2b01      	cmp	r3, #1
 8001078:	d101      	bne.n	800107e <HAL_RCC_OscConfig+0x5da>
      {
        return HAL_ERROR;
 800107a:	2301      	movs	r3, #1
 800107c:	e01f      	b.n	80010be <HAL_RCC_OscConfig+0x61a>
      }
      else
      {
        /* Do not return HAL_ERROR if request repeats the current configuration */
        pll_config  = RCC->CFGR;
 800107e:	4b12      	ldr	r3, [pc, #72]	; (80010c8 <HAL_RCC_OscConfig+0x624>)
 8001080:	685b      	ldr	r3, [r3, #4]
 8001082:	617b      	str	r3, [r7, #20]
        pll_config2 = RCC->CFGR2;
 8001084:	4b10      	ldr	r3, [pc, #64]	; (80010c8 <HAL_RCC_OscConfig+0x624>)
 8001086:	6adb      	ldr	r3, [r3, #44]	; 0x2c
 8001088:	613b      	str	r3, [r7, #16]
        if((READ_BIT(pll_config,  RCC_CFGR_PLLSRC)  != RCC_OscInitStruct->PLL.PLLSource) ||
 800108a:	697a      	ldr	r2, [r7, #20]
 800108c:	2380      	movs	r3, #128	; 0x80
 800108e:	025b      	lsls	r3, r3, #9
 8001090:	401a      	ands	r2, r3
 8001092:	687b      	ldr	r3, [r7, #4]
 8001094:	6a5b      	ldr	r3, [r3, #36]	; 0x24
 8001096:	429a      	cmp	r2, r3
 8001098:	d10e      	bne.n	80010b8 <HAL_RCC_OscConfig+0x614>
           (READ_BIT(pll_config2, RCC_CFGR2_PREDIV) != RCC_OscInitStruct->PLL.PREDIV)    ||
 800109a:	693b      	ldr	r3, [r7, #16]
 800109c:	220f      	movs	r2, #15
 800109e:	401a      	ands	r2, r3
 80010a0:	687b      	ldr	r3, [r7, #4]
 80010a2:	6adb      	ldr	r3, [r3, #44]	; 0x2c
        if((READ_BIT(pll_config,  RCC_CFGR_PLLSRC)  != RCC_OscInitStruct->PLL.PLLSource) ||
 80010a4:	429a      	cmp	r2, r3
 80010a6:	d107      	bne.n	80010b8 <HAL_RCC_OscConfig+0x614>
           (READ_BIT(pll_config,  RCC_CFGR_PLLMUL)  != RCC_OscInitStruct->PLL.PLLMUL))
 80010a8:	697a      	ldr	r2, [r7, #20]
 80010aa:	23f0      	movs	r3, #240	; 0xf0
 80010ac:	039b      	lsls	r3, r3, #14
 80010ae:	401a      	ands	r2, r3
 80010b0:	687b      	ldr	r3, [r7, #4]
 80010b2:	6a9b      	ldr	r3, [r3, #40]	; 0x28
           (READ_BIT(pll_config2, RCC_CFGR2_PREDIV) != RCC_OscInitStruct->PLL.PREDIV)    ||
 80010b4:	429a      	cmp	r2, r3
 80010b6:	d001      	beq.n	80010bc <HAL_RCC_OscConfig+0x618>
        {
          return HAL_ERROR;
 80010b8:	2301      	movs	r3, #1
 80010ba:	e000      	b.n	80010be <HAL_RCC_OscConfig+0x61a>
        }
      }
    }
  }

  return HAL_OK;
 80010bc:	2300      	movs	r3, #0
}
 80010be:	0018      	movs	r0, r3
 80010c0:	46bd      	mov	sp, r7
 80010c2:	b008      	add	sp, #32
 80010c4:	bd80      	pop	{r7, pc}
 80010c6:	46c0      	nop			; (mov r8, r8)
 80010c8:	40021000 	.word	0x40021000
 80010cc:	00001388 	.word	0x00001388
 80010d0:	efffffff 	.word	0xefffffff
 80010d4:	feffffff 	.word	0xfeffffff
 80010d8:	ffc2ffff 	.word	0xffc2ffff

080010dc <HAL_RCC_ClockConfig>:
  *         You can use @ref HAL_RCC_GetClockConfig() function to know which clock is
  *         currently used as system clock source.
  * @retval HAL status
  */
HAL_StatusTypeDef HAL_RCC_ClockConfig(RCC_ClkInitTypeDef  *RCC_ClkInitStruct, uint32_t FLatency)
{
 80010dc:	b580      	push	{r7, lr}
 80010de:	b084      	sub	sp, #16
 80010e0:	af00      	add	r7, sp, #0
 80010e2:	6078      	str	r0, [r7, #4]
 80010e4:	6039      	str	r1, [r7, #0]
  uint32_t tickstart;

  /* Check Null pointer */
  if(RCC_ClkInitStruct == NULL)
 80010e6:	687b      	ldr	r3, [r7, #4]
 80010e8:	2b00      	cmp	r3, #0
 80010ea:	d101      	bne.n	80010f0 <HAL_RCC_ClockConfig+0x14>
  {
    return HAL_ERROR;
 80010ec:	2301      	movs	r3, #1
 80010ee:	e0b3      	b.n	8001258 <HAL_RCC_ClockConfig+0x17c>
  /* To correctly read data from FLASH memory, the number of wait states (LATENCY) 
  must be correctly programmed according to the frequency of the CPU clock 
    (HCLK) of the device. */

  /* Increasing the number of wait states because of higher CPU frequency */
  if(FLatency > __HAL_FLASH_GET_LATENCY())
 80010f0:	4b5b      	ldr	r3, [pc, #364]	; (8001260 <HAL_RCC_ClockConfig+0x184>)
 80010f2:	681b      	ldr	r3, [r3, #0]
 80010f4:	2201      	movs	r2, #1
 80010f6:	4013      	ands	r3, r2
 80010f8:	683a      	ldr	r2, [r7, #0]
 80010fa:	429a      	cmp	r2, r3
 80010fc:	d911      	bls.n	8001122 <HAL_RCC_ClockConfig+0x46>
  {    
    /* Program the new number of wait states to the LATENCY bits in the FLASH_ACR register */
    __HAL_FLASH_SET_LATENCY(FLatency);
 80010fe:	4b58      	ldr	r3, [pc, #352]	; (8001260 <HAL_RCC_ClockConfig+0x184>)
 8001100:	681b      	ldr	r3, [r3, #0]
 8001102:	2201      	movs	r2, #1
 8001104:	4393      	bics	r3, r2
 8001106:	0019      	movs	r1, r3
 8001108:	4b55      	ldr	r3, [pc, #340]	; (8001260 <HAL_RCC_ClockConfig+0x184>)
 800110a:	683a      	ldr	r2, [r7, #0]
 800110c:	430a      	orrs	r2, r1
 800110e:	601a      	str	r2, [r3, #0]
    
    /* Check that the new number of wait states is taken into account to access the Flash
    memory by reading the FLASH_ACR register */
    if(__HAL_FLASH_GET_LATENCY() != FLatency)
 8001110:	4b53      	ldr	r3, [pc, #332]	; (8001260 <HAL_RCC_ClockConfig+0x184>)
 8001112:	681b      	ldr	r3, [r3, #0]
 8001114:	2201      	movs	r2, #1
 8001116:	4013      	ands	r3, r2
 8001118:	683a      	ldr	r2, [r7, #0]
 800111a:	429a      	cmp	r2, r3
 800111c:	d001      	beq.n	8001122 <HAL_RCC_ClockConfig+0x46>
    {
      return HAL_ERROR;
 800111e:	2301      	movs	r3, #1
 8001120:	e09a      	b.n	8001258 <HAL_RCC_ClockConfig+0x17c>
    }
  }

  /*-------------------------- HCLK Configuration --------------------------*/
  if(((RCC_ClkInitStruct->ClockType) & RCC_CLOCKTYPE_HCLK) == RCC_CLOCKTYPE_HCLK)
 8001122:	687b      	ldr	r3, [r7, #4]
 8001124:	681b      	ldr	r3, [r3, #0]
 8001126:	2202      	movs	r2, #2
 8001128:	4013      	ands	r3, r2
 800112a:	d015      	beq.n	8001158 <HAL_RCC_ClockConfig+0x7c>
  {
    /* Set the highest APB divider in order to ensure that we do not go through
       a non-spec phase whatever we decrease or increase HCLK. */
    if(((RCC_ClkInitStruct->ClockType) & RCC_CLOCKTYPE_PCLK1) == RCC_CLOCKTYPE_PCLK1)
 800112c:	687b      	ldr	r3, [r7, #4]
 800112e:	681b      	ldr	r3, [r3, #0]
 8001130:	2204      	movs	r2, #4
 8001132:	4013      	ands	r3, r2
 8001134:	d006      	beq.n	8001144 <HAL_RCC_ClockConfig+0x68>
    {
      MODIFY_REG(RCC->CFGR, RCC_CFGR_PPRE, RCC_HCLK_DIV16);
 8001136:	4b4b      	ldr	r3, [pc, #300]	; (8001264 <HAL_RCC_ClockConfig+0x188>)
 8001138:	685a      	ldr	r2, [r3, #4]
 800113a:	4b4a      	ldr	r3, [pc, #296]	; (8001264 <HAL_RCC_ClockConfig+0x188>)
 800113c:	21e0      	movs	r1, #224	; 0xe0
 800113e:	00c9      	lsls	r1, r1, #3
 8001140:	430a      	orrs	r2, r1
 8001142:	605a      	str	r2, [r3, #4]
    }

    /* Set the new HCLK clock divider */
    assert_param(IS_RCC_HCLK(RCC_ClkInitStruct->AHBCLKDivider));
    MODIFY_REG(RCC->CFGR, RCC_CFGR_HPRE, RCC_ClkInitStruct->AHBCLKDivider);
 8001144:	4b47      	ldr	r3, [pc, #284]	; (8001264 <HAL_RCC_ClockConfig+0x188>)
 8001146:	685b      	ldr	r3, [r3, #4]
 8001148:	22f0      	movs	r2, #240	; 0xf0
 800114a:	4393      	bics	r3, r2
 800114c:	0019      	movs	r1, r3
 800114e:	687b      	ldr	r3, [r7, #4]
 8001150:	689a      	ldr	r2, [r3, #8]
 8001152:	4b44      	ldr	r3, [pc, #272]	; (8001264 <HAL_RCC_ClockConfig+0x188>)
 8001154:	430a      	orrs	r2, r1
 8001156:	605a      	str	r2, [r3, #4]
  }

  /*------------------------- SYSCLK Configuration ---------------------------*/ 
  if(((RCC_ClkInitStruct->ClockType) & RCC_CLOCKTYPE_SYSCLK) == RCC_CLOCKTYPE_SYSCLK)
 8001158:	687b      	ldr	r3, [r7, #4]
 800115a:	681b      	ldr	r3, [r3, #0]
 800115c:	2201      	movs	r2, #1
 800115e:	4013      	ands	r3, r2
 8001160:	d040      	beq.n	80011e4 <HAL_RCC_ClockConfig+0x108>
  {
    assert_param(IS_RCC_SYSCLKSOURCE(RCC_ClkInitStruct->SYSCLKSource));
    
    /* HSE is selected as System Clock Source */
    if(RCC_ClkInitStruct->SYSCLKSource == RCC_SYSCLKSOURCE_HSE)
 8001162:	687b      	ldr	r3, [r7, #4]
 8001164:	685b      	ldr	r3, [r3, #4]
 8001166:	2b01      	cmp	r3, #1
 8001168:	d107      	bne.n	800117a <HAL_RCC_ClockConfig+0x9e>
    {
      /* Check the HSE ready flag */  
      if(__HAL_RCC_GET_FLAG(RCC_FLAG_HSERDY) == RESET)
 800116a:	4b3e      	ldr	r3, [pc, #248]	; (8001264 <HAL_RCC_ClockConfig+0x188>)
 800116c:	681a      	ldr	r2, [r3, #0]
 800116e:	2380      	movs	r3, #128	; 0x80
 8001170:	029b      	lsls	r3, r3, #10
 8001172:	4013      	ands	r3, r2
 8001174:	d114      	bne.n	80011a0 <HAL_RCC_ClockConfig+0xc4>
      {
        return HAL_ERROR;
 8001176:	2301      	movs	r3, #1
 8001178:	e06e      	b.n	8001258 <HAL_RCC_ClockConfig+0x17c>
      }
    }
    /* PLL is selected as System Clock Source */
    else if(RCC_ClkInitStruct->SYSCLKSource == RCC_SYSCLKSOURCE_PLLCLK)
 800117a:	687b      	ldr	r3, [r7, #4]
 800117c:	685b      	ldr	r3, [r3, #4]
 800117e:	2b02      	cmp	r3, #2
 8001180:	d107      	bne.n	8001192 <HAL_RCC_ClockConfig+0xb6>
    {
      /* Check the PLL ready flag */  
      if(__HAL_RCC_GET_FLAG(RCC_FLAG_PLLRDY) == RESET)
 8001182:	4b38      	ldr	r3, [pc, #224]	; (8001264 <HAL_RCC_ClockConfig+0x188>)
 8001184:	681a      	ldr	r2, [r3, #0]
 8001186:	2380      	movs	r3, #128	; 0x80
 8001188:	049b      	lsls	r3, r3, #18
 800118a:	4013      	ands	r3, r2
 800118c:	d108      	bne.n	80011a0 <HAL_RCC_ClockConfig+0xc4>
      {
        return HAL_ERROR;
 800118e:	2301      	movs	r3, #1
 8001190:	e062      	b.n	8001258 <HAL_RCC_ClockConfig+0x17c>
#endif /* RCC_CFGR_SWS_HSI48 */
    /* HSI is selected as System Clock Source */
    else
    {
      /* Check the HSI ready flag */  
      if(__HAL_RCC_GET_FLAG(RCC_FLAG_HSIRDY) == RESET)
 8001192:	4b34      	ldr	r3, [pc, #208]	; (8001264 <HAL_RCC_ClockConfig+0x188>)
 8001194:	681b      	ldr	r3, [r3, #0]
 8001196:	2202      	movs	r2, #2
 8001198:	4013      	ands	r3, r2
 800119a:	d101      	bne.n	80011a0 <HAL_RCC_ClockConfig+0xc4>
      {
        return HAL_ERROR;
 800119c:	2301      	movs	r3, #1
 800119e:	e05b      	b.n	8001258 <HAL_RCC_ClockConfig+0x17c>
      }
    }
    __HAL_RCC_SYSCLK_CONFIG(RCC_ClkInitStruct->SYSCLKSource);
 80011a0:	4b30      	ldr	r3, [pc, #192]	; (8001264 <HAL_RCC_ClockConfig+0x188>)
 80011a2:	685b      	ldr	r3, [r3, #4]
 80011a4:	2203      	movs	r2, #3
 80011a6:	4393      	bics	r3, r2
 80011a8:	0019      	movs	r1, r3
 80011aa:	687b      	ldr	r3, [r7, #4]
 80011ac:	685a      	ldr	r2, [r3, #4]
 80011ae:	4b2d      	ldr	r3, [pc, #180]	; (8001264 <HAL_RCC_ClockConfig+0x188>)
 80011b0:	430a      	orrs	r2, r1
 80011b2:	605a      	str	r2, [r3, #4]

    /* Get Start Tick */
    tickstart = HAL_GetTick();
 80011b4:	f7ff fa2a 	bl	800060c <HAL_GetTick>
 80011b8:	0003      	movs	r3, r0
 80011ba:	60fb      	str	r3, [r7, #12]
    
    while (__HAL_RCC_GET_SYSCLK_SOURCE() != (RCC_ClkInitStruct->SYSCLKSource << RCC_CFGR_SWS_Pos))
 80011bc:	e009      	b.n	80011d2 <HAL_RCC_ClockConfig+0xf6>
    {
      if((HAL_GetTick() - tickstart ) > CLOCKSWITCH_TIMEOUT_VALUE)
 80011be:	f7ff fa25 	bl	800060c <HAL_GetTick>
 80011c2:	0002      	movs	r2, r0
 80011c4:	68fb      	ldr	r3, [r7, #12]
 80011c6:	1ad3      	subs	r3, r2, r3
 80011c8:	4a27      	ldr	r2, [pc, #156]	; (8001268 <HAL_RCC_ClockConfig+0x18c>)
 80011ca:	4293      	cmp	r3, r2
 80011cc:	d901      	bls.n	80011d2 <HAL_RCC_ClockConfig+0xf6>
      {
        return HAL_TIMEOUT;
 80011ce:	2303      	movs	r3, #3
 80011d0:	e042      	b.n	8001258 <HAL_RCC_ClockConfig+0x17c>
    while (__HAL_RCC_GET_SYSCLK_SOURCE() != (RCC_ClkInitStruct->SYSCLKSource << RCC_CFGR_SWS_Pos))
 80011d2:	4b24      	ldr	r3, [pc, #144]	; (8001264 <HAL_RCC_ClockConfig+0x188>)
 80011d4:	685b      	ldr	r3, [r3, #4]
 80011d6:	220c      	movs	r2, #12
 80011d8:	401a      	ands	r2, r3
 80011da:	687b      	ldr	r3, [r7, #4]
 80011dc:	685b      	ldr	r3, [r3, #4]
 80011de:	009b      	lsls	r3, r3, #2
 80011e0:	429a      	cmp	r2, r3
 80011e2:	d1ec      	bne.n	80011be <HAL_RCC_ClockConfig+0xe2>
      }
    }
  }

  /* Decreasing the number of wait states because of lower CPU frequency */
  if(FLatency < __HAL_FLASH_GET_LATENCY())
 80011e4:	4b1e      	ldr	r3, [pc, #120]	; (8001260 <HAL_RCC_ClockConfig+0x184>)
 80011e6:	681b      	ldr	r3, [r3, #0]
 80011e8:	2201      	movs	r2, #1
 80011ea:	4013      	ands	r3, r2
 80011ec:	683a      	ldr	r2, [r7, #0]
 80011ee:	429a      	cmp	r2, r3
 80011f0:	d211      	bcs.n	8001216 <HAL_RCC_ClockConfig+0x13a>
  {    
    /* Program the new number of wait states to the LATENCY bits in the FLASH_ACR register */
    __HAL_FLASH_SET_LATENCY(FLatency);
 80011f2:	4b1b      	ldr	r3, [pc, #108]	; (8001260 <HAL_RCC_ClockConfig+0x184>)
 80011f4:	681b      	ldr	r3, [r3, #0]
 80011f6:	2201      	movs	r2, #1
 80011f8:	4393      	bics	r3, r2
 80011fa:	0019      	movs	r1, r3
 80011fc:	4b18      	ldr	r3, [pc, #96]	; (8001260 <HAL_RCC_ClockConfig+0x184>)
 80011fe:	683a      	ldr	r2, [r7, #0]
 8001200:	430a      	orrs	r2, r1
 8001202:	601a      	str	r2, [r3, #0]
    
    /* Check that the new number of wait states is taken into account to access the Flash
    memory by reading the FLASH_ACR register */
    if(__HAL_FLASH_GET_LATENCY() != FLatency)
 8001204:	4b16      	ldr	r3, [pc, #88]	; (8001260 <HAL_RCC_ClockConfig+0x184>)
 8001206:	681b      	ldr	r3, [r3, #0]
 8001208:	2201      	movs	r2, #1
 800120a:	4013      	ands	r3, r2
 800120c:	683a      	ldr	r2, [r7, #0]
 800120e:	429a      	cmp	r2, r3
 8001210:	d001      	beq.n	8001216 <HAL_RCC_ClockConfig+0x13a>
    {
      return HAL_ERROR;
 8001212:	2301      	movs	r3, #1
 8001214:	e020      	b.n	8001258 <HAL_RCC_ClockConfig+0x17c>
    }
  }    

  /*-------------------------- PCLK1 Configuration ---------------------------*/ 
  if(((RCC_ClkInitStruct->ClockType) & RCC_CLOCKTYPE_PCLK1) == RCC_CLOCKTYPE_PCLK1)
 8001216:	687b      	ldr	r3, [r7, #4]
 8001218:	681b      	ldr	r3, [r3, #0]
 800121a:	2204      	movs	r2, #4
 800121c:	4013      	ands	r3, r2
 800121e:	d009      	beq.n	8001234 <HAL_RCC_ClockConfig+0x158>
  {
    assert_param(IS_RCC_PCLK(RCC_ClkInitStruct->APB1CLKDivider));
    MODIFY_REG(RCC->CFGR, RCC_CFGR_PPRE, RCC_ClkInitStruct->APB1CLKDivider);
 8001220:	4b10      	ldr	r3, [pc, #64]	; (8001264 <HAL_RCC_ClockConfig+0x188>)
 8001222:	685b      	ldr	r3, [r3, #4]
 8001224:	4a11      	ldr	r2, [pc, #68]	; (800126c <HAL_RCC_ClockConfig+0x190>)
 8001226:	4013      	ands	r3, r2
 8001228:	0019      	movs	r1, r3
 800122a:	687b      	ldr	r3, [r7, #4]
 800122c:	68da      	ldr	r2, [r3, #12]
 800122e:	4b0d      	ldr	r3, [pc, #52]	; (8001264 <HAL_RCC_ClockConfig+0x188>)
 8001230:	430a      	orrs	r2, r1
 8001232:	605a      	str	r2, [r3, #4]
  }
  
  /* Update the SystemCoreClock global variable */
  SystemCoreClock = HAL_RCC_GetSysClockFreq() >> AHBPrescTable[(RCC->CFGR & RCC_CFGR_HPRE)>> RCC_CFGR_HPRE_BITNUMBER];
 8001234:	f000 f820 	bl	8001278 <HAL_RCC_GetSysClockFreq>
 8001238:	0001      	movs	r1, r0
 800123a:	4b0a      	ldr	r3, [pc, #40]	; (8001264 <HAL_RCC_ClockConfig+0x188>)
 800123c:	685b      	ldr	r3, [r3, #4]
 800123e:	091b      	lsrs	r3, r3, #4
 8001240:	220f      	movs	r2, #15
 8001242:	4013      	ands	r3, r2
 8001244:	4a0a      	ldr	r2, [pc, #40]	; (8001270 <HAL_RCC_ClockConfig+0x194>)
 8001246:	5cd3      	ldrb	r3, [r2, r3]
 8001248:	000a      	movs	r2, r1
 800124a:	40da      	lsrs	r2, r3
 800124c:	4b09      	ldr	r3, [pc, #36]	; (8001274 <HAL_RCC_ClockConfig+0x198>)
 800124e:	601a      	str	r2, [r3, #0]

  /* Configure the source of time base considering new system clocks settings*/
  HAL_InitTick (TICK_INT_PRIORITY);
 8001250:	2000      	movs	r0, #0
 8001252:	f7ff f995 	bl	8000580 <HAL_InitTick>
  
  return HAL_OK;
 8001256:	2300      	movs	r3, #0
}
 8001258:	0018      	movs	r0, r3
 800125a:	46bd      	mov	sp, r7
 800125c:	b004      	add	sp, #16
 800125e:	bd80      	pop	{r7, pc}
 8001260:	40022000 	.word	0x40022000
 8001264:	40021000 	.word	0x40021000
 8001268:	00001388 	.word	0x00001388
 800126c:	fffff8ff 	.word	0xfffff8ff
 8001270:	08001c70 	.word	0x08001c70
 8001274:	20000000 	.word	0x20000000

08001278 <HAL_RCC_GetSysClockFreq>:
  *         right SYSCLK value. Otherwise, any configuration based on this function will be incorrect.
  *         
  * @retval SYSCLK frequency
  */
uint32_t HAL_RCC_GetSysClockFreq(void)
{
 8001278:	b590      	push	{r4, r7, lr}
 800127a:	b08f      	sub	sp, #60	; 0x3c
 800127c:	af00      	add	r7, sp, #0
  const uint8_t aPLLMULFactorTable[16] = { 2U,  3U,  4U,  5U,  6U,  7U,  8U,  9U,
 800127e:	2314      	movs	r3, #20
 8001280:	18fb      	adds	r3, r7, r3
 8001282:	4a2b      	ldr	r2, [pc, #172]	; (8001330 <HAL_RCC_GetSysClockFreq+0xb8>)
 8001284:	ca13      	ldmia	r2!, {r0, r1, r4}
 8001286:	c313      	stmia	r3!, {r0, r1, r4}
 8001288:	6812      	ldr	r2, [r2, #0]
 800128a:	601a      	str	r2, [r3, #0]
                                         10U, 11U, 12U, 13U, 14U, 15U, 16U, 16U};
  const uint8_t aPredivFactorTable[16] = { 1U, 2U,  3U,  4U,  5U,  6U,  7U,  8U,
 800128c:	1d3b      	adds	r3, r7, #4
 800128e:	4a29      	ldr	r2, [pc, #164]	; (8001334 <HAL_RCC_GetSysClockFreq+0xbc>)
 8001290:	ca13      	ldmia	r2!, {r0, r1, r4}
 8001292:	c313      	stmia	r3!, {r0, r1, r4}
 8001294:	6812      	ldr	r2, [r2, #0]
 8001296:	601a      	str	r2, [r3, #0]
                                           9U,10U, 11U, 12U, 13U, 14U, 15U, 16U};

  uint32_t tmpreg = 0U, prediv = 0U, pllclk = 0U, pllmul = 0U;
 8001298:	2300      	movs	r3, #0
 800129a:	62fb      	str	r3, [r7, #44]	; 0x2c
 800129c:	2300      	movs	r3, #0
 800129e:	62bb      	str	r3, [r7, #40]	; 0x28
 80012a0:	2300      	movs	r3, #0
 80012a2:	637b      	str	r3, [r7, #52]	; 0x34
 80012a4:	2300      	movs	r3, #0
 80012a6:	627b      	str	r3, [r7, #36]	; 0x24
  uint32_t sysclockfreq = 0U;
 80012a8:	2300      	movs	r3, #0
 80012aa:	633b      	str	r3, [r7, #48]	; 0x30
  
  tmpreg = RCC->CFGR;
 80012ac:	4b22      	ldr	r3, [pc, #136]	; (8001338 <HAL_RCC_GetSysClockFreq+0xc0>)
 80012ae:	685b      	ldr	r3, [r3, #4]
 80012b0:	62fb      	str	r3, [r7, #44]	; 0x2c
  
  /* Get SYSCLK source -------------------------------------------------------*/
  switch (tmpreg & RCC_CFGR_SWS)
 80012b2:	6afb      	ldr	r3, [r7, #44]	; 0x2c
 80012b4:	220c      	movs	r2, #12
 80012b6:	4013      	ands	r3, r2
 80012b8:	2b04      	cmp	r3, #4
 80012ba:	d002      	beq.n	80012c2 <HAL_RCC_GetSysClockFreq+0x4a>
 80012bc:	2b08      	cmp	r3, #8
 80012be:	d003      	beq.n	80012c8 <HAL_RCC_GetSysClockFreq+0x50>
 80012c0:	e02d      	b.n	800131e <HAL_RCC_GetSysClockFreq+0xa6>
  {
    case RCC_SYSCLKSOURCE_STATUS_HSE:  /* HSE used as system clock */
    {
      sysclockfreq = HSE_VALUE;
 80012c2:	4b1e      	ldr	r3, [pc, #120]	; (800133c <HAL_RCC_GetSysClockFreq+0xc4>)
 80012c4:	633b      	str	r3, [r7, #48]	; 0x30
      break;
 80012c6:	e02d      	b.n	8001324 <HAL_RCC_GetSysClockFreq+0xac>
    }
    case RCC_SYSCLKSOURCE_STATUS_PLLCLK:  /* PLL used as system clock */
    {
      pllmul = aPLLMULFactorTable[(uint32_t)(tmpreg & RCC_CFGR_PLLMUL) >> RCC_CFGR_PLLMUL_BITNUMBER];
 80012c8:	6afb      	ldr	r3, [r7, #44]	; 0x2c
 80012ca:	0c9b      	lsrs	r3, r3, #18
 80012cc:	220f      	movs	r2, #15
 80012ce:	4013      	ands	r3, r2
 80012d0:	2214      	movs	r2, #20
 80012d2:	18ba      	adds	r2, r7, r2
 80012d4:	5cd3      	ldrb	r3, [r2, r3]
 80012d6:	627b      	str	r3, [r7, #36]	; 0x24
      prediv = aPredivFactorTable[(uint32_t)(RCC->CFGR2 & RCC_CFGR2_PREDIV) >> RCC_CFGR2_PREDIV_BITNUMBER];
 80012d8:	4b17      	ldr	r3, [pc, #92]	; (8001338 <HAL_RCC_GetSysClockFreq+0xc0>)
 80012da:	6adb      	ldr	r3, [r3, #44]	; 0x2c
 80012dc:	220f      	movs	r2, #15
 80012de:	4013      	ands	r3, r2
 80012e0:	1d3a      	adds	r2, r7, #4
 80012e2:	5cd3      	ldrb	r3, [r2, r3]
 80012e4:	62bb      	str	r3, [r7, #40]	; 0x28
      if ((tmpreg & RCC_CFGR_PLLSRC) == RCC_PLLSOURCE_HSE)
 80012e6:	6afa      	ldr	r2, [r7, #44]	; 0x2c
 80012e8:	2380      	movs	r3, #128	; 0x80
 80012ea:	025b      	lsls	r3, r3, #9
 80012ec:	4013      	ands	r3, r2
 80012ee:	d009      	beq.n	8001304 <HAL_RCC_GetSysClockFreq+0x8c>
      {
        /* HSE used as PLL clock source : PLLCLK = HSE/PREDIV * PLLMUL */
        pllclk = (uint32_t)((uint64_t) HSE_VALUE / (uint64_t) (prediv)) * ((uint64_t) pllmul);
 80012f0:	6ab9      	ldr	r1, [r7, #40]	; 0x28
 80012f2:	4812      	ldr	r0, [pc, #72]	; (800133c <HAL_RCC_GetSysClockFreq+0xc4>)
 80012f4:	f7fe ff08 	bl	8000108 <__udivsi3>
 80012f8:	0003      	movs	r3, r0
 80012fa:	001a      	movs	r2, r3
 80012fc:	6a7b      	ldr	r3, [r7, #36]	; 0x24
 80012fe:	4353      	muls	r3, r2
 8001300:	637b      	str	r3, [r7, #52]	; 0x34
 8001302:	e009      	b.n	8001318 <HAL_RCC_GetSysClockFreq+0xa0>
#if  (defined(STM32F042x6) || defined(STM32F048xx) || defined(STM32F070x6) || defined(STM32F071xB) || defined(STM32F072xB) || defined(STM32F078xx) || defined(STM32F070xB) || defined(STM32F091xC) || defined(STM32F098xx) || defined(STM32F030xC))
        /* HSI used as PLL clock source : PLLCLK = HSI/PREDIV * PLLMUL */
        pllclk = (uint32_t)((uint64_t) HSI_VALUE / (uint64_t) (prediv)) * ((uint64_t) pllmul);
#else
        /* HSI used as PLL clock source : PLLCLK = HSI/2 * PLLMUL */
        pllclk = (uint32_t)((uint64_t) (HSI_VALUE >> 1U) * ((uint64_t) pllmul));
 8001304:	6a79      	ldr	r1, [r7, #36]	; 0x24
 8001306:	000a      	movs	r2, r1
 8001308:	0152      	lsls	r2, r2, #5
 800130a:	1a52      	subs	r2, r2, r1
 800130c:	0193      	lsls	r3, r2, #6
 800130e:	1a9b      	subs	r3, r3, r2
 8001310:	00db      	lsls	r3, r3, #3
 8001312:	185b      	adds	r3, r3, r1
 8001314:	021b      	lsls	r3, r3, #8
 8001316:	637b      	str	r3, [r7, #52]	; 0x34
#endif
      }
      sysclockfreq = pllclk;
 8001318:	6b7b      	ldr	r3, [r7, #52]	; 0x34
 800131a:	633b      	str	r3, [r7, #48]	; 0x30
      break;
 800131c:	e002      	b.n	8001324 <HAL_RCC_GetSysClockFreq+0xac>
    }
#endif /* RCC_CFGR_SWS_HSI48 */
    case RCC_SYSCLKSOURCE_STATUS_HSI:  /* HSI used as system clock source */
    default: /* HSI used as system clock */
    {
      sysclockfreq = HSI_VALUE;
 800131e:	4b07      	ldr	r3, [pc, #28]	; (800133c <HAL_RCC_GetSysClockFreq+0xc4>)
 8001320:	633b      	str	r3, [r7, #48]	; 0x30
      break;
 8001322:	46c0      	nop			; (mov r8, r8)
    }
  }
  return sysclockfreq;
 8001324:	6b3b      	ldr	r3, [r7, #48]	; 0x30
}
 8001326:	0018      	movs	r0, r3
 8001328:	46bd      	mov	sp, r7
 800132a:	b00f      	add	sp, #60	; 0x3c
 800132c:	bd90      	pop	{r4, r7, pc}
 800132e:	46c0      	nop			; (mov r8, r8)
 8001330:	08001c50 	.word	0x08001c50
 8001334:	08001c60 	.word	0x08001c60
 8001338:	40021000 	.word	0x40021000
 800133c:	007a1200 	.word	0x007a1200

08001340 <HAL_RCC_GetHCLKFreq>:
  * @note   The SystemCoreClock CMSIS variable is used to store System Clock Frequency 
  *         and updated within this function
  * @retval HCLK frequency
  */
uint32_t HAL_RCC_GetHCLKFreq(void)
{
 8001340:	b580      	push	{r7, lr}
 8001342:	af00      	add	r7, sp, #0
  return SystemCoreClock;
 8001344:	4b02      	ldr	r3, [pc, #8]	; (8001350 <HAL_RCC_GetHCLKFreq+0x10>)
 8001346:	681b      	ldr	r3, [r3, #0]
}
 8001348:	0018      	movs	r0, r3
 800134a:	46bd      	mov	sp, r7
 800134c:	bd80      	pop	{r7, pc}
 800134e:	46c0      	nop			; (mov r8, r8)
 8001350:	20000000 	.word	0x20000000

08001354 <HAL_RCC_GetPCLK1Freq>:
  * @note   Each time PCLK1 changes, this function must be called to update the
  *         right PCLK1 value. Otherwise, any configuration based on this function will be incorrect.
  * @retval PCLK1 frequency
  */
uint32_t HAL_RCC_GetPCLK1Freq(void)
{
 8001354:	b580      	push	{r7, lr}
 8001356:	af00      	add	r7, sp, #0
  /* Get HCLK source and Compute PCLK1 frequency ---------------------------*/
  return (HAL_RCC_GetHCLKFreq() >> APBPrescTable[(RCC->CFGR & RCC_CFGR_PPRE) >> RCC_CFGR_PPRE_BITNUMBER]);
 8001358:	f7ff fff2 	bl	8001340 <HAL_RCC_GetHCLKFreq>
 800135c:	0001      	movs	r1, r0
 800135e:	4b06      	ldr	r3, [pc, #24]	; (8001378 <HAL_RCC_GetPCLK1Freq+0x24>)
 8001360:	685b      	ldr	r3, [r3, #4]
 8001362:	0a1b      	lsrs	r3, r3, #8
 8001364:	2207      	movs	r2, #7
 8001366:	4013      	ands	r3, r2
 8001368:	4a04      	ldr	r2, [pc, #16]	; (800137c <HAL_RCC_GetPCLK1Freq+0x28>)
 800136a:	5cd3      	ldrb	r3, [r2, r3]
 800136c:	40d9      	lsrs	r1, r3
 800136e:	000b      	movs	r3, r1
}    
 8001370:	0018      	movs	r0, r3
 8001372:	46bd      	mov	sp, r7
 8001374:	bd80      	pop	{r7, pc}
 8001376:	46c0      	nop			; (mov r8, r8)
 8001378:	40021000 	.word	0x40021000
 800137c:	08001c80 	.word	0x08001c80

08001380 <HAL_RCCEx_PeriphCLKConfig>:
  *         the backup registers) and RCC_BDCR register are set to their reset values.
  *
  * @retval HAL status
  */
HAL_StatusTypeDef HAL_RCCEx_PeriphCLKConfig(RCC_PeriphCLKInitTypeDef  *PeriphClkInit)
{
 8001380:	b580      	push	{r7, lr}
 8001382:	b086      	sub	sp, #24
 8001384:	af00      	add	r7, sp, #0
 8001386:	6078      	str	r0, [r7, #4]
  uint32_t tickstart = 0U;
 8001388:	2300      	movs	r3, #0
 800138a:	613b      	str	r3, [r7, #16]
  uint32_t temp_reg = 0U;
 800138c:	2300      	movs	r3, #0
 800138e:	60fb      	str	r3, [r7, #12]

  /* Check the parameters */
  assert_param(IS_RCC_PERIPHCLOCK(PeriphClkInit->PeriphClockSelection));
  
  /*---------------------------- RTC configuration -------------------------------*/
  if(((PeriphClkInit->PeriphClockSelection) & RCC_PERIPHCLK_RTC) == (RCC_PERIPHCLK_RTC))
 8001390:	687b      	ldr	r3, [r7, #4]
 8001392:	681a      	ldr	r2, [r3, #0]
 8001394:	2380      	movs	r3, #128	; 0x80
 8001396:	025b      	lsls	r3, r3, #9
 8001398:	4013      	ands	r3, r2
 800139a:	d100      	bne.n	800139e <HAL_RCCEx_PeriphCLKConfig+0x1e>
 800139c:	e08f      	b.n	80014be <HAL_RCCEx_PeriphCLKConfig+0x13e>
  {
    /* check for RTC Parameters used to output RTCCLK */
    assert_param(IS_RCC_RTCCLKSOURCE(PeriphClkInit->RTCClockSelection));
    
    FlagStatus       pwrclkchanged = RESET;
 800139e:	2317      	movs	r3, #23
 80013a0:	18fb      	adds	r3, r7, r3
 80013a2:	2200      	movs	r2, #0
 80013a4:	701a      	strb	r2, [r3, #0]

    /* As soon as function is called to change RTC clock source, activation of the 
       power domain is done. */
    /* Requires to enable write access to Backup Domain of necessary */
    if(__HAL_RCC_PWR_IS_CLK_DISABLED())
 80013a6:	4b5f      	ldr	r3, [pc, #380]	; (8001524 <HAL_RCCEx_PeriphCLKConfig+0x1a4>)
 80013a8:	69da      	ldr	r2, [r3, #28]
 80013aa:	2380      	movs	r3, #128	; 0x80
 80013ac:	055b      	lsls	r3, r3, #21
 80013ae:	4013      	ands	r3, r2
 80013b0:	d111      	bne.n	80013d6 <HAL_RCCEx_PeriphCLKConfig+0x56>
    {
    __HAL_RCC_PWR_CLK_ENABLE();
 80013b2:	4b5c      	ldr	r3, [pc, #368]	; (8001524 <HAL_RCCEx_PeriphCLKConfig+0x1a4>)
 80013b4:	69da      	ldr	r2, [r3, #28]
 80013b6:	4b5b      	ldr	r3, [pc, #364]	; (8001524 <HAL_RCCEx_PeriphCLKConfig+0x1a4>)
 80013b8:	2180      	movs	r1, #128	; 0x80
 80013ba:	0549      	lsls	r1, r1, #21
 80013bc:	430a      	orrs	r2, r1
 80013be:	61da      	str	r2, [r3, #28]
 80013c0:	4b58      	ldr	r3, [pc, #352]	; (8001524 <HAL_RCCEx_PeriphCLKConfig+0x1a4>)
 80013c2:	69da      	ldr	r2, [r3, #28]
 80013c4:	2380      	movs	r3, #128	; 0x80
 80013c6:	055b      	lsls	r3, r3, #21
 80013c8:	4013      	ands	r3, r2
 80013ca:	60bb      	str	r3, [r7, #8]
 80013cc:	68bb      	ldr	r3, [r7, #8]
      pwrclkchanged = SET;
 80013ce:	2317      	movs	r3, #23
 80013d0:	18fb      	adds	r3, r7, r3
 80013d2:	2201      	movs	r2, #1
 80013d4:	701a      	strb	r2, [r3, #0]
    }
    
    if(HAL_IS_BIT_CLR(PWR->CR, PWR_CR_DBP))
 80013d6:	4b54      	ldr	r3, [pc, #336]	; (8001528 <HAL_RCCEx_PeriphCLKConfig+0x1a8>)
 80013d8:	681a      	ldr	r2, [r3, #0]
 80013da:	2380      	movs	r3, #128	; 0x80
 80013dc:	005b      	lsls	r3, r3, #1
 80013de:	4013      	ands	r3, r2
 80013e0:	d11a      	bne.n	8001418 <HAL_RCCEx_PeriphCLKConfig+0x98>
    {
      /* Enable write access to Backup domain */
      SET_BIT(PWR->CR, PWR_CR_DBP);
 80013e2:	4b51      	ldr	r3, [pc, #324]	; (8001528 <HAL_RCCEx_PeriphCLKConfig+0x1a8>)
 80013e4:	681a      	ldr	r2, [r3, #0]
 80013e6:	4b50      	ldr	r3, [pc, #320]	; (8001528 <HAL_RCCEx_PeriphCLKConfig+0x1a8>)
 80013e8:	2180      	movs	r1, #128	; 0x80
 80013ea:	0049      	lsls	r1, r1, #1
 80013ec:	430a      	orrs	r2, r1
 80013ee:	601a      	str	r2, [r3, #0]
      
      /* Wait for Backup domain Write protection disable */
      tickstart = HAL_GetTick();
 80013f0:	f7ff f90c 	bl	800060c <HAL_GetTick>
 80013f4:	0003      	movs	r3, r0
 80013f6:	613b      	str	r3, [r7, #16]
      
      while(HAL_IS_BIT_CLR(PWR->CR, PWR_CR_DBP))
 80013f8:	e008      	b.n	800140c <HAL_RCCEx_PeriphCLKConfig+0x8c>
      {
        if((HAL_GetTick() - tickstart) > RCC_DBP_TIMEOUT_VALUE)
 80013fa:	f7ff f907 	bl	800060c <HAL_GetTick>
 80013fe:	0002      	movs	r2, r0
 8001400:	693b      	ldr	r3, [r7, #16]
 8001402:	1ad3      	subs	r3, r2, r3
 8001404:	2b64      	cmp	r3, #100	; 0x64
 8001406:	d901      	bls.n	800140c <HAL_RCCEx_PeriphCLKConfig+0x8c>
        {
          return HAL_TIMEOUT;
 8001408:	2303      	movs	r3, #3
 800140a:	e087      	b.n	800151c <HAL_RCCEx_PeriphCLKConfig+0x19c>
      while(HAL_IS_BIT_CLR(PWR->CR, PWR_CR_DBP))
 800140c:	4b46      	ldr	r3, [pc, #280]	; (8001528 <HAL_RCCEx_PeriphCLKConfig+0x1a8>)
 800140e:	681a      	ldr	r2, [r3, #0]
 8001410:	2380      	movs	r3, #128	; 0x80
 8001412:	005b      	lsls	r3, r3, #1
 8001414:	4013      	ands	r3, r2
 8001416:	d0f0      	beq.n	80013fa <HAL_RCCEx_PeriphCLKConfig+0x7a>
        }
      }
    }
    
    /* Reset the Backup domain only if the RTC Clock source selection is modified from reset value */ 
    temp_reg = (RCC->BDCR & RCC_BDCR_RTCSEL);
 8001418:	4b42      	ldr	r3, [pc, #264]	; (8001524 <HAL_RCCEx_PeriphCLKConfig+0x1a4>)
 800141a:	6a1a      	ldr	r2, [r3, #32]
 800141c:	23c0      	movs	r3, #192	; 0xc0
 800141e:	009b      	lsls	r3, r3, #2
 8001420:	4013      	ands	r3, r2
 8001422:	60fb      	str	r3, [r7, #12]
    if((temp_reg != 0x00000000U) && (temp_reg != (PeriphClkInit->RTCClockSelection & RCC_BDCR_RTCSEL)))
 8001424:	68fb      	ldr	r3, [r7, #12]
 8001426:	2b00      	cmp	r3, #0
 8001428:	d034      	beq.n	8001494 <HAL_RCCEx_PeriphCLKConfig+0x114>
 800142a:	687b      	ldr	r3, [r7, #4]
 800142c:	685a      	ldr	r2, [r3, #4]
 800142e:	23c0      	movs	r3, #192	; 0xc0
 8001430:	009b      	lsls	r3, r3, #2
 8001432:	4013      	ands	r3, r2
 8001434:	68fa      	ldr	r2, [r7, #12]
 8001436:	429a      	cmp	r2, r3
 8001438:	d02c      	beq.n	8001494 <HAL_RCCEx_PeriphCLKConfig+0x114>
    {
      /* Store the content of BDCR register before the reset of Backup Domain */
      temp_reg = (RCC->BDCR & ~(RCC_BDCR_RTCSEL));
 800143a:	4b3a      	ldr	r3, [pc, #232]	; (8001524 <HAL_RCCEx_PeriphCLKConfig+0x1a4>)
 800143c:	6a1b      	ldr	r3, [r3, #32]
 800143e:	4a3b      	ldr	r2, [pc, #236]	; (800152c <HAL_RCCEx_PeriphCLKConfig+0x1ac>)
 8001440:	4013      	ands	r3, r2
 8001442:	60fb      	str	r3, [r7, #12]
      /* RTC Clock selection can be changed only if the Backup Domain is reset */
      __HAL_RCC_BACKUPRESET_FORCE();
 8001444:	4b37      	ldr	r3, [pc, #220]	; (8001524 <HAL_RCCEx_PeriphCLKConfig+0x1a4>)
 8001446:	6a1a      	ldr	r2, [r3, #32]
 8001448:	4b36      	ldr	r3, [pc, #216]	; (8001524 <HAL_RCCEx_PeriphCLKConfig+0x1a4>)
 800144a:	2180      	movs	r1, #128	; 0x80
 800144c:	0249      	lsls	r1, r1, #9
 800144e:	430a      	orrs	r2, r1
 8001450:	621a      	str	r2, [r3, #32]
      __HAL_RCC_BACKUPRESET_RELEASE();
 8001452:	4b34      	ldr	r3, [pc, #208]	; (8001524 <HAL_RCCEx_PeriphCLKConfig+0x1a4>)
 8001454:	6a1a      	ldr	r2, [r3, #32]
 8001456:	4b33      	ldr	r3, [pc, #204]	; (8001524 <HAL_RCCEx_PeriphCLKConfig+0x1a4>)
 8001458:	4935      	ldr	r1, [pc, #212]	; (8001530 <HAL_RCCEx_PeriphCLKConfig+0x1b0>)
 800145a:	400a      	ands	r2, r1
 800145c:	621a      	str	r2, [r3, #32]
      /* Restore the Content of BDCR register */
      RCC->BDCR = temp_reg;
 800145e:	4b31      	ldr	r3, [pc, #196]	; (8001524 <HAL_RCCEx_PeriphCLKConfig+0x1a4>)
 8001460:	68fa      	ldr	r2, [r7, #12]
 8001462:	621a      	str	r2, [r3, #32]
      
      /* Wait for LSERDY if LSE was enabled */
      if (HAL_IS_BIT_SET(temp_reg, RCC_BDCR_LSEON))
 8001464:	68fb      	ldr	r3, [r7, #12]
 8001466:	2201      	movs	r2, #1
 8001468:	4013      	ands	r3, r2
 800146a:	d013      	beq.n	8001494 <HAL_RCCEx_PeriphCLKConfig+0x114>
      {
        /* Get Start Tick */
        tickstart = HAL_GetTick();
 800146c:	f7ff f8ce 	bl	800060c <HAL_GetTick>
 8001470:	0003      	movs	r3, r0
 8001472:	613b      	str	r3, [r7, #16]
        
        /* Wait till LSE is ready */  
        while(__HAL_RCC_GET_FLAG(RCC_FLAG_LSERDY) == RESET)
 8001474:	e009      	b.n	800148a <HAL_RCCEx_PeriphCLKConfig+0x10a>
        {
          if((HAL_GetTick() - tickstart) > RCC_LSE_TIMEOUT_VALUE)
 8001476:	f7ff f8c9 	bl	800060c <HAL_GetTick>
 800147a:	0002      	movs	r2, r0
 800147c:	693b      	ldr	r3, [r7, #16]
 800147e:	1ad3      	subs	r3, r2, r3
 8001480:	4a2c      	ldr	r2, [pc, #176]	; (8001534 <HAL_RCCEx_PeriphCLKConfig+0x1b4>)
 8001482:	4293      	cmp	r3, r2
 8001484:	d901      	bls.n	800148a <HAL_RCCEx_PeriphCLKConfig+0x10a>
          {
            return HAL_TIMEOUT;
 8001486:	2303      	movs	r3, #3
 8001488:	e048      	b.n	800151c <HAL_RCCEx_PeriphCLKConfig+0x19c>
        while(__HAL_RCC_GET_FLAG(RCC_FLAG_LSERDY) == RESET)
 800148a:	4b26      	ldr	r3, [pc, #152]	; (8001524 <HAL_RCCEx_PeriphCLKConfig+0x1a4>)
 800148c:	6a1b      	ldr	r3, [r3, #32]
 800148e:	2202      	movs	r2, #2
 8001490:	4013      	ands	r3, r2
 8001492:	d0f0      	beq.n	8001476 <HAL_RCCEx_PeriphCLKConfig+0xf6>
          }
        }
      }
    }
    __HAL_RCC_RTC_CONFIG(PeriphClkInit->RTCClockSelection);
 8001494:	4b23      	ldr	r3, [pc, #140]	; (8001524 <HAL_RCCEx_PeriphCLKConfig+0x1a4>)
 8001496:	6a1b      	ldr	r3, [r3, #32]
 8001498:	4a24      	ldr	r2, [pc, #144]	; (800152c <HAL_RCCEx_PeriphCLKConfig+0x1ac>)
 800149a:	4013      	ands	r3, r2
 800149c:	0019      	movs	r1, r3
 800149e:	687b      	ldr	r3, [r7, #4]
 80014a0:	685a      	ldr	r2, [r3, #4]
 80014a2:	4b20      	ldr	r3, [pc, #128]	; (8001524 <HAL_RCCEx_PeriphCLKConfig+0x1a4>)
 80014a4:	430a      	orrs	r2, r1
 80014a6:	621a      	str	r2, [r3, #32]

    /* Require to disable power clock if necessary */
    if(pwrclkchanged == SET)
 80014a8:	2317      	movs	r3, #23
 80014aa:	18fb      	adds	r3, r7, r3
 80014ac:	781b      	ldrb	r3, [r3, #0]
 80014ae:	2b01      	cmp	r3, #1
 80014b0:	d105      	bne.n	80014be <HAL_RCCEx_PeriphCLKConfig+0x13e>
    {
      __HAL_RCC_PWR_CLK_DISABLE();
 80014b2:	4b1c      	ldr	r3, [pc, #112]	; (8001524 <HAL_RCCEx_PeriphCLKConfig+0x1a4>)
 80014b4:	69da      	ldr	r2, [r3, #28]
 80014b6:	4b1b      	ldr	r3, [pc, #108]	; (8001524 <HAL_RCCEx_PeriphCLKConfig+0x1a4>)
 80014b8:	491f      	ldr	r1, [pc, #124]	; (8001538 <HAL_RCCEx_PeriphCLKConfig+0x1b8>)
 80014ba:	400a      	ands	r2, r1
 80014bc:	61da      	str	r2, [r3, #28]
    }
  }

  /*------------------------------- USART1 Configuration ------------------------*/ 
  if(((PeriphClkInit->PeriphClockSelection) & RCC_PERIPHCLK_USART1) == RCC_PERIPHCLK_USART1)
 80014be:	687b      	ldr	r3, [r7, #4]
 80014c0:	681b      	ldr	r3, [r3, #0]
 80014c2:	2201      	movs	r2, #1
 80014c4:	4013      	ands	r3, r2
 80014c6:	d009      	beq.n	80014dc <HAL_RCCEx_PeriphCLKConfig+0x15c>
  {
    /* Check the parameters */
    assert_param(IS_RCC_USART1CLKSOURCE(PeriphClkInit->Usart1ClockSelection));
    
    /* Configure the USART1 clock source */
    __HAL_RCC_USART1_CONFIG(PeriphClkInit->Usart1ClockSelection);
 80014c8:	4b16      	ldr	r3, [pc, #88]	; (8001524 <HAL_RCCEx_PeriphCLKConfig+0x1a4>)
 80014ca:	6b1b      	ldr	r3, [r3, #48]	; 0x30
 80014cc:	2203      	movs	r2, #3
 80014ce:	4393      	bics	r3, r2
 80014d0:	0019      	movs	r1, r3
 80014d2:	687b      	ldr	r3, [r7, #4]
 80014d4:	689a      	ldr	r2, [r3, #8]
 80014d6:	4b13      	ldr	r3, [pc, #76]	; (8001524 <HAL_RCCEx_PeriphCLKConfig+0x1a4>)
 80014d8:	430a      	orrs	r2, r1
 80014da:	631a      	str	r2, [r3, #48]	; 0x30
    __HAL_RCC_USART3_CONFIG(PeriphClkInit->Usart3ClockSelection);
  }
#endif /* STM32F091xC || STM32F098xx */  

  /*------------------------------ I2C1 Configuration ------------------------*/ 
  if(((PeriphClkInit->PeriphClockSelection) & RCC_PERIPHCLK_I2C1) == RCC_PERIPHCLK_I2C1)
 80014dc:	687b      	ldr	r3, [r7, #4]
 80014de:	681b      	ldr	r3, [r3, #0]
 80014e0:	2220      	movs	r2, #32
 80014e2:	4013      	ands	r3, r2
 80014e4:	d009      	beq.n	80014fa <HAL_RCCEx_PeriphCLKConfig+0x17a>
  {
    /* Check the parameters */
    assert_param(IS_RCC_I2C1CLKSOURCE(PeriphClkInit->I2c1ClockSelection));
    
    /* Configure the I2C1 clock source */
    __HAL_RCC_I2C1_CONFIG(PeriphClkInit->I2c1ClockSelection);
 80014e6:	4b0f      	ldr	r3, [pc, #60]	; (8001524 <HAL_RCCEx_PeriphCLKConfig+0x1a4>)
 80014e8:	6b1b      	ldr	r3, [r3, #48]	; 0x30
 80014ea:	2210      	movs	r2, #16
 80014ec:	4393      	bics	r3, r2
 80014ee:	0019      	movs	r1, r3
 80014f0:	687b      	ldr	r3, [r7, #4]
 80014f2:	68da      	ldr	r2, [r3, #12]
 80014f4:	4b0b      	ldr	r3, [pc, #44]	; (8001524 <HAL_RCCEx_PeriphCLKConfig+0x1a4>)
 80014f6:	430a      	orrs	r2, r1
 80014f8:	631a      	str	r2, [r3, #48]	; 0x30
#if defined(STM32F042x6) || defined(STM32F048xx)\
 || defined(STM32F051x8) || defined(STM32F058xx)\
 || defined(STM32F071xB) || defined(STM32F072xB) || defined(STM32F078xx)\
 || defined(STM32F091xC) || defined(STM32F098xx)
  /*------------------------------ CEC clock Configuration -------------------*/ 
  if(((PeriphClkInit->PeriphClockSelection) & RCC_PERIPHCLK_CEC) == RCC_PERIPHCLK_CEC)
 80014fa:	687b      	ldr	r3, [r7, #4]
 80014fc:	681a      	ldr	r2, [r3, #0]
 80014fe:	2380      	movs	r3, #128	; 0x80
 8001500:	00db      	lsls	r3, r3, #3
 8001502:	4013      	ands	r3, r2
 8001504:	d009      	beq.n	800151a <HAL_RCCEx_PeriphCLKConfig+0x19a>
  {
    /* Check the parameters */
    assert_param(IS_RCC_CECCLKSOURCE(PeriphClkInit->CecClockSelection));
    
    /* Configure the CEC clock source */
    __HAL_RCC_CEC_CONFIG(PeriphClkInit->CecClockSelection);
 8001506:	4b07      	ldr	r3, [pc, #28]	; (8001524 <HAL_RCCEx_PeriphCLKConfig+0x1a4>)
 8001508:	6b1b      	ldr	r3, [r3, #48]	; 0x30
 800150a:	2240      	movs	r2, #64	; 0x40
 800150c:	4393      	bics	r3, r2
 800150e:	0019      	movs	r1, r3
 8001510:	687b      	ldr	r3, [r7, #4]
 8001512:	691a      	ldr	r2, [r3, #16]
 8001514:	4b03      	ldr	r3, [pc, #12]	; (8001524 <HAL_RCCEx_PeriphCLKConfig+0x1a4>)
 8001516:	430a      	orrs	r2, r1
 8001518:	631a      	str	r2, [r3, #48]	; 0x30
#endif /* STM32F042x6 || STM32F048xx ||                */
       /* STM32F051x8 || STM32F058xx ||                */
       /* STM32F071xB || STM32F072xB || STM32F078xx || */
       /* STM32F091xC || STM32F098xx */
  
  return HAL_OK;
 800151a:	2300      	movs	r3, #0
}
 800151c:	0018      	movs	r0, r3
 800151e:	46bd      	mov	sp, r7
 8001520:	b006      	add	sp, #24
 8001522:	bd80      	pop	{r7, pc}
 8001524:	40021000 	.word	0x40021000
 8001528:	40007000 	.word	0x40007000
 800152c:	fffffcff 	.word	0xfffffcff
 8001530:	fffeffff 	.word	0xfffeffff
 8001534:	00001388 	.word	0x00001388
 8001538:	efffffff 	.word	0xefffffff

0800153c <HAL_UART_Init>:
  *        parameters in the UART_InitTypeDef and initialize the associated handle.
  * @param huart UART handle.
  * @retval HAL status
  */
HAL_StatusTypeDef HAL_UART_Init(UART_HandleTypeDef *huart)
{
 800153c:	b580      	push	{r7, lr}
 800153e:	b082      	sub	sp, #8
 8001540:	af00      	add	r7, sp, #0
 8001542:	6078      	str	r0, [r7, #4]
  /* Check the UART handle allocation */
  if (huart == NULL)
 8001544:	687b      	ldr	r3, [r7, #4]
 8001546:	2b00      	cmp	r3, #0
 8001548:	d101      	bne.n	800154e <HAL_UART_Init+0x12>
  {
    return HAL_ERROR;
 800154a:	2301      	movs	r3, #1
 800154c:	e044      	b.n	80015d8 <HAL_UART_Init+0x9c>
  {
    /* Check the parameters */
    assert_param(IS_UART_INSTANCE(huart->Instance));
  }

  if (huart->gState == HAL_UART_STATE_RESET)
 800154e:	687b      	ldr	r3, [r7, #4]
 8001550:	6f5b      	ldr	r3, [r3, #116]	; 0x74
 8001552:	2b00      	cmp	r3, #0
 8001554:	d107      	bne.n	8001566 <HAL_UART_Init+0x2a>
  {
    /* Allocate lock resource and initialize it */
    huart->Lock = HAL_UNLOCKED;
 8001556:	687b      	ldr	r3, [r7, #4]
 8001558:	2270      	movs	r2, #112	; 0x70
 800155a:	2100      	movs	r1, #0
 800155c:	5499      	strb	r1, [r3, r2]

    /* Init the low level hardware */
    huart->MspInitCallback(huart);
#else
    /* Init the low level hardware : GPIO, CLOCK */
    HAL_UART_MspInit(huart);
 800155e:	687b      	ldr	r3, [r7, #4]
 8001560:	0018      	movs	r0, r3
 8001562:	f7fe ff63 	bl	800042c <HAL_UART_MspInit>
#endif /* (USE_HAL_UART_REGISTER_CALLBACKS) */
  }

  huart->gState = HAL_UART_STATE_BUSY;
 8001566:	687b      	ldr	r3, [r7, #4]
 8001568:	2224      	movs	r2, #36	; 0x24
 800156a:	675a      	str	r2, [r3, #116]	; 0x74

  __HAL_UART_DISABLE(huart);
 800156c:	687b      	ldr	r3, [r7, #4]
 800156e:	681b      	ldr	r3, [r3, #0]
 8001570:	681a      	ldr	r2, [r3, #0]
 8001572:	687b      	ldr	r3, [r7, #4]
 8001574:	681b      	ldr	r3, [r3, #0]
 8001576:	2101      	movs	r1, #1
 8001578:	438a      	bics	r2, r1
 800157a:	601a      	str	r2, [r3, #0]

  /* Set the UART Communication parameters */
  if (UART_SetConfig(huart) == HAL_ERROR)
 800157c:	687b      	ldr	r3, [r7, #4]
 800157e:	0018      	movs	r0, r3
 8001580:	f000 f830 	bl	80015e4 <UART_SetConfig>
 8001584:	0003      	movs	r3, r0
 8001586:	2b01      	cmp	r3, #1
 8001588:	d101      	bne.n	800158e <HAL_UART_Init+0x52>
  {
    return HAL_ERROR;
 800158a:	2301      	movs	r3, #1
 800158c:	e024      	b.n	80015d8 <HAL_UART_Init+0x9c>
  }

  if (huart->AdvancedInit.AdvFeatureInit != UART_ADVFEATURE_NO_INIT)
 800158e:	687b      	ldr	r3, [r7, #4]
 8001590:	6a5b      	ldr	r3, [r3, #36]	; 0x24
 8001592:	2b00      	cmp	r3, #0
 8001594:	d003      	beq.n	800159e <HAL_UART_Init+0x62>
  {
    UART_AdvFeatureConfig(huart);
 8001596:	687b      	ldr	r3, [r7, #4]
 8001598:	0018      	movs	r0, r3
 800159a:	f000 f9a9 	bl	80018f0 <UART_AdvFeatureConfig>

  /* In asynchronous mode, the following bits must be kept cleared:
  - LINEN (if LIN is supported) and CLKEN bits in the USART_CR2 register,
  - SCEN (if Smartcard is supported), HDSEL and IREN (if IrDA is supported)  bits in the USART_CR3 register.*/
#if defined (USART_CR2_LINEN)
  CLEAR_BIT(huart->Instance->CR2, (USART_CR2_LINEN | USART_CR2_CLKEN));
 800159e:	687b      	ldr	r3, [r7, #4]
 80015a0:	681b      	ldr	r3, [r3, #0]
 80015a2:	685a      	ldr	r2, [r3, #4]
 80015a4:	687b      	ldr	r3, [r7, #4]
 80015a6:	681b      	ldr	r3, [r3, #0]
 80015a8:	490d      	ldr	r1, [pc, #52]	; (80015e0 <HAL_UART_Init+0xa4>)
 80015aa:	400a      	ands	r2, r1
 80015ac:	605a      	str	r2, [r3, #4]
#else
  CLEAR_BIT(huart->Instance->CR2, USART_CR2_CLKEN);
#endif /* USART_CR2_LINEN */
#if defined (USART_CR3_SCEN)
#if defined (USART_CR3_IREN)
  CLEAR_BIT(huart->Instance->CR3, (USART_CR3_SCEN | USART_CR3_HDSEL | USART_CR3_IREN));
 80015ae:	687b      	ldr	r3, [r7, #4]
 80015b0:	681b      	ldr	r3, [r3, #0]
 80015b2:	689a      	ldr	r2, [r3, #8]
 80015b4:	687b      	ldr	r3, [r7, #4]
 80015b6:	681b      	ldr	r3, [r3, #0]
 80015b8:	212a      	movs	r1, #42	; 0x2a
 80015ba:	438a      	bics	r2, r1
 80015bc:	609a      	str	r2, [r3, #8]
#else
  CLEAR_BIT(huart->Instance->CR3, USART_CR3_HDSEL);
#endif /* USART_CR3_IREN*/
#endif /* USART_CR3_SCEN */

  __HAL_UART_ENABLE(huart);
 80015be:	687b      	ldr	r3, [r7, #4]
 80015c0:	681b      	ldr	r3, [r3, #0]
 80015c2:	681a      	ldr	r2, [r3, #0]
 80015c4:	687b      	ldr	r3, [r7, #4]
 80015c6:	681b      	ldr	r3, [r3, #0]
 80015c8:	2101      	movs	r1, #1
 80015ca:	430a      	orrs	r2, r1
 80015cc:	601a      	str	r2, [r3, #0]

  /* TEACK and/or REACK to check before moving huart->gState and huart->RxState to Ready */
  return (UART_CheckIdleState(huart));
 80015ce:	687b      	ldr	r3, [r7, #4]
 80015d0:	0018      	movs	r0, r3
 80015d2:	f000 fa41 	bl	8001a58 <UART_CheckIdleState>
 80015d6:	0003      	movs	r3, r0
}
 80015d8:	0018      	movs	r0, r3
 80015da:	46bd      	mov	sp, r7
 80015dc:	b002      	add	sp, #8
 80015de:	bd80      	pop	{r7, pc}
 80015e0:	ffffb7ff 	.word	0xffffb7ff

080015e4 <UART_SetConfig>:
  * @brief Configure the UART peripheral.
  * @param huart UART handle.
  * @retval HAL status
  */
HAL_StatusTypeDef UART_SetConfig(UART_HandleTypeDef *huart)
{
 80015e4:	b580      	push	{r7, lr}
 80015e6:	b088      	sub	sp, #32
 80015e8:	af00      	add	r7, sp, #0
 80015ea:	6078      	str	r0, [r7, #4]
  uint32_t tmpreg;
  uint16_t brrtemp;
  UART_ClockSourceTypeDef clocksource;
  uint32_t usartdiv                   = 0x00000000U;
 80015ec:	2300      	movs	r3, #0
 80015ee:	61bb      	str	r3, [r7, #24]
  HAL_StatusTypeDef ret               = HAL_OK;
 80015f0:	2317      	movs	r3, #23
 80015f2:	18fb      	adds	r3, r7, r3
 80015f4:	2200      	movs	r2, #0
 80015f6:	701a      	strb	r2, [r3, #0]
  *  the UART Word Length, Parity, Mode and oversampling:
  *  set the M bits according to huart->Init.WordLength value
  *  set PCE and PS bits according to huart->Init.Parity value
  *  set TE and RE bits according to huart->Init.Mode value
  *  set OVER8 bit according to huart->Init.OverSampling value */
  tmpreg = (uint32_t)huart->Init.WordLength | huart->Init.Parity | huart->Init.Mode | huart->Init.OverSampling ;
 80015f8:	687b      	ldr	r3, [r7, #4]
 80015fa:	689a      	ldr	r2, [r3, #8]
 80015fc:	687b      	ldr	r3, [r7, #4]
 80015fe:	691b      	ldr	r3, [r3, #16]
 8001600:	431a      	orrs	r2, r3
 8001602:	687b      	ldr	r3, [r7, #4]
 8001604:	695b      	ldr	r3, [r3, #20]
 8001606:	431a      	orrs	r2, r3
 8001608:	687b      	ldr	r3, [r7, #4]
 800160a:	69db      	ldr	r3, [r3, #28]
 800160c:	4313      	orrs	r3, r2
 800160e:	613b      	str	r3, [r7, #16]
  MODIFY_REG(huart->Instance->CR1, USART_CR1_FIELDS, tmpreg);
 8001610:	687b      	ldr	r3, [r7, #4]
 8001612:	681b      	ldr	r3, [r3, #0]
 8001614:	681b      	ldr	r3, [r3, #0]
 8001616:	4aad      	ldr	r2, [pc, #692]	; (80018cc <UART_SetConfig+0x2e8>)
 8001618:	4013      	ands	r3, r2
 800161a:	0019      	movs	r1, r3
 800161c:	687b      	ldr	r3, [r7, #4]
 800161e:	681b      	ldr	r3, [r3, #0]
 8001620:	693a      	ldr	r2, [r7, #16]
 8001622:	430a      	orrs	r2, r1
 8001624:	601a      	str	r2, [r3, #0]

  /*-------------------------- USART CR2 Configuration -----------------------*/
  /* Configure the UART Stop Bits: Set STOP[13:12] bits according
  * to huart->Init.StopBits value */
  MODIFY_REG(huart->Instance->CR2, USART_CR2_STOP, huart->Init.StopBits);
 8001626:	687b      	ldr	r3, [r7, #4]
 8001628:	681b      	ldr	r3, [r3, #0]
 800162a:	685b      	ldr	r3, [r3, #4]
 800162c:	4aa8      	ldr	r2, [pc, #672]	; (80018d0 <UART_SetConfig+0x2ec>)
 800162e:	4013      	ands	r3, r2
 8001630:	0019      	movs	r1, r3
 8001632:	687b      	ldr	r3, [r7, #4]
 8001634:	68da      	ldr	r2, [r3, #12]
 8001636:	687b      	ldr	r3, [r7, #4]
 8001638:	681b      	ldr	r3, [r3, #0]
 800163a:	430a      	orrs	r2, r1
 800163c:	605a      	str	r2, [r3, #4]
  /* Configure
  * - UART HardWare Flow Control: set CTSE and RTSE bits according
  *   to huart->Init.HwFlowCtl value
  * - one-bit sampling method versus three samples' majority rule according
  *   to huart->Init.OneBitSampling (not applicable to LPUART) */
  tmpreg = (uint32_t)huart->Init.HwFlowCtl;
 800163e:	687b      	ldr	r3, [r7, #4]
 8001640:	699b      	ldr	r3, [r3, #24]
 8001642:	613b      	str	r3, [r7, #16]

  tmpreg |= huart->Init.OneBitSampling;
 8001644:	687b      	ldr	r3, [r7, #4]
 8001646:	6a1b      	ldr	r3, [r3, #32]
 8001648:	693a      	ldr	r2, [r7, #16]
 800164a:	4313      	orrs	r3, r2
 800164c:	613b      	str	r3, [r7, #16]
  MODIFY_REG(huart->Instance->CR3, USART_CR3_FIELDS, tmpreg);
 800164e:	687b      	ldr	r3, [r7, #4]
 8001650:	681b      	ldr	r3, [r3, #0]
 8001652:	689b      	ldr	r3, [r3, #8]
 8001654:	4a9f      	ldr	r2, [pc, #636]	; (80018d4 <UART_SetConfig+0x2f0>)
 8001656:	4013      	ands	r3, r2
 8001658:	0019      	movs	r1, r3
 800165a:	687b      	ldr	r3, [r7, #4]
 800165c:	681b      	ldr	r3, [r3, #0]
 800165e:	693a      	ldr	r2, [r7, #16]
 8001660:	430a      	orrs	r2, r1
 8001662:	609a      	str	r2, [r3, #8]


  /*-------------------------- USART BRR Configuration -----------------------*/
  UART_GETCLOCKSOURCE(huart, clocksource);
 8001664:	687b      	ldr	r3, [r7, #4]
 8001666:	681b      	ldr	r3, [r3, #0]
 8001668:	4a9b      	ldr	r2, [pc, #620]	; (80018d8 <UART_SetConfig+0x2f4>)
 800166a:	4293      	cmp	r3, r2
 800166c:	d125      	bne.n	80016ba <UART_SetConfig+0xd6>
 800166e:	4b9b      	ldr	r3, [pc, #620]	; (80018dc <UART_SetConfig+0x2f8>)
 8001670:	6b1b      	ldr	r3, [r3, #48]	; 0x30
 8001672:	2203      	movs	r2, #3
 8001674:	4013      	ands	r3, r2
 8001676:	2b01      	cmp	r3, #1
 8001678:	d00f      	beq.n	800169a <UART_SetConfig+0xb6>
 800167a:	d304      	bcc.n	8001686 <UART_SetConfig+0xa2>
 800167c:	2b02      	cmp	r3, #2
 800167e:	d011      	beq.n	80016a4 <UART_SetConfig+0xc0>
 8001680:	2b03      	cmp	r3, #3
 8001682:	d005      	beq.n	8001690 <UART_SetConfig+0xac>
 8001684:	e013      	b.n	80016ae <UART_SetConfig+0xca>
 8001686:	231f      	movs	r3, #31
 8001688:	18fb      	adds	r3, r7, r3
 800168a:	2200      	movs	r2, #0
 800168c:	701a      	strb	r2, [r3, #0]
 800168e:	e022      	b.n	80016d6 <UART_SetConfig+0xf2>
 8001690:	231f      	movs	r3, #31
 8001692:	18fb      	adds	r3, r7, r3
 8001694:	2202      	movs	r2, #2
 8001696:	701a      	strb	r2, [r3, #0]
 8001698:	e01d      	b.n	80016d6 <UART_SetConfig+0xf2>
 800169a:	231f      	movs	r3, #31
 800169c:	18fb      	adds	r3, r7, r3
 800169e:	2204      	movs	r2, #4
 80016a0:	701a      	strb	r2, [r3, #0]
 80016a2:	e018      	b.n	80016d6 <UART_SetConfig+0xf2>
 80016a4:	231f      	movs	r3, #31
 80016a6:	18fb      	adds	r3, r7, r3
 80016a8:	2208      	movs	r2, #8
 80016aa:	701a      	strb	r2, [r3, #0]
 80016ac:	e013      	b.n	80016d6 <UART_SetConfig+0xf2>
 80016ae:	231f      	movs	r3, #31
 80016b0:	18fb      	adds	r3, r7, r3
 80016b2:	2210      	movs	r2, #16
 80016b4:	701a      	strb	r2, [r3, #0]
 80016b6:	46c0      	nop			; (mov r8, r8)
 80016b8:	e00d      	b.n	80016d6 <UART_SetConfig+0xf2>
 80016ba:	687b      	ldr	r3, [r7, #4]
 80016bc:	681b      	ldr	r3, [r3, #0]
 80016be:	4a88      	ldr	r2, [pc, #544]	; (80018e0 <UART_SetConfig+0x2fc>)
 80016c0:	4293      	cmp	r3, r2
 80016c2:	d104      	bne.n	80016ce <UART_SetConfig+0xea>
 80016c4:	231f      	movs	r3, #31
 80016c6:	18fb      	adds	r3, r7, r3
 80016c8:	2200      	movs	r2, #0
 80016ca:	701a      	strb	r2, [r3, #0]
 80016cc:	e003      	b.n	80016d6 <UART_SetConfig+0xf2>
 80016ce:	231f      	movs	r3, #31
 80016d0:	18fb      	adds	r3, r7, r3
 80016d2:	2210      	movs	r2, #16
 80016d4:	701a      	strb	r2, [r3, #0]

  if (huart->Init.OverSampling == UART_OVERSAMPLING_8)
 80016d6:	687b      	ldr	r3, [r7, #4]
 80016d8:	69da      	ldr	r2, [r3, #28]
 80016da:	2380      	movs	r3, #128	; 0x80
 80016dc:	021b      	lsls	r3, r3, #8
 80016de:	429a      	cmp	r2, r3
 80016e0:	d000      	beq.n	80016e4 <UART_SetConfig+0x100>
 80016e2:	e07d      	b.n	80017e0 <UART_SetConfig+0x1fc>
  {
    switch (clocksource)
 80016e4:	231f      	movs	r3, #31
 80016e6:	18fb      	adds	r3, r7, r3
 80016e8:	781b      	ldrb	r3, [r3, #0]
 80016ea:	2b02      	cmp	r3, #2
 80016ec:	d01c      	beq.n	8001728 <UART_SetConfig+0x144>
 80016ee:	dc02      	bgt.n	80016f6 <UART_SetConfig+0x112>
 80016f0:	2b00      	cmp	r3, #0
 80016f2:	d005      	beq.n	8001700 <UART_SetConfig+0x11c>
 80016f4:	e04b      	b.n	800178e <UART_SetConfig+0x1aa>
 80016f6:	2b04      	cmp	r3, #4
 80016f8:	d025      	beq.n	8001746 <UART_SetConfig+0x162>
 80016fa:	2b08      	cmp	r3, #8
 80016fc:	d037      	beq.n	800176e <UART_SetConfig+0x18a>
 80016fe:	e046      	b.n	800178e <UART_SetConfig+0x1aa>
    {
      case UART_CLOCKSOURCE_PCLK1:
        pclk = HAL_RCC_GetPCLK1Freq();
 8001700:	f7ff fe28 	bl	8001354 <HAL_RCC_GetPCLK1Freq>
 8001704:	0003      	movs	r3, r0
 8001706:	60fb      	str	r3, [r7, #12]
        usartdiv = (uint16_t)(UART_DIV_SAMPLING8(pclk, huart->Init.BaudRate));
 8001708:	68fb      	ldr	r3, [r7, #12]
 800170a:	005a      	lsls	r2, r3, #1
 800170c:	687b      	ldr	r3, [r7, #4]
 800170e:	685b      	ldr	r3, [r3, #4]
 8001710:	085b      	lsrs	r3, r3, #1
 8001712:	18d2      	adds	r2, r2, r3
 8001714:	687b      	ldr	r3, [r7, #4]
 8001716:	685b      	ldr	r3, [r3, #4]
 8001718:	0019      	movs	r1, r3
 800171a:	0010      	movs	r0, r2
 800171c:	f7fe fcf4 	bl	8000108 <__udivsi3>
 8001720:	0003      	movs	r3, r0
 8001722:	b29b      	uxth	r3, r3
 8001724:	61bb      	str	r3, [r7, #24]
        break;
 8001726:	e037      	b.n	8001798 <UART_SetConfig+0x1b4>
      case UART_CLOCKSOURCE_HSI:
        usartdiv = (uint16_t)(UART_DIV_SAMPLING8(HSI_VALUE, huart->Init.BaudRate));
 8001728:	687b      	ldr	r3, [r7, #4]
 800172a:	685b      	ldr	r3, [r3, #4]
 800172c:	085b      	lsrs	r3, r3, #1
 800172e:	4a6d      	ldr	r2, [pc, #436]	; (80018e4 <UART_SetConfig+0x300>)
 8001730:	189a      	adds	r2, r3, r2
 8001732:	687b      	ldr	r3, [r7, #4]
 8001734:	685b      	ldr	r3, [r3, #4]
 8001736:	0019      	movs	r1, r3
 8001738:	0010      	movs	r0, r2
 800173a:	f7fe fce5 	bl	8000108 <__udivsi3>
 800173e:	0003      	movs	r3, r0
 8001740:	b29b      	uxth	r3, r3
 8001742:	61bb      	str	r3, [r7, #24]
        break;
 8001744:	e028      	b.n	8001798 <UART_SetConfig+0x1b4>
      case UART_CLOCKSOURCE_SYSCLK:
        pclk = HAL_RCC_GetSysClockFreq();
 8001746:	f7ff fd97 	bl	8001278 <HAL_RCC_GetSysClockFreq>
 800174a:	0003      	movs	r3, r0
 800174c:	60fb      	str	r3, [r7, #12]
        usartdiv = (uint16_t)(UART_DIV_SAMPLING8(pclk, huart->Init.BaudRate));
 800174e:	68fb      	ldr	r3, [r7, #12]
 8001750:	005a      	lsls	r2, r3, #1
 8001752:	687b      	ldr	r3, [r7, #4]
 8001754:	685b      	ldr	r3, [r3, #4]
 8001756:	085b      	lsrs	r3, r3, #1
 8001758:	18d2      	adds	r2, r2, r3
 800175a:	687b      	ldr	r3, [r7, #4]
 800175c:	685b      	ldr	r3, [r3, #4]
 800175e:	0019      	movs	r1, r3
 8001760:	0010      	movs	r0, r2
 8001762:	f7fe fcd1 	bl	8000108 <__udivsi3>
 8001766:	0003      	movs	r3, r0
 8001768:	b29b      	uxth	r3, r3
 800176a:	61bb      	str	r3, [r7, #24]
        break;
 800176c:	e014      	b.n	8001798 <UART_SetConfig+0x1b4>
      case UART_CLOCKSOURCE_LSE:
        usartdiv = (uint16_t)(UART_DIV_SAMPLING8(LSE_VALUE, huart->Init.BaudRate));
 800176e:	687b      	ldr	r3, [r7, #4]
 8001770:	685b      	ldr	r3, [r3, #4]
 8001772:	085b      	lsrs	r3, r3, #1
 8001774:	2280      	movs	r2, #128	; 0x80
 8001776:	0252      	lsls	r2, r2, #9
 8001778:	189a      	adds	r2, r3, r2
 800177a:	687b      	ldr	r3, [r7, #4]
 800177c:	685b      	ldr	r3, [r3, #4]
 800177e:	0019      	movs	r1, r3
 8001780:	0010      	movs	r0, r2
 8001782:	f7fe fcc1 	bl	8000108 <__udivsi3>
 8001786:	0003      	movs	r3, r0
 8001788:	b29b      	uxth	r3, r3
 800178a:	61bb      	str	r3, [r7, #24]
        break;
 800178c:	e004      	b.n	8001798 <UART_SetConfig+0x1b4>
      default:
        ret = HAL_ERROR;
 800178e:	2317      	movs	r3, #23
 8001790:	18fb      	adds	r3, r7, r3
 8001792:	2201      	movs	r2, #1
 8001794:	701a      	strb	r2, [r3, #0]
        break;
 8001796:	46c0      	nop			; (mov r8, r8)
    }

    /* USARTDIV must be greater than or equal to 0d16 */
    if ((usartdiv >= UART_BRR_MIN) && (usartdiv <= UART_BRR_MAX))
 8001798:	69bb      	ldr	r3, [r7, #24]
 800179a:	2b0f      	cmp	r3, #15
 800179c:	d91b      	bls.n	80017d6 <UART_SetConfig+0x1f2>
 800179e:	69bb      	ldr	r3, [r7, #24]
 80017a0:	4a51      	ldr	r2, [pc, #324]	; (80018e8 <UART_SetConfig+0x304>)
 80017a2:	4293      	cmp	r3, r2
 80017a4:	d817      	bhi.n	80017d6 <UART_SetConfig+0x1f2>
    {
      brrtemp = (uint16_t)(usartdiv & 0xFFF0U);
 80017a6:	69bb      	ldr	r3, [r7, #24]
 80017a8:	b29a      	uxth	r2, r3
 80017aa:	200a      	movs	r0, #10
 80017ac:	183b      	adds	r3, r7, r0
 80017ae:	210f      	movs	r1, #15
 80017b0:	438a      	bics	r2, r1
 80017b2:	801a      	strh	r2, [r3, #0]
      brrtemp |= (uint16_t)((usartdiv & (uint16_t)0x000FU) >> 1U);
 80017b4:	69bb      	ldr	r3, [r7, #24]
 80017b6:	085b      	lsrs	r3, r3, #1
 80017b8:	b29b      	uxth	r3, r3
 80017ba:	2207      	movs	r2, #7
 80017bc:	4013      	ands	r3, r2
 80017be:	b299      	uxth	r1, r3
 80017c0:	183b      	adds	r3, r7, r0
 80017c2:	183a      	adds	r2, r7, r0
 80017c4:	8812      	ldrh	r2, [r2, #0]
 80017c6:	430a      	orrs	r2, r1
 80017c8:	801a      	strh	r2, [r3, #0]
      huart->Instance->BRR = brrtemp;
 80017ca:	687b      	ldr	r3, [r7, #4]
 80017cc:	681b      	ldr	r3, [r3, #0]
 80017ce:	183a      	adds	r2, r7, r0
 80017d0:	8812      	ldrh	r2, [r2, #0]
 80017d2:	60da      	str	r2, [r3, #12]
 80017d4:	e06c      	b.n	80018b0 <UART_SetConfig+0x2cc>
    }
    else
    {
      ret = HAL_ERROR;
 80017d6:	2317      	movs	r3, #23
 80017d8:	18fb      	adds	r3, r7, r3
 80017da:	2201      	movs	r2, #1
 80017dc:	701a      	strb	r2, [r3, #0]
 80017de:	e067      	b.n	80018b0 <UART_SetConfig+0x2cc>
    }
  }
  else
  {
    switch (clocksource)
 80017e0:	231f      	movs	r3, #31
 80017e2:	18fb      	adds	r3, r7, r3
 80017e4:	781b      	ldrb	r3, [r3, #0]
 80017e6:	2b02      	cmp	r3, #2
 80017e8:	d01b      	beq.n	8001822 <UART_SetConfig+0x23e>
 80017ea:	dc02      	bgt.n	80017f2 <UART_SetConfig+0x20e>
 80017ec:	2b00      	cmp	r3, #0
 80017ee:	d005      	beq.n	80017fc <UART_SetConfig+0x218>
 80017f0:	e049      	b.n	8001886 <UART_SetConfig+0x2a2>
 80017f2:	2b04      	cmp	r3, #4
 80017f4:	d024      	beq.n	8001840 <UART_SetConfig+0x25c>
 80017f6:	2b08      	cmp	r3, #8
 80017f8:	d035      	beq.n	8001866 <UART_SetConfig+0x282>
 80017fa:	e044      	b.n	8001886 <UART_SetConfig+0x2a2>
    {
      case UART_CLOCKSOURCE_PCLK1:
        pclk = HAL_RCC_GetPCLK1Freq();
 80017fc:	f7ff fdaa 	bl	8001354 <HAL_RCC_GetPCLK1Freq>
 8001800:	0003      	movs	r3, r0
 8001802:	60fb      	str	r3, [r7, #12]
        usartdiv = (uint16_t)(UART_DIV_SAMPLING16(pclk, huart->Init.BaudRate));
 8001804:	687b      	ldr	r3, [r7, #4]
 8001806:	685b      	ldr	r3, [r3, #4]
 8001808:	085a      	lsrs	r2, r3, #1
 800180a:	68fb      	ldr	r3, [r7, #12]
 800180c:	18d2      	adds	r2, r2, r3
 800180e:	687b      	ldr	r3, [r7, #4]
 8001810:	685b      	ldr	r3, [r3, #4]
 8001812:	0019      	movs	r1, r3
 8001814:	0010      	movs	r0, r2
 8001816:	f7fe fc77 	bl	8000108 <__udivsi3>
 800181a:	0003      	movs	r3, r0
 800181c:	b29b      	uxth	r3, r3
 800181e:	61bb      	str	r3, [r7, #24]
        break;
 8001820:	e036      	b.n	8001890 <UART_SetConfig+0x2ac>
      case UART_CLOCKSOURCE_HSI:
        usartdiv = (uint16_t)(UART_DIV_SAMPLING16(HSI_VALUE, huart->Init.BaudRate));
 8001822:	687b      	ldr	r3, [r7, #4]
 8001824:	685b      	ldr	r3, [r3, #4]
 8001826:	085b      	lsrs	r3, r3, #1
 8001828:	4a30      	ldr	r2, [pc, #192]	; (80018ec <UART_SetConfig+0x308>)
 800182a:	189a      	adds	r2, r3, r2
 800182c:	687b      	ldr	r3, [r7, #4]
 800182e:	685b      	ldr	r3, [r3, #4]
 8001830:	0019      	movs	r1, r3
 8001832:	0010      	movs	r0, r2
 8001834:	f7fe fc68 	bl	8000108 <__udivsi3>
 8001838:	0003      	movs	r3, r0
 800183a:	b29b      	uxth	r3, r3
 800183c:	61bb      	str	r3, [r7, #24]
        break;
 800183e:	e027      	b.n	8001890 <UART_SetConfig+0x2ac>
      case UART_CLOCKSOURCE_SYSCLK:
        pclk = HAL_RCC_GetSysClockFreq();
 8001840:	f7ff fd1a 	bl	8001278 <HAL_RCC_GetSysClockFreq>
 8001844:	0003      	movs	r3, r0
 8001846:	60fb      	str	r3, [r7, #12]
        usartdiv = (uint16_t)(UART_DIV_SAMPLING16(pclk, huart->Init.BaudRate));
 8001848:	687b      	ldr	r3, [r7, #4]
 800184a:	685b      	ldr	r3, [r3, #4]
 800184c:	085a      	lsrs	r2, r3, #1
 800184e:	68fb      	ldr	r3, [r7, #12]
 8001850:	18d2      	adds	r2, r2, r3
 8001852:	687b      	ldr	r3, [r7, #4]
 8001854:	685b      	ldr	r3, [r3, #4]
 8001856:	0019      	movs	r1, r3
 8001858:	0010      	movs	r0, r2
 800185a:	f7fe fc55 	bl	8000108 <__udivsi3>
 800185e:	0003      	movs	r3, r0
 8001860:	b29b      	uxth	r3, r3
 8001862:	61bb      	str	r3, [r7, #24]
        break;
 8001864:	e014      	b.n	8001890 <UART_SetConfig+0x2ac>
      case UART_CLOCKSOURCE_LSE:
        usartdiv = (uint16_t)(UART_DIV_SAMPLING16(LSE_VALUE, huart->Init.BaudRate));
 8001866:	687b      	ldr	r3, [r7, #4]
 8001868:	685b      	ldr	r3, [r3, #4]
 800186a:	085b      	lsrs	r3, r3, #1
 800186c:	2280      	movs	r2, #128	; 0x80
 800186e:	0212      	lsls	r2, r2, #8
 8001870:	189a      	adds	r2, r3, r2
 8001872:	687b      	ldr	r3, [r7, #4]
 8001874:	685b      	ldr	r3, [r3, #4]
 8001876:	0019      	movs	r1, r3
 8001878:	0010      	movs	r0, r2
 800187a:	f7fe fc45 	bl	8000108 <__udivsi3>
 800187e:	0003      	movs	r3, r0
 8001880:	b29b      	uxth	r3, r3
 8001882:	61bb      	str	r3, [r7, #24]
        break;
 8001884:	e004      	b.n	8001890 <UART_SetConfig+0x2ac>
      default:
        ret = HAL_ERROR;
 8001886:	2317      	movs	r3, #23
 8001888:	18fb      	adds	r3, r7, r3
 800188a:	2201      	movs	r2, #1
 800188c:	701a      	strb	r2, [r3, #0]
        break;
 800188e:	46c0      	nop			; (mov r8, r8)
    }

    /* USARTDIV must be greater than or equal to 0d16 */
    if ((usartdiv >= UART_BRR_MIN) && (usartdiv <= UART_BRR_MAX))
 8001890:	69bb      	ldr	r3, [r7, #24]
 8001892:	2b0f      	cmp	r3, #15
 8001894:	d908      	bls.n	80018a8 <UART_SetConfig+0x2c4>
 8001896:	69bb      	ldr	r3, [r7, #24]
 8001898:	4a13      	ldr	r2, [pc, #76]	; (80018e8 <UART_SetConfig+0x304>)
 800189a:	4293      	cmp	r3, r2
 800189c:	d804      	bhi.n	80018a8 <UART_SetConfig+0x2c4>
    {
      huart->Instance->BRR = usartdiv;
 800189e:	687b      	ldr	r3, [r7, #4]
 80018a0:	681b      	ldr	r3, [r3, #0]
 80018a2:	69ba      	ldr	r2, [r7, #24]
 80018a4:	60da      	str	r2, [r3, #12]
 80018a6:	e003      	b.n	80018b0 <UART_SetConfig+0x2cc>
    }
    else
    {
      ret = HAL_ERROR;
 80018a8:	2317      	movs	r3, #23
 80018aa:	18fb      	adds	r3, r7, r3
 80018ac:	2201      	movs	r2, #1
 80018ae:	701a      	strb	r2, [r3, #0]
    }
  }


  /* Clear ISR function pointers */
  huart->RxISR = NULL;
 80018b0:	687b      	ldr	r3, [r7, #4]
 80018b2:	2200      	movs	r2, #0
 80018b4:	661a      	str	r2, [r3, #96]	; 0x60
  huart->TxISR = NULL;
 80018b6:	687b      	ldr	r3, [r7, #4]
 80018b8:	2200      	movs	r2, #0
 80018ba:	665a      	str	r2, [r3, #100]	; 0x64

  return ret;
 80018bc:	2317      	movs	r3, #23
 80018be:	18fb      	adds	r3, r7, r3
 80018c0:	781b      	ldrb	r3, [r3, #0]
}
 80018c2:	0018      	movs	r0, r3
 80018c4:	46bd      	mov	sp, r7
 80018c6:	b008      	add	sp, #32
 80018c8:	bd80      	pop	{r7, pc}
 80018ca:	46c0      	nop			; (mov r8, r8)
 80018cc:	ffff69f3 	.word	0xffff69f3
 80018d0:	ffffcfff 	.word	0xffffcfff
 80018d4:	fffff4ff 	.word	0xfffff4ff
 80018d8:	40013800 	.word	0x40013800
 80018dc:	40021000 	.word	0x40021000
 80018e0:	40004400 	.word	0x40004400
 80018e4:	00f42400 	.word	0x00f42400
 80018e8:	0000ffff 	.word	0x0000ffff
 80018ec:	007a1200 	.word	0x007a1200

080018f0 <UART_AdvFeatureConfig>:
  * @brief Configure the UART peripheral advanced features.
  * @param huart UART handle.
  * @retval None
  */
void UART_AdvFeatureConfig(UART_HandleTypeDef *huart)
{
 80018f0:	b580      	push	{r7, lr}
 80018f2:	b082      	sub	sp, #8
 80018f4:	af00      	add	r7, sp, #0
 80018f6:	6078      	str	r0, [r7, #4]
  /* Check whether the set of advanced features to configure is properly set */
  assert_param(IS_UART_ADVFEATURE_INIT(huart->AdvancedInit.AdvFeatureInit));

  /* if required, configure TX pin active level inversion */
  if (HAL_IS_BIT_SET(huart->AdvancedInit.AdvFeatureInit, UART_ADVFEATURE_TXINVERT_INIT))
 80018f8:	687b      	ldr	r3, [r7, #4]
 80018fa:	6a5b      	ldr	r3, [r3, #36]	; 0x24
 80018fc:	2201      	movs	r2, #1
 80018fe:	4013      	ands	r3, r2
 8001900:	d00b      	beq.n	800191a <UART_AdvFeatureConfig+0x2a>
  {
    assert_param(IS_UART_ADVFEATURE_TXINV(huart->AdvancedInit.TxPinLevelInvert));
    MODIFY_REG(huart->Instance->CR2, USART_CR2_TXINV, huart->AdvancedInit.TxPinLevelInvert);
 8001902:	687b      	ldr	r3, [r7, #4]
 8001904:	681b      	ldr	r3, [r3, #0]
 8001906:	685b      	ldr	r3, [r3, #4]
 8001908:	4a4a      	ldr	r2, [pc, #296]	; (8001a34 <UART_AdvFeatureConfig+0x144>)
 800190a:	4013      	ands	r3, r2
 800190c:	0019      	movs	r1, r3
 800190e:	687b      	ldr	r3, [r7, #4]
 8001910:	6a9a      	ldr	r2, [r3, #40]	; 0x28
 8001912:	687b      	ldr	r3, [r7, #4]
 8001914:	681b      	ldr	r3, [r3, #0]
 8001916:	430a      	orrs	r2, r1
 8001918:	605a      	str	r2, [r3, #4]
  }

  /* if required, configure RX pin active level inversion */
  if (HAL_IS_BIT_SET(huart->AdvancedInit.AdvFeatureInit, UART_ADVFEATURE_RXINVERT_INIT))
 800191a:	687b      	ldr	r3, [r7, #4]
 800191c:	6a5b      	ldr	r3, [r3, #36]	; 0x24
 800191e:	2202      	movs	r2, #2
 8001920:	4013      	ands	r3, r2
 8001922:	d00b      	beq.n	800193c <UART_AdvFeatureConfig+0x4c>
  {
    assert_param(IS_UART_ADVFEATURE_RXINV(huart->AdvancedInit.RxPinLevelInvert));
    MODIFY_REG(huart->Instance->CR2, USART_CR2_RXINV, huart->AdvancedInit.RxPinLevelInvert);
 8001924:	687b      	ldr	r3, [r7, #4]
 8001926:	681b      	ldr	r3, [r3, #0]
 8001928:	685b      	ldr	r3, [r3, #4]
 800192a:	4a43      	ldr	r2, [pc, #268]	; (8001a38 <UART_AdvFeatureConfig+0x148>)
 800192c:	4013      	ands	r3, r2
 800192e:	0019      	movs	r1, r3
 8001930:	687b      	ldr	r3, [r7, #4]
 8001932:	6ada      	ldr	r2, [r3, #44]	; 0x2c
 8001934:	687b      	ldr	r3, [r7, #4]
 8001936:	681b      	ldr	r3, [r3, #0]
 8001938:	430a      	orrs	r2, r1
 800193a:	605a      	str	r2, [r3, #4]
  }

  /* if required, configure data inversion */
  if (HAL_IS_BIT_SET(huart->AdvancedInit.AdvFeatureInit, UART_ADVFEATURE_DATAINVERT_INIT))
 800193c:	687b      	ldr	r3, [r7, #4]
 800193e:	6a5b      	ldr	r3, [r3, #36]	; 0x24
 8001940:	2204      	movs	r2, #4
 8001942:	4013      	ands	r3, r2
 8001944:	d00b      	beq.n	800195e <UART_AdvFeatureConfig+0x6e>
  {
    assert_param(IS_UART_ADVFEATURE_DATAINV(huart->AdvancedInit.DataInvert));
    MODIFY_REG(huart->Instance->CR2, USART_CR2_DATAINV, huart->AdvancedInit.DataInvert);
 8001946:	687b      	ldr	r3, [r7, #4]
 8001948:	681b      	ldr	r3, [r3, #0]
 800194a:	685b      	ldr	r3, [r3, #4]
 800194c:	4a3b      	ldr	r2, [pc, #236]	; (8001a3c <UART_AdvFeatureConfig+0x14c>)
 800194e:	4013      	ands	r3, r2
 8001950:	0019      	movs	r1, r3
 8001952:	687b      	ldr	r3, [r7, #4]
 8001954:	6b1a      	ldr	r2, [r3, #48]	; 0x30
 8001956:	687b      	ldr	r3, [r7, #4]
 8001958:	681b      	ldr	r3, [r3, #0]
 800195a:	430a      	orrs	r2, r1
 800195c:	605a      	str	r2, [r3, #4]
  }

  /* if required, configure RX/TX pins swap */
  if (HAL_IS_BIT_SET(huart->AdvancedInit.AdvFeatureInit, UART_ADVFEATURE_SWAP_INIT))
 800195e:	687b      	ldr	r3, [r7, #4]
 8001960:	6a5b      	ldr	r3, [r3, #36]	; 0x24
 8001962:	2208      	movs	r2, #8
 8001964:	4013      	ands	r3, r2
 8001966:	d00b      	beq.n	8001980 <UART_AdvFeatureConfig+0x90>
  {
    assert_param(IS_UART_ADVFEATURE_SWAP(huart->AdvancedInit.Swap));
    MODIFY_REG(huart->Instance->CR2, USART_CR2_SWAP, huart->AdvancedInit.Swap);
 8001968:	687b      	ldr	r3, [r7, #4]
 800196a:	681b      	ldr	r3, [r3, #0]
 800196c:	685b      	ldr	r3, [r3, #4]
 800196e:	4a34      	ldr	r2, [pc, #208]	; (8001a40 <UART_AdvFeatureConfig+0x150>)
 8001970:	4013      	ands	r3, r2
 8001972:	0019      	movs	r1, r3
 8001974:	687b      	ldr	r3, [r7, #4]
 8001976:	6b5a      	ldr	r2, [r3, #52]	; 0x34
 8001978:	687b      	ldr	r3, [r7, #4]
 800197a:	681b      	ldr	r3, [r3, #0]
 800197c:	430a      	orrs	r2, r1
 800197e:	605a      	str	r2, [r3, #4]
  }

  /* if required, configure RX overrun detection disabling */
  if (HAL_IS_BIT_SET(huart->AdvancedInit.AdvFeatureInit, UART_ADVFEATURE_RXOVERRUNDISABLE_INIT))
 8001980:	687b      	ldr	r3, [r7, #4]
 8001982:	6a5b      	ldr	r3, [r3, #36]	; 0x24
 8001984:	2210      	movs	r2, #16
 8001986:	4013      	ands	r3, r2
 8001988:	d00b      	beq.n	80019a2 <UART_AdvFeatureConfig+0xb2>
  {
    assert_param(IS_UART_OVERRUN(huart->AdvancedInit.OverrunDisable));
    MODIFY_REG(huart->Instance->CR3, USART_CR3_OVRDIS, huart->AdvancedInit.OverrunDisable);
 800198a:	687b      	ldr	r3, [r7, #4]
 800198c:	681b      	ldr	r3, [r3, #0]
 800198e:	689b      	ldr	r3, [r3, #8]
 8001990:	4a2c      	ldr	r2, [pc, #176]	; (8001a44 <UART_AdvFeatureConfig+0x154>)
 8001992:	4013      	ands	r3, r2
 8001994:	0019      	movs	r1, r3
 8001996:	687b      	ldr	r3, [r7, #4]
 8001998:	6b9a      	ldr	r2, [r3, #56]	; 0x38
 800199a:	687b      	ldr	r3, [r7, #4]
 800199c:	681b      	ldr	r3, [r3, #0]
 800199e:	430a      	orrs	r2, r1
 80019a0:	609a      	str	r2, [r3, #8]
  }

  /* if required, configure DMA disabling on reception error */
  if (HAL_IS_BIT_SET(huart->AdvancedInit.AdvFeatureInit, UART_ADVFEATURE_DMADISABLEONERROR_INIT))
 80019a2:	687b      	ldr	r3, [r7, #4]
 80019a4:	6a5b      	ldr	r3, [r3, #36]	; 0x24
 80019a6:	2220      	movs	r2, #32
 80019a8:	4013      	ands	r3, r2
 80019aa:	d00b      	beq.n	80019c4 <UART_AdvFeatureConfig+0xd4>
  {
    assert_param(IS_UART_ADVFEATURE_DMAONRXERROR(huart->AdvancedInit.DMADisableonRxError));
    MODIFY_REG(huart->Instance->CR3, USART_CR3_DDRE, huart->AdvancedInit.DMADisableonRxError);
 80019ac:	687b      	ldr	r3, [r7, #4]
 80019ae:	681b      	ldr	r3, [r3, #0]
 80019b0:	689b      	ldr	r3, [r3, #8]
 80019b2:	4a25      	ldr	r2, [pc, #148]	; (8001a48 <UART_AdvFeatureConfig+0x158>)
 80019b4:	4013      	ands	r3, r2
 80019b6:	0019      	movs	r1, r3
 80019b8:	687b      	ldr	r3, [r7, #4]
 80019ba:	6bda      	ldr	r2, [r3, #60]	; 0x3c
 80019bc:	687b      	ldr	r3, [r7, #4]
 80019be:	681b      	ldr	r3, [r3, #0]
 80019c0:	430a      	orrs	r2, r1
 80019c2:	609a      	str	r2, [r3, #8]
  }

  /* if required, configure auto Baud rate detection scheme */
  if (HAL_IS_BIT_SET(huart->AdvancedInit.AdvFeatureInit, UART_ADVFEATURE_AUTOBAUDRATE_INIT))
 80019c4:	687b      	ldr	r3, [r7, #4]
 80019c6:	6a5b      	ldr	r3, [r3, #36]	; 0x24
 80019c8:	2240      	movs	r2, #64	; 0x40
 80019ca:	4013      	ands	r3, r2
 80019cc:	d01d      	beq.n	8001a0a <UART_AdvFeatureConfig+0x11a>
  {
    assert_param(IS_USART_AUTOBAUDRATE_DETECTION_INSTANCE(huart->Instance));
    assert_param(IS_UART_ADVFEATURE_AUTOBAUDRATE(huart->AdvancedInit.AutoBaudRateEnable));
    MODIFY_REG(huart->Instance->CR2, USART_CR2_ABREN, huart->AdvancedInit.AutoBaudRateEnable);
 80019ce:	687b      	ldr	r3, [r7, #4]
 80019d0:	681b      	ldr	r3, [r3, #0]
 80019d2:	685b      	ldr	r3, [r3, #4]
 80019d4:	4a1d      	ldr	r2, [pc, #116]	; (8001a4c <UART_AdvFeatureConfig+0x15c>)
 80019d6:	4013      	ands	r3, r2
 80019d8:	0019      	movs	r1, r3
 80019da:	687b      	ldr	r3, [r7, #4]
 80019dc:	6c1a      	ldr	r2, [r3, #64]	; 0x40
 80019de:	687b      	ldr	r3, [r7, #4]
 80019e0:	681b      	ldr	r3, [r3, #0]
 80019e2:	430a      	orrs	r2, r1
 80019e4:	605a      	str	r2, [r3, #4]
    /* set auto Baudrate detection parameters if detection is enabled */
    if (huart->AdvancedInit.AutoBaudRateEnable == UART_ADVFEATURE_AUTOBAUDRATE_ENABLE)
 80019e6:	687b      	ldr	r3, [r7, #4]
 80019e8:	6c1a      	ldr	r2, [r3, #64]	; 0x40
 80019ea:	2380      	movs	r3, #128	; 0x80
 80019ec:	035b      	lsls	r3, r3, #13
 80019ee:	429a      	cmp	r2, r3
 80019f0:	d10b      	bne.n	8001a0a <UART_AdvFeatureConfig+0x11a>
    {
      assert_param(IS_UART_ADVFEATURE_AUTOBAUDRATEMODE(huart->AdvancedInit.AutoBaudRateMode));
      MODIFY_REG(huart->Instance->CR2, USART_CR2_ABRMODE, huart->AdvancedInit.AutoBaudRateMode);
 80019f2:	687b      	ldr	r3, [r7, #4]
 80019f4:	681b      	ldr	r3, [r3, #0]
 80019f6:	685b      	ldr	r3, [r3, #4]
 80019f8:	4a15      	ldr	r2, [pc, #84]	; (8001a50 <UART_AdvFeatureConfig+0x160>)
 80019fa:	4013      	ands	r3, r2
 80019fc:	0019      	movs	r1, r3
 80019fe:	687b      	ldr	r3, [r7, #4]
 8001a00:	6c5a      	ldr	r2, [r3, #68]	; 0x44
 8001a02:	687b      	ldr	r3, [r7, #4]
 8001a04:	681b      	ldr	r3, [r3, #0]
 8001a06:	430a      	orrs	r2, r1
 8001a08:	605a      	str	r2, [r3, #4]
    }
  }

  /* if required, configure MSB first on communication line */
  if (HAL_IS_BIT_SET(huart->AdvancedInit.AdvFeatureInit, UART_ADVFEATURE_MSBFIRST_INIT))
 8001a0a:	687b      	ldr	r3, [r7, #4]
 8001a0c:	6a5b      	ldr	r3, [r3, #36]	; 0x24
 8001a0e:	2280      	movs	r2, #128	; 0x80
 8001a10:	4013      	ands	r3, r2
 8001a12:	d00b      	beq.n	8001a2c <UART_AdvFeatureConfig+0x13c>
  {
    assert_param(IS_UART_ADVFEATURE_MSBFIRST(huart->AdvancedInit.MSBFirst));
    MODIFY_REG(huart->Instance->CR2, USART_CR2_MSBFIRST, huart->AdvancedInit.MSBFirst);
 8001a14:	687b      	ldr	r3, [r7, #4]
 8001a16:	681b      	ldr	r3, [r3, #0]
 8001a18:	685b      	ldr	r3, [r3, #4]
 8001a1a:	4a0e      	ldr	r2, [pc, #56]	; (8001a54 <UART_AdvFeatureConfig+0x164>)
 8001a1c:	4013      	ands	r3, r2
 8001a1e:	0019      	movs	r1, r3
 8001a20:	687b      	ldr	r3, [r7, #4]
 8001a22:	6c9a      	ldr	r2, [r3, #72]	; 0x48
 8001a24:	687b      	ldr	r3, [r7, #4]
 8001a26:	681b      	ldr	r3, [r3, #0]
 8001a28:	430a      	orrs	r2, r1
 8001a2a:	605a      	str	r2, [r3, #4]
  }
}
 8001a2c:	46c0      	nop			; (mov r8, r8)
 8001a2e:	46bd      	mov	sp, r7
 8001a30:	b002      	add	sp, #8
 8001a32:	bd80      	pop	{r7, pc}
 8001a34:	fffdffff 	.word	0xfffdffff
 8001a38:	fffeffff 	.word	0xfffeffff
 8001a3c:	fffbffff 	.word	0xfffbffff
 8001a40:	ffff7fff 	.word	0xffff7fff
 8001a44:	ffffefff 	.word	0xffffefff
 8001a48:	ffffdfff 	.word	0xffffdfff
 8001a4c:	ffefffff 	.word	0xffefffff
 8001a50:	ff9fffff 	.word	0xff9fffff
 8001a54:	fff7ffff 	.word	0xfff7ffff

08001a58 <UART_CheckIdleState>:
  * @brief Check the UART Idle State.
  * @param huart UART handle.
  * @retval HAL status
  */
HAL_StatusTypeDef UART_CheckIdleState(UART_HandleTypeDef *huart)
{
 8001a58:	b580      	push	{r7, lr}
 8001a5a:	b086      	sub	sp, #24
 8001a5c:	af02      	add	r7, sp, #8
 8001a5e:	6078      	str	r0, [r7, #4]
  uint32_t tickstart;

  /* Initialize the UART ErrorCode */
  huart->ErrorCode = HAL_UART_ERROR_NONE;
 8001a60:	687b      	ldr	r3, [r7, #4]
 8001a62:	2200      	movs	r2, #0
 8001a64:	67da      	str	r2, [r3, #124]	; 0x7c

  /* Init tickstart for timeout managment*/
  tickstart = HAL_GetTick();
 8001a66:	f7fe fdd1 	bl	800060c <HAL_GetTick>
 8001a6a:	0003      	movs	r3, r0
 8001a6c:	60fb      	str	r3, [r7, #12]

  /* Check if the Transmitter is enabled */
  if ((huart->Instance->CR1 & USART_CR1_TE) == USART_CR1_TE)
 8001a6e:	687b      	ldr	r3, [r7, #4]
 8001a70:	681b      	ldr	r3, [r3, #0]
 8001a72:	681b      	ldr	r3, [r3, #0]
 8001a74:	2208      	movs	r2, #8
 8001a76:	4013      	ands	r3, r2
 8001a78:	2b08      	cmp	r3, #8
 8001a7a:	d10d      	bne.n	8001a98 <UART_CheckIdleState+0x40>
  {
    /* Wait until TEACK flag is set */
    if (UART_WaitOnFlagUntilTimeout(huart, USART_ISR_TEACK, RESET, tickstart, HAL_UART_TIMEOUT_VALUE) != HAL_OK)
 8001a7c:	68fa      	ldr	r2, [r7, #12]
 8001a7e:	2380      	movs	r3, #128	; 0x80
 8001a80:	0399      	lsls	r1, r3, #14
 8001a82:	6878      	ldr	r0, [r7, #4]
 8001a84:	4b16      	ldr	r3, [pc, #88]	; (8001ae0 <UART_CheckIdleState+0x88>)
 8001a86:	9300      	str	r3, [sp, #0]
 8001a88:	0013      	movs	r3, r2
 8001a8a:	2200      	movs	r2, #0
 8001a8c:	f000 f82a 	bl	8001ae4 <UART_WaitOnFlagUntilTimeout>
 8001a90:	1e03      	subs	r3, r0, #0
 8001a92:	d001      	beq.n	8001a98 <UART_CheckIdleState+0x40>
    {
      /* Timeout occurred */
      return HAL_TIMEOUT;
 8001a94:	2303      	movs	r3, #3
 8001a96:	e01f      	b.n	8001ad8 <UART_CheckIdleState+0x80>
    }
  }

  /* Check if the Receiver is enabled */
  if ((huart->Instance->CR1 & USART_CR1_RE) == USART_CR1_RE)
 8001a98:	687b      	ldr	r3, [r7, #4]
 8001a9a:	681b      	ldr	r3, [r3, #0]
 8001a9c:	681b      	ldr	r3, [r3, #0]
 8001a9e:	2204      	movs	r2, #4
 8001aa0:	4013      	ands	r3, r2
 8001aa2:	2b04      	cmp	r3, #4
 8001aa4:	d10d      	bne.n	8001ac2 <UART_CheckIdleState+0x6a>
  {
    /* Wait until REACK flag is set */
    if (UART_WaitOnFlagUntilTimeout(huart, USART_ISR_REACK, RESET, tickstart, HAL_UART_TIMEOUT_VALUE) != HAL_OK)
 8001aa6:	68fa      	ldr	r2, [r7, #12]
 8001aa8:	2380      	movs	r3, #128	; 0x80
 8001aaa:	03d9      	lsls	r1, r3, #15
 8001aac:	6878      	ldr	r0, [r7, #4]
 8001aae:	4b0c      	ldr	r3, [pc, #48]	; (8001ae0 <UART_CheckIdleState+0x88>)
 8001ab0:	9300      	str	r3, [sp, #0]
 8001ab2:	0013      	movs	r3, r2
 8001ab4:	2200      	movs	r2, #0
 8001ab6:	f000 f815 	bl	8001ae4 <UART_WaitOnFlagUntilTimeout>
 8001aba:	1e03      	subs	r3, r0, #0
 8001abc:	d001      	beq.n	8001ac2 <UART_CheckIdleState+0x6a>
    {
      /* Timeout occurred */
      return HAL_TIMEOUT;
 8001abe:	2303      	movs	r3, #3
 8001ac0:	e00a      	b.n	8001ad8 <UART_CheckIdleState+0x80>
    }
  }

  /* Initialize the UART State */
  huart->gState = HAL_UART_STATE_READY;
 8001ac2:	687b      	ldr	r3, [r7, #4]
 8001ac4:	2220      	movs	r2, #32
 8001ac6:	675a      	str	r2, [r3, #116]	; 0x74
  huart->RxState = HAL_UART_STATE_READY;
 8001ac8:	687b      	ldr	r3, [r7, #4]
 8001aca:	2220      	movs	r2, #32
 8001acc:	679a      	str	r2, [r3, #120]	; 0x78

  __HAL_UNLOCK(huart);
 8001ace:	687b      	ldr	r3, [r7, #4]
 8001ad0:	2270      	movs	r2, #112	; 0x70
 8001ad2:	2100      	movs	r1, #0
 8001ad4:	5499      	strb	r1, [r3, r2]

  return HAL_OK;
 8001ad6:	2300      	movs	r3, #0
}
 8001ad8:	0018      	movs	r0, r3
 8001ada:	46bd      	mov	sp, r7
 8001adc:	b004      	add	sp, #16
 8001ade:	bd80      	pop	{r7, pc}
 8001ae0:	01ffffff 	.word	0x01ffffff

08001ae4 <UART_WaitOnFlagUntilTimeout>:
  * @param Timeout   Timeout duration
  * @retval HAL status
  */
HAL_StatusTypeDef UART_WaitOnFlagUntilTimeout(UART_HandleTypeDef *huart, uint32_t Flag, FlagStatus Status,
                                              uint32_t Tickstart, uint32_t Timeout)
{
 8001ae4:	b580      	push	{r7, lr}
 8001ae6:	b084      	sub	sp, #16
 8001ae8:	af00      	add	r7, sp, #0
 8001aea:	60f8      	str	r0, [r7, #12]
 8001aec:	60b9      	str	r1, [r7, #8]
 8001aee:	603b      	str	r3, [r7, #0]
 8001af0:	1dfb      	adds	r3, r7, #7
 8001af2:	701a      	strb	r2, [r3, #0]
  /* Wait until flag is set */
  while ((__HAL_UART_GET_FLAG(huart, Flag) ? SET : RESET) == Status)
 8001af4:	e05d      	b.n	8001bb2 <UART_WaitOnFlagUntilTimeout+0xce>
  {
    /* Check for the Timeout */
    if (Timeout != HAL_MAX_DELAY)
 8001af6:	69bb      	ldr	r3, [r7, #24]
 8001af8:	3301      	adds	r3, #1
 8001afa:	d05a      	beq.n	8001bb2 <UART_WaitOnFlagUntilTimeout+0xce>
    {
      if (((HAL_GetTick() - Tickstart) > Timeout) || (Timeout == 0U))
 8001afc:	f7fe fd86 	bl	800060c <HAL_GetTick>
 8001b00:	0002      	movs	r2, r0
 8001b02:	683b      	ldr	r3, [r7, #0]
 8001b04:	1ad3      	subs	r3, r2, r3
 8001b06:	69ba      	ldr	r2, [r7, #24]
 8001b08:	429a      	cmp	r2, r3
 8001b0a:	d302      	bcc.n	8001b12 <UART_WaitOnFlagUntilTimeout+0x2e>
 8001b0c:	69bb      	ldr	r3, [r7, #24]
 8001b0e:	2b00      	cmp	r3, #0
 8001b10:	d11b      	bne.n	8001b4a <UART_WaitOnFlagUntilTimeout+0x66>
      {
        /* Disable TXE, RXNE, PE and ERR (Frame error, noise error, overrun error) interrupts for the interrupt process */
        CLEAR_BIT(huart->Instance->CR1, (USART_CR1_RXNEIE | USART_CR1_PEIE | USART_CR1_TXEIE));
 8001b12:	68fb      	ldr	r3, [r7, #12]
 8001b14:	681b      	ldr	r3, [r3, #0]
 8001b16:	681a      	ldr	r2, [r3, #0]
 8001b18:	68fb      	ldr	r3, [r7, #12]
 8001b1a:	681b      	ldr	r3, [r3, #0]
 8001b1c:	492f      	ldr	r1, [pc, #188]	; (8001bdc <UART_WaitOnFlagUntilTimeout+0xf8>)
 8001b1e:	400a      	ands	r2, r1
 8001b20:	601a      	str	r2, [r3, #0]
        CLEAR_BIT(huart->Instance->CR3, USART_CR3_EIE);
 8001b22:	68fb      	ldr	r3, [r7, #12]
 8001b24:	681b      	ldr	r3, [r3, #0]
 8001b26:	689a      	ldr	r2, [r3, #8]
 8001b28:	68fb      	ldr	r3, [r7, #12]
 8001b2a:	681b      	ldr	r3, [r3, #0]
 8001b2c:	2101      	movs	r1, #1
 8001b2e:	438a      	bics	r2, r1
 8001b30:	609a      	str	r2, [r3, #8]

        huart->gState = HAL_UART_STATE_READY;
 8001b32:	68fb      	ldr	r3, [r7, #12]
 8001b34:	2220      	movs	r2, #32
 8001b36:	675a      	str	r2, [r3, #116]	; 0x74
        huart->RxState = HAL_UART_STATE_READY;
 8001b38:	68fb      	ldr	r3, [r7, #12]
 8001b3a:	2220      	movs	r2, #32
 8001b3c:	679a      	str	r2, [r3, #120]	; 0x78

        __HAL_UNLOCK(huart);
 8001b3e:	68fb      	ldr	r3, [r7, #12]
 8001b40:	2270      	movs	r2, #112	; 0x70
 8001b42:	2100      	movs	r1, #0
 8001b44:	5499      	strb	r1, [r3, r2]

        return HAL_TIMEOUT;
 8001b46:	2303      	movs	r3, #3
 8001b48:	e043      	b.n	8001bd2 <UART_WaitOnFlagUntilTimeout+0xee>
      }

      if (READ_BIT(huart->Instance->CR1, USART_CR1_RE) != 0U)
 8001b4a:	68fb      	ldr	r3, [r7, #12]
 8001b4c:	681b      	ldr	r3, [r3, #0]
 8001b4e:	681b      	ldr	r3, [r3, #0]
 8001b50:	2204      	movs	r2, #4
 8001b52:	4013      	ands	r3, r2
 8001b54:	d02d      	beq.n	8001bb2 <UART_WaitOnFlagUntilTimeout+0xce>
      {
        if (__HAL_UART_GET_FLAG(huart, UART_FLAG_RTOF) == SET)
 8001b56:	68fb      	ldr	r3, [r7, #12]
 8001b58:	681b      	ldr	r3, [r3, #0]
 8001b5a:	69da      	ldr	r2, [r3, #28]
 8001b5c:	2380      	movs	r3, #128	; 0x80
 8001b5e:	011b      	lsls	r3, r3, #4
 8001b60:	401a      	ands	r2, r3
 8001b62:	2380      	movs	r3, #128	; 0x80
 8001b64:	011b      	lsls	r3, r3, #4
 8001b66:	429a      	cmp	r2, r3
 8001b68:	d123      	bne.n	8001bb2 <UART_WaitOnFlagUntilTimeout+0xce>
        {
          /* Clear Receiver Timeout flag*/
          __HAL_UART_CLEAR_FLAG(huart, UART_CLEAR_RTOF);
 8001b6a:	68fb      	ldr	r3, [r7, #12]
 8001b6c:	681b      	ldr	r3, [r3, #0]
 8001b6e:	2280      	movs	r2, #128	; 0x80
 8001b70:	0112      	lsls	r2, r2, #4
 8001b72:	621a      	str	r2, [r3, #32]
          
          /* Disable TXE, RXNE, PE and ERR (Frame error, noise error, overrun error) interrupts for the interrupt process */
          CLEAR_BIT(huart->Instance->CR1, (USART_CR1_RXNEIE | USART_CR1_PEIE | USART_CR1_TXEIE));
 8001b74:	68fb      	ldr	r3, [r7, #12]
 8001b76:	681b      	ldr	r3, [r3, #0]
 8001b78:	681a      	ldr	r2, [r3, #0]
 8001b7a:	68fb      	ldr	r3, [r7, #12]
 8001b7c:	681b      	ldr	r3, [r3, #0]
 8001b7e:	4917      	ldr	r1, [pc, #92]	; (8001bdc <UART_WaitOnFlagUntilTimeout+0xf8>)
 8001b80:	400a      	ands	r2, r1
 8001b82:	601a      	str	r2, [r3, #0]
          CLEAR_BIT(huart->Instance->CR3, USART_CR3_EIE);
 8001b84:	68fb      	ldr	r3, [r7, #12]
 8001b86:	681b      	ldr	r3, [r3, #0]
 8001b88:	689a      	ldr	r2, [r3, #8]
 8001b8a:	68fb      	ldr	r3, [r7, #12]
 8001b8c:	681b      	ldr	r3, [r3, #0]
 8001b8e:	2101      	movs	r1, #1
 8001b90:	438a      	bics	r2, r1
 8001b92:	609a      	str	r2, [r3, #8]

          huart->gState = HAL_UART_STATE_READY;
 8001b94:	68fb      	ldr	r3, [r7, #12]
 8001b96:	2220      	movs	r2, #32
 8001b98:	675a      	str	r2, [r3, #116]	; 0x74
          huart->RxState = HAL_UART_STATE_READY;
 8001b9a:	68fb      	ldr	r3, [r7, #12]
 8001b9c:	2220      	movs	r2, #32
 8001b9e:	679a      	str	r2, [r3, #120]	; 0x78
          huart->ErrorCode = HAL_UART_ERROR_RTO;
 8001ba0:	68fb      	ldr	r3, [r7, #12]
 8001ba2:	2220      	movs	r2, #32
 8001ba4:	67da      	str	r2, [r3, #124]	; 0x7c
          
          /* Process Unlocked */
          __HAL_UNLOCK(huart);
 8001ba6:	68fb      	ldr	r3, [r7, #12]
 8001ba8:	2270      	movs	r2, #112	; 0x70
 8001baa:	2100      	movs	r1, #0
 8001bac:	5499      	strb	r1, [r3, r2]
          
          return HAL_TIMEOUT;
 8001bae:	2303      	movs	r3, #3
 8001bb0:	e00f      	b.n	8001bd2 <UART_WaitOnFlagUntilTimeout+0xee>
  while ((__HAL_UART_GET_FLAG(huart, Flag) ? SET : RESET) == Status)
 8001bb2:	68fb      	ldr	r3, [r7, #12]
 8001bb4:	681b      	ldr	r3, [r3, #0]
 8001bb6:	69db      	ldr	r3, [r3, #28]
 8001bb8:	68ba      	ldr	r2, [r7, #8]
 8001bba:	4013      	ands	r3, r2
 8001bbc:	68ba      	ldr	r2, [r7, #8]
 8001bbe:	1ad3      	subs	r3, r2, r3
 8001bc0:	425a      	negs	r2, r3
 8001bc2:	4153      	adcs	r3, r2
 8001bc4:	b2db      	uxtb	r3, r3
 8001bc6:	001a      	movs	r2, r3
 8001bc8:	1dfb      	adds	r3, r7, #7
 8001bca:	781b      	ldrb	r3, [r3, #0]
 8001bcc:	429a      	cmp	r2, r3
 8001bce:	d092      	beq.n	8001af6 <UART_WaitOnFlagUntilTimeout+0x12>
        }
      }
    }
  }
  return HAL_OK;
 8001bd0:	2300      	movs	r3, #0
}
 8001bd2:	0018      	movs	r0, r3
 8001bd4:	46bd      	mov	sp, r7
 8001bd6:	b004      	add	sp, #16
 8001bd8:	bd80      	pop	{r7, pc}
 8001bda:	46c0      	nop			; (mov r8, r8)
 8001bdc:	fffffe5f 	.word	0xfffffe5f

08001be0 <__libc_init_array>:
 8001be0:	b570      	push	{r4, r5, r6, lr}
 8001be2:	2600      	movs	r6, #0
 8001be4:	4d0c      	ldr	r5, [pc, #48]	; (8001c18 <__libc_init_array+0x38>)
 8001be6:	4c0d      	ldr	r4, [pc, #52]	; (8001c1c <__libc_init_array+0x3c>)
 8001be8:	1b64      	subs	r4, r4, r5
 8001bea:	10a4      	asrs	r4, r4, #2
 8001bec:	42a6      	cmp	r6, r4
 8001bee:	d109      	bne.n	8001c04 <__libc_init_array+0x24>
 8001bf0:	2600      	movs	r6, #0
 8001bf2:	f000 f821 	bl	8001c38 <_init>
 8001bf6:	4d0a      	ldr	r5, [pc, #40]	; (8001c20 <__libc_init_array+0x40>)
 8001bf8:	4c0a      	ldr	r4, [pc, #40]	; (8001c24 <__libc_init_array+0x44>)
 8001bfa:	1b64      	subs	r4, r4, r5
 8001bfc:	10a4      	asrs	r4, r4, #2
 8001bfe:	42a6      	cmp	r6, r4
 8001c00:	d105      	bne.n	8001c0e <__libc_init_array+0x2e>
 8001c02:	bd70      	pop	{r4, r5, r6, pc}
 8001c04:	00b3      	lsls	r3, r6, #2
 8001c06:	58eb      	ldr	r3, [r5, r3]
 8001c08:	4798      	blx	r3
 8001c0a:	3601      	adds	r6, #1
 8001c0c:	e7ee      	b.n	8001bec <__libc_init_array+0xc>
 8001c0e:	00b3      	lsls	r3, r6, #2
 8001c10:	58eb      	ldr	r3, [r5, r3]
 8001c12:	4798      	blx	r3
 8001c14:	3601      	adds	r6, #1
 8001c16:	e7f2      	b.n	8001bfe <__libc_init_array+0x1e>
 8001c18:	08001c88 	.word	0x08001c88
 8001c1c:	08001c88 	.word	0x08001c88
 8001c20:	08001c88 	.word	0x08001c88
 8001c24:	08001c8c 	.word	0x08001c8c

08001c28 <memset>:
 8001c28:	0003      	movs	r3, r0
 8001c2a:	1812      	adds	r2, r2, r0
 8001c2c:	4293      	cmp	r3, r2
 8001c2e:	d100      	bne.n	8001c32 <memset+0xa>
 8001c30:	4770      	bx	lr
 8001c32:	7019      	strb	r1, [r3, #0]
 8001c34:	3301      	adds	r3, #1
 8001c36:	e7f9      	b.n	8001c2c <memset+0x4>

08001c38 <_init>:
 8001c38:	b5f8      	push	{r3, r4, r5, r6, r7, lr}
 8001c3a:	46c0      	nop			; (mov r8, r8)
 8001c3c:	bcf8      	pop	{r3, r4, r5, r6, r7}
 8001c3e:	bc08      	pop	{r3}
 8001c40:	469e      	mov	lr, r3
 8001c42:	4770      	bx	lr

08001c44 <_fini>:
 8001c44:	b5f8      	push	{r3, r4, r5, r6, r7, lr}
 8001c46:	46c0      	nop			; (mov r8, r8)
 8001c48:	bcf8      	pop	{r3, r4, r5, r6, r7}
 8001c4a:	bc08      	pop	{r3}
 8001c4c:	469e      	mov	lr, r3
 8001c4e:	4770      	bx	lr
